Archive member included because of file (symbol)

/Users/imac/Develop/stm32f4/arm_gcc/gcc-arm-none-eabi-4_7-2013q3/bin/../lib/gcc/arm-none-eabi/4.7.4/../../../../arm-none-eabi/lib/armv7-m/libm.a(lib_a-sf_cos.o)
                              obj/SKYROVER/gps.o (cosf)
/Users/imac/Develop/stm32f4/arm_gcc/gcc-arm-none-eabi-4_7-2013q3/bin/../lib/gcc/arm-none-eabi/4.7.4/../../../../arm-none-eabi/lib/armv7-m/libm.a(lib_a-sf_lrint.o)
                              obj/SKYROVER/imu.o (lrintf)
/Users/imac/Develop/stm32f4/arm_gcc/gcc-arm-none-eabi-4_7-2013q3/bin/../lib/gcc/arm-none-eabi/4.7.4/../../../../arm-none-eabi/lib/armv7-m/libm.a(lib_a-sf_sin.o)
                              obj/SKYROVER/gps.o (sinf)
/Users/imac/Develop/stm32f4/arm_gcc/gcc-arm-none-eabi-4_7-2013q3/bin/../lib/gcc/arm-none-eabi/4.7.4/../../../../arm-none-eabi/lib/armv7-m/libm.a(lib_a-wf_atan2.o)
                              obj/SKYROVER/gps.o (atan2f)
/Users/imac/Develop/stm32f4/arm_gcc/gcc-arm-none-eabi-4_7-2013q3/bin/../lib/gcc/arm-none-eabi/4.7.4/../../../../arm-none-eabi/lib/armv7-m/libm.a(lib_a-wf_pow.o)
                              obj/SKYROVER/imu.o (powf)
/Users/imac/Develop/stm32f4/arm_gcc/gcc-arm-none-eabi-4_7-2013q3/bin/../lib/gcc/arm-none-eabi/4.7.4/../../../../arm-none-eabi/lib/armv7-m/libm.a(lib_a-wf_sqrt.o)
                              obj/SKYROVER/gps.o (sqrtf)
/Users/imac/Develop/stm32f4/arm_gcc/gcc-arm-none-eabi-4_7-2013q3/bin/../lib/gcc/arm-none-eabi/4.7.4/../../../../arm-none-eabi/lib/armv7-m/libm.a(lib_a-ef_atan2.o)
                              /Users/imac/Develop/stm32f4/arm_gcc/gcc-arm-none-eabi-4_7-2013q3/bin/../lib/gcc/arm-none-eabi/4.7.4/../../../../arm-none-eabi/lib/armv7-m/libm.a(lib_a-wf_atan2.o) (__ieee754_atan2f)
/Users/imac/Develop/stm32f4/arm_gcc/gcc-arm-none-eabi-4_7-2013q3/bin/../lib/gcc/arm-none-eabi/4.7.4/../../../../arm-none-eabi/lib/armv7-m/libm.a(lib_a-ef_pow.o)
                              /Users/imac/Develop/stm32f4/arm_gcc/gcc-arm-none-eabi-4_7-2013q3/bin/../lib/gcc/arm-none-eabi/4.7.4/../../../../arm-none-eabi/lib/armv7-m/libm.a(lib_a-wf_pow.o) (__ieee754_powf)
/Users/imac/Develop/stm32f4/arm_gcc/gcc-arm-none-eabi-4_7-2013q3/bin/../lib/gcc/arm-none-eabi/4.7.4/../../../../arm-none-eabi/lib/armv7-m/libm.a(lib_a-ef_rem_pio2.o)
                              /Users/imac/Develop/stm32f4/arm_gcc/gcc-arm-none-eabi-4_7-2013q3/bin/../lib/gcc/arm-none-eabi/4.7.4/../../../../arm-none-eabi/lib/armv7-m/libm.a(lib_a-sf_cos.o) (__ieee754_rem_pio2f)
/Users/imac/Develop/stm32f4/arm_gcc/gcc-arm-none-eabi-4_7-2013q3/bin/../lib/gcc/arm-none-eabi/4.7.4/../../../../arm-none-eabi/lib/armv7-m/libm.a(lib_a-ef_sqrt.o)
                              /Users/imac/Develop/stm32f4/arm_gcc/gcc-arm-none-eabi-4_7-2013q3/bin/../lib/gcc/arm-none-eabi/4.7.4/../../../../arm-none-eabi/lib/armv7-m/libm.a(lib_a-wf_sqrt.o) (__ieee754_sqrtf)
/Users/imac/Develop/stm32f4/arm_gcc/gcc-arm-none-eabi-4_7-2013q3/bin/../lib/gcc/arm-none-eabi/4.7.4/../../../../arm-none-eabi/lib/armv7-m/libm.a(lib_a-kf_cos.o)
                              /Users/imac/Develop/stm32f4/arm_gcc/gcc-arm-none-eabi-4_7-2013q3/bin/../lib/gcc/arm-none-eabi/4.7.4/../../../../arm-none-eabi/lib/armv7-m/libm.a(lib_a-sf_cos.o) (__kernel_cosf)
/Users/imac/Develop/stm32f4/arm_gcc/gcc-arm-none-eabi-4_7-2013q3/bin/../lib/gcc/arm-none-eabi/4.7.4/../../../../arm-none-eabi/lib/armv7-m/libm.a(lib_a-kf_rem_pio2.o)
                              /Users/imac/Develop/stm32f4/arm_gcc/gcc-arm-none-eabi-4_7-2013q3/bin/../lib/gcc/arm-none-eabi/4.7.4/../../../../arm-none-eabi/lib/armv7-m/libm.a(lib_a-ef_rem_pio2.o) (__kernel_rem_pio2f)
/Users/imac/Develop/stm32f4/arm_gcc/gcc-arm-none-eabi-4_7-2013q3/bin/../lib/gcc/arm-none-eabi/4.7.4/../../../../arm-none-eabi/lib/armv7-m/libm.a(lib_a-kf_sin.o)
                              /Users/imac/Develop/stm32f4/arm_gcc/gcc-arm-none-eabi-4_7-2013q3/bin/../lib/gcc/arm-none-eabi/4.7.4/../../../../arm-none-eabi/lib/armv7-m/libm.a(lib_a-sf_cos.o) (__kernel_sinf)
/Users/imac/Develop/stm32f4/arm_gcc/gcc-arm-none-eabi-4_7-2013q3/bin/../lib/gcc/arm-none-eabi/4.7.4/../../../../arm-none-eabi/lib/armv7-m/libm.a(lib_a-s_lib_ver.o)
                              /Users/imac/Develop/stm32f4/arm_gcc/gcc-arm-none-eabi-4_7-2013q3/bin/../lib/gcc/arm-none-eabi/4.7.4/../../../../arm-none-eabi/lib/armv7-m/libm.a(lib_a-wf_pow.o) (__fdlib_version)
/Users/imac/Develop/stm32f4/arm_gcc/gcc-arm-none-eabi-4_7-2013q3/bin/../lib/gcc/arm-none-eabi/4.7.4/../../../../arm-none-eabi/lib/armv7-m/libm.a(lib_a-s_matherr.o)
                              /Users/imac/Develop/stm32f4/arm_gcc/gcc-arm-none-eabi-4_7-2013q3/bin/../lib/gcc/arm-none-eabi/4.7.4/../../../../arm-none-eabi/lib/armv7-m/libm.a(lib_a-wf_pow.o) (matherr)
/Users/imac/Develop/stm32f4/arm_gcc/gcc-arm-none-eabi-4_7-2013q3/bin/../lib/gcc/arm-none-eabi/4.7.4/../../../../arm-none-eabi/lib/armv7-m/libm.a(lib_a-s_rint.o)
                              /Users/imac/Develop/stm32f4/arm_gcc/gcc-arm-none-eabi-4_7-2013q3/bin/../lib/gcc/arm-none-eabi/4.7.4/../../../../arm-none-eabi/lib/armv7-m/libm.a(lib_a-wf_pow.o) (rint)
/Users/imac/Develop/stm32f4/arm_gcc/gcc-arm-none-eabi-4_7-2013q3/bin/../lib/gcc/arm-none-eabi/4.7.4/../../../../arm-none-eabi/lib/armv7-m/libm.a(lib_a-sf_atan.o)
                              /Users/imac/Develop/stm32f4/arm_gcc/gcc-arm-none-eabi-4_7-2013q3/bin/../lib/gcc/arm-none-eabi/4.7.4/../../../../arm-none-eabi/lib/armv7-m/libm.a(lib_a-ef_atan2.o) (atanf)
/Users/imac/Develop/stm32f4/arm_gcc/gcc-arm-none-eabi-4_7-2013q3/bin/../lib/gcc/arm-none-eabi/4.7.4/../../../../arm-none-eabi/lib/armv7-m/libm.a(lib_a-sf_fabs.o)
                              /Users/imac/Develop/stm32f4/arm_gcc/gcc-arm-none-eabi-4_7-2013q3/bin/../lib/gcc/arm-none-eabi/4.7.4/../../../../arm-none-eabi/lib/armv7-m/libm.a(lib_a-ef_atan2.o) (fabsf)
/Users/imac/Develop/stm32f4/arm_gcc/gcc-arm-none-eabi-4_7-2013q3/bin/../lib/gcc/arm-none-eabi/4.7.4/../../../../arm-none-eabi/lib/armv7-m/libm.a(lib_a-sf_finite.o)
                              /Users/imac/Develop/stm32f4/arm_gcc/gcc-arm-none-eabi-4_7-2013q3/bin/../lib/gcc/arm-none-eabi/4.7.4/../../../../arm-none-eabi/lib/armv7-m/libm.a(lib_a-wf_pow.o) (finitef)
/Users/imac/Develop/stm32f4/arm_gcc/gcc-arm-none-eabi-4_7-2013q3/bin/../lib/gcc/arm-none-eabi/4.7.4/../../../../arm-none-eabi/lib/armv7-m/libm.a(lib_a-sf_floor.o)
                              /Users/imac/Develop/stm32f4/arm_gcc/gcc-arm-none-eabi-4_7-2013q3/bin/../lib/gcc/arm-none-eabi/4.7.4/../../../../arm-none-eabi/lib/armv7-m/libm.a(lib_a-kf_rem_pio2.o) (floorf)
/Users/imac/Develop/stm32f4/arm_gcc/gcc-arm-none-eabi-4_7-2013q3/bin/../lib/gcc/arm-none-eabi/4.7.4/../../../../arm-none-eabi/lib/armv7-m/libm.a(lib_a-sf_fpclassify.o)
                              /Users/imac/Develop/stm32f4/arm_gcc/gcc-arm-none-eabi-4_7-2013q3/bin/../lib/gcc/arm-none-eabi/4.7.4/../../../../arm-none-eabi/lib/armv7-m/libm.a(lib_a-wf_pow.o) (__fpclassifyf)
/Users/imac/Develop/stm32f4/arm_gcc/gcc-arm-none-eabi-4_7-2013q3/bin/../lib/gcc/arm-none-eabi/4.7.4/../../../../arm-none-eabi/lib/armv7-m/libm.a(lib_a-sf_nan.o)
                              /Users/imac/Develop/stm32f4/arm_gcc/gcc-arm-none-eabi-4_7-2013q3/bin/../lib/gcc/arm-none-eabi/4.7.4/../../../../arm-none-eabi/lib/armv7-m/libm.a(lib_a-ef_pow.o) (nanf)
/Users/imac/Develop/stm32f4/arm_gcc/gcc-arm-none-eabi-4_7-2013q3/bin/../lib/gcc/arm-none-eabi/4.7.4/../../../../arm-none-eabi/lib/armv7-m/libm.a(lib_a-sf_scalbn.o)
                              /Users/imac/Develop/stm32f4/arm_gcc/gcc-arm-none-eabi-4_7-2013q3/bin/../lib/gcc/arm-none-eabi/4.7.4/../../../../arm-none-eabi/lib/armv7-m/libm.a(lib_a-ef_pow.o) (scalbnf)
/Users/imac/Develop/stm32f4/arm_gcc/gcc-arm-none-eabi-4_7-2013q3/bin/../lib/gcc/arm-none-eabi/4.7.4/../../../../arm-none-eabi/lib/armv7-m/libm.a(lib_a-sf_copysign.o)
                              /Users/imac/Develop/stm32f4/arm_gcc/gcc-arm-none-eabi-4_7-2013q3/bin/../lib/gcc/arm-none-eabi/4.7.4/../../../../arm-none-eabi/lib/armv7-m/libm.a(lib_a-sf_scalbn.o) (copysignf)
/Users/imac/Develop/stm32f4/arm_gcc/gcc-arm-none-eabi-4_7-2013q3/bin/../lib/gcc/arm-none-eabi/4.7.4/armv7-m/libgcc.a(_arm_addsubdf3.o)
                              /Users/imac/Develop/stm32f4/arm_gcc/gcc-arm-none-eabi-4_7-2013q3/bin/../lib/gcc/arm-none-eabi/4.7.4/../../../../arm-none-eabi/lib/armv7-m/libm.a(lib_a-s_rint.o) (__aeabi_dsub)
/Users/imac/Develop/stm32f4/arm_gcc/gcc-arm-none-eabi-4_7-2013q3/bin/../lib/gcc/arm-none-eabi/4.7.4/armv7-m/libgcc.a(_arm_muldivdf3.o)
                              obj/SKYROVER/gps.o (__aeabi_dmul)
/Users/imac/Develop/stm32f4/arm_gcc/gcc-arm-none-eabi-4_7-2013q3/bin/../lib/gcc/arm-none-eabi/4.7.4/armv7-m/libgcc.a(_arm_cmpdf2.o)
                              /Users/imac/Develop/stm32f4/arm_gcc/gcc-arm-none-eabi-4_7-2013q3/bin/../lib/gcc/arm-none-eabi/4.7.4/../../../../arm-none-eabi/lib/armv7-m/libm.a(lib_a-wf_pow.o) (__aeabi_dcmpeq)
/Users/imac/Develop/stm32f4/arm_gcc/gcc-arm-none-eabi-4_7-2013q3/bin/../lib/gcc/arm-none-eabi/4.7.4/armv7-m/libgcc.a(_arm_truncdfsf2.o)
                              obj/SKYROVER/gps.o (__aeabi_d2f)
/Users/imac/Develop/stm32f4/arm_gcc/gcc-arm-none-eabi-4_7-2013q3/bin/../lib/gcc/arm-none-eabi/4.7.4/armv7-m/libgcc.a(_arm_addsubsf3.o)
                              obj/SKYROVER/cli.o (__aeabi_fsub)
/Users/imac/Develop/stm32f4/arm_gcc/gcc-arm-none-eabi-4_7-2013q3/bin/../lib/gcc/arm-none-eabi/4.7.4/armv7-m/libgcc.a(_arm_muldivsf3.o)
                              obj/SKYROVER/drv_hmc5883l.o (__aeabi_fmul)
/Users/imac/Develop/stm32f4/arm_gcc/gcc-arm-none-eabi-4_7-2013q3/bin/../lib/gcc/arm-none-eabi/4.7.4/armv7-m/libgcc.a(_arm_cmpsf2.o)
                              obj/SKYROVER/cli.o (__aeabi_fcmpeq)
/Users/imac/Develop/stm32f4/arm_gcc/gcc-arm-none-eabi-4_7-2013q3/bin/../lib/gcc/arm-none-eabi/4.7.4/armv7-m/libgcc.a(_arm_fixsfsi.o)
                              obj/SKYROVER/drv_hmc5883l.o (__aeabi_f2iz)
/Users/imac/Develop/stm32f4/arm_gcc/gcc-arm-none-eabi-4_7-2013q3/bin/../lib/gcc/arm-none-eabi/4.7.4/armv7-m/libgcc.a(_arm_fixunssfsi.o)
                              obj/SKYROVER/gps.o (__aeabi_f2uiz)
/Users/imac/Develop/stm32f4/arm_gcc/gcc-arm-none-eabi-4_7-2013q3/bin/../lib/gcc/arm-none-eabi/4.7.4/../../../../arm-none-eabi/lib/armv7-m/libc.a(lib_a-__atexit.o)
                              /Users/imac/Develop/stm32f4/arm_gcc/gcc-arm-none-eabi-4_7-2013q3/bin/../lib/gcc/arm-none-eabi/4.7.4/../../../../arm-none-eabi/lib/armv7-m/crt0.o (__register_exitproc)
/Users/imac/Develop/stm32f4/arm_gcc/gcc-arm-none-eabi-4_7-2013q3/bin/../lib/gcc/arm-none-eabi/4.7.4/../../../../arm-none-eabi/lib/armv7-m/libc.a(lib_a-atoi.o)
                              obj/SKYROVER/cli.o (atoi)
/Users/imac/Develop/stm32f4/arm_gcc/gcc-arm-none-eabi-4_7-2013q3/bin/../lib/gcc/arm-none-eabi/4.7.4/../../../../arm-none-eabi/lib/armv7-m/libc.a(lib_a-bsearch.o)
                              obj/SKYROVER/cli.o (bsearch)
/Users/imac/Develop/stm32f4/arm_gcc/gcc-arm-none-eabi-4_7-2013q3/bin/../lib/gcc/arm-none-eabi/4.7.4/../../../../arm-none-eabi/lib/armv7-m/libc.a(lib_a-ctype_.o)
                              obj/SKYROVER/cli.o (__ctype_ptr__)
/Users/imac/Develop/stm32f4/arm_gcc/gcc-arm-none-eabi-4_7-2013q3/bin/../lib/gcc/arm-none-eabi/4.7.4/../../../../arm-none-eabi/lib/armv7-m/libc.a(lib_a-errno.o)
                              /Users/imac/Develop/stm32f4/arm_gcc/gcc-arm-none-eabi-4_7-2013q3/bin/../lib/gcc/arm-none-eabi/4.7.4/../../../../arm-none-eabi/lib/armv7-m/libm.a(lib_a-wf_pow.o) (__errno)
/Users/imac/Develop/stm32f4/arm_gcc/gcc-arm-none-eabi-4_7-2013q3/bin/../lib/gcc/arm-none-eabi/4.7.4/../../../../arm-none-eabi/lib/armv7-m/libc.a(lib_a-exit.o)
                              /Users/imac/Develop/stm32f4/arm_gcc/gcc-arm-none-eabi-4_7-2013q3/bin/../lib/gcc/arm-none-eabi/4.7.4/../../../../arm-none-eabi/lib/armv7-m/crt0.o (exit)
/Users/imac/Develop/stm32f4/arm_gcc/gcc-arm-none-eabi-4_7-2013q3/bin/../lib/gcc/arm-none-eabi/4.7.4/../../../../arm-none-eabi/lib/armv7-m/libc.a(lib_a-fini.o)
                              /Users/imac/Develop/stm32f4/arm_gcc/gcc-arm-none-eabi-4_7-2013q3/bin/../lib/gcc/arm-none-eabi/4.7.4/../../../../arm-none-eabi/lib/armv7-m/crt0.o (__libc_fini_array)
/Users/imac/Develop/stm32f4/arm_gcc/gcc-arm-none-eabi-4_7-2013q3/bin/../lib/gcc/arm-none-eabi/4.7.4/../../../../arm-none-eabi/lib/armv7-m/libc.a(lib_a-impure.o)
                              /Users/imac/Develop/stm32f4/arm_gcc/gcc-arm-none-eabi-4_7-2013q3/bin/../lib/gcc/arm-none-eabi/4.7.4/../../../../arm-none-eabi/lib/armv7-m/libc.a(lib_a-__atexit.o) (_global_impure_ptr)
/Users/imac/Develop/stm32f4/arm_gcc/gcc-arm-none-eabi-4_7-2013q3/bin/../lib/gcc/arm-none-eabi/4.7.4/../../../../arm-none-eabi/lib/armv7-m/libc.a(lib_a-init.o)
                              /Users/imac/Develop/stm32f4/arm_gcc/gcc-arm-none-eabi-4_7-2013q3/bin/../lib/gcc/arm-none-eabi/4.7.4/../../../../arm-none-eabi/lib/armv7-m/crt0.o (__libc_init_array)
/Users/imac/Develop/stm32f4/arm_gcc/gcc-arm-none-eabi-4_7-2013q3/bin/../lib/gcc/arm-none-eabi/4.7.4/../../../../arm-none-eabi/lib/armv7-m/libc.a(lib_a-memcpy.o)
                              obj/SKYROVER/config.o (memcpy)
/Users/imac/Develop/stm32f4/arm_gcc/gcc-arm-none-eabi-4_7-2013q3/bin/../lib/gcc/arm-none-eabi/4.7.4/../../../../arm-none-eabi/lib/armv7-m/libc.a(lib_a-memset.o)
                              /Users/imac/Develop/stm32f4/arm_gcc/gcc-arm-none-eabi-4_7-2013q3/bin/../lib/gcc/arm-none-eabi/4.7.4/../../../../arm-none-eabi/lib/armv7-m/crt0.o (memset)
/Users/imac/Develop/stm32f4/arm_gcc/gcc-arm-none-eabi-4_7-2013q3/bin/../lib/gcc/arm-none-eabi/4.7.4/../../../../arm-none-eabi/lib/armv7-m/libc.a(lib_a-strcat.o)
                              obj/SKYROVER/cli.o (strcat)
/Users/imac/Develop/stm32f4/arm_gcc/gcc-arm-none-eabi-4_7-2013q3/bin/../lib/gcc/arm-none-eabi/4.7.4/../../../../arm-none-eabi/lib/armv7-m/libc.a(lib_a-strchr.o)
                              obj/SKYROVER/cli.o (strchr)
/Users/imac/Develop/stm32f4/arm_gcc/gcc-arm-none-eabi-4_7-2013q3/bin/../lib/gcc/arm-none-eabi/4.7.4/../../../../arm-none-eabi/lib/armv7-m/libc.a(lib_a-strcpy.o)
                              /Users/imac/Develop/stm32f4/arm_gcc/gcc-arm-none-eabi-4_7-2013q3/bin/../lib/gcc/arm-none-eabi/4.7.4/../../../../arm-none-eabi/lib/armv7-m/libc.a(lib_a-strcat.o) (strcpy)
/Users/imac/Develop/stm32f4/arm_gcc/gcc-arm-none-eabi-4_7-2013q3/bin/../lib/gcc/arm-none-eabi/4.7.4/../../../../arm-none-eabi/lib/armv7-m/libc.a(lib_a-strlen.o)
                              obj/SKYROVER/cli.o (strlen)
/Users/imac/Develop/stm32f4/arm_gcc/gcc-arm-none-eabi-4_7-2013q3/bin/../lib/gcc/arm-none-eabi/4.7.4/../../../../arm-none-eabi/lib/armv7-m/libc.a(lib_a-strncasecmp.o)
                              obj/SKYROVER/cli.o (strncasecmp)
/Users/imac/Develop/stm32f4/arm_gcc/gcc-arm-none-eabi-4_7-2013q3/bin/../lib/gcc/arm-none-eabi/4.7.4/../../../../arm-none-eabi/lib/armv7-m/libc.a(lib_a-strncpy.o)
                              obj/SKYROVER/cli.o (strncpy)
/Users/imac/Develop/stm32f4/arm_gcc/gcc-arm-none-eabi-4_7-2013q3/bin/../lib/gcc/arm-none-eabi/4.7.4/../../../../arm-none-eabi/lib/armv7-m/libc.a(lib_a-strstr.o)
                              obj/SKYROVER/cli.o (strstr)
/Users/imac/Develop/stm32f4/arm_gcc/gcc-arm-none-eabi-4_7-2013q3/bin/../lib/gcc/arm-none-eabi/4.7.4/../../../../arm-none-eabi/lib/armv7-m/libc.a(lib_a-strtok.o)
                              obj/SKYROVER/cli.o (strtok)
/Users/imac/Develop/stm32f4/arm_gcc/gcc-arm-none-eabi-4_7-2013q3/bin/../lib/gcc/arm-none-eabi/4.7.4/../../../../arm-none-eabi/lib/armv7-m/libc.a(lib_a-strtok_r.o)
                              /Users/imac/Develop/stm32f4/arm_gcc/gcc-arm-none-eabi-4_7-2013q3/bin/../lib/gcc/arm-none-eabi/4.7.4/../../../../arm-none-eabi/lib/armv7-m/libc.a(lib_a-strtok.o) (__strtok_r)
/Users/imac/Develop/stm32f4/arm_gcc/gcc-arm-none-eabi-4_7-2013q3/bin/../lib/gcc/arm-none-eabi/4.7.4/../../../../arm-none-eabi/lib/armv7-m/libc.a(lib_a-strtol.o)
                              /Users/imac/Develop/stm32f4/arm_gcc/gcc-arm-none-eabi-4_7-2013q3/bin/../lib/gcc/arm-none-eabi/4.7.4/../../../../arm-none-eabi/lib/armv7-m/libc.a(lib_a-atoi.o) (_strtol_r)
/Users/imac/Develop/stm32f4/arm_gcc/gcc-arm-none-eabi-4_7-2013q3/bin/../lib/gcc/arm-none-eabi/4.7.4/../../../../arm-none-eabi/lib/armv7-m/libc.a(lib_a-__call_atexit.o)
                              /Users/imac/Develop/stm32f4/arm_gcc/gcc-arm-none-eabi-4_7-2013q3/bin/../lib/gcc/arm-none-eabi/4.7.4/../../../../arm-none-eabi/lib/armv7-m/libc.a(lib_a-exit.o) (__call_exitprocs)
/Users/imac/Develop/stm32f4/arm_gcc/gcc-arm-none-eabi-4_7-2013q3/bin/../lib/gcc/arm-none-eabi/4.7.4/../../../../arm-none-eabi/lib/armv7-m/libc.a(lib_a-atexit.o)
                              /Users/imac/Develop/stm32f4/arm_gcc/gcc-arm-none-eabi-4_7-2013q3/bin/../lib/gcc/arm-none-eabi/4.7.4/../../../../arm-none-eabi/lib/armv7-m/libc.a(lib_a-__call_atexit.o) (atexit)
/Users/imac/Develop/stm32f4/arm_gcc/gcc-arm-none-eabi-4_7-2013q3/bin/../lib/gcc/arm-none-eabi/4.7.4/../../../../arm-none-eabi/lib/armv7-m/libc.a(lib_a-memchr.o)
                              /Users/imac/Develop/stm32f4/arm_gcc/gcc-arm-none-eabi-4_7-2013q3/bin/../lib/gcc/arm-none-eabi/4.7.4/../../../../arm-none-eabi/lib/armv7-m/libc.a(lib_a-strstr.o) (memchr)
/Users/imac/Develop/stm32f4/arm_gcc/gcc-arm-none-eabi-4_7-2013q3/bin/../lib/gcc/arm-none-eabi/4.7.4/../../../../arm-none-eabi/lib/armv7-m/libc.a(lib_a-memcmp.o)
                              /Users/imac/Develop/stm32f4/arm_gcc/gcc-arm-none-eabi-4_7-2013q3/bin/../lib/gcc/arm-none-eabi/4.7.4/../../../../arm-none-eabi/lib/armv7-m/libc.a(lib_a-strstr.o) (memcmp)

Allocating common symbols
Common symbol       size              file

acc                 0x10              obj/SKYROVER/sensors.o
ubs_protocol_bytes  0x1               obj/SKYROVER/gps.o
GPS_svinfo_chn      0x10              obj/SKYROVER/mw.o
sonarAlt            0x4               obj/SKYROVER/imu.o
gyroADC             0x6               obj/SKYROVER/imu.o
ubx_nav_status_bits
                    0x1               obj/SKYROVER/gps.o
softSerialPorts     0x490             obj/SKYROVER/drv_softserial.o
telemTemperature1   0x2               obj/SKYROVER/mw.o
f                   0x11              obj/SKYROVER/mw.o
GPS_altitude        0x2               obj/SKYROVER/mw.o
nav_rated           0x4               obj/SKYROVER/mw.o
xLeadFilter         0x2               obj/SKYROVER/gps.o
lookupThrottleRC    0x18              obj/SKYROVER/mw.o
nav                 0x4               obj/SKYROVER/mw.o
GPS_speed           0x2               obj/SKYROVER/mw.o
GPS_hold            0x8               obj/SKYROVER/mw.o
debug               0x8               obj/SKYROVER/mw.o
accSum              0xc               obj/SKYROVER/imu.o
accVelScale         0x4               obj/SKYROVER/imu.o
accADC              0x6               obj/SKYROVER/imu.o
magHold             0x2               obj/SKYROVER/sensors.o
core                0x14              obj/SKYROVER/main.o
gyro                0x10              obj/SKYROVER/sensors.o
gpsData             0x18              obj/SKYROVER/gps.o
EstAlt              0x4               obj/SKYROVER/imu.o
rcCommand           0x8               obj/SKYROVER/mw.o
magADC              0x6               obj/SKYROVER/imu.o
vbat                0x1               obj/SKYROVER/mw.o
yLeadFilter         0x2               obj/SKYROVER/gps.o
cfg                 0xc4              obj/SKYROVER/config.o
baro                0x18              obj/SKYROVER/sensors.o
batteryWarningVoltage
                    0x2               obj/SKYROVER/mw.o
axisPID             0x6               obj/SKYROVER/mw.o
timerConfig         0x100             obj/SKYROVER/drv_timer.o
GPS_distanceToHome  0x2               obj/SKYROVER/mw.o
GPS_home            0x8               obj/SKYROVER/mw.o
AltHold             0x4               obj/SKYROVER/imu.o
spekFrame           0x10              obj/SKYROVER/spektrum.o
GPS_directionToHome
                    0x2               obj/SKYROVER/mw.o
rcOptions           0x15              obj/SKYROVER/mw.o
mcfg                0x37c             obj/SKYROVER/config.o
GPS_svinfo_svid     0x10              obj/SKYROVER/mw.o
accSmooth           0x6               obj/SKYROVER/imu.o
GPS_coord           0x8               obj/SKYROVER/mw.o
GPS_svinfo_quality  0x10              obj/SKYROVER/mw.o
dynI8               0x3               obj/SKYROVER/mw.o
rssi                0x2               obj/SKYROVER/mw.o
GPS_numSat          0x1               obj/SKYROVER/mw.o
GPS_numCh           0x1               obj/SKYROVER/mw.o
headFreeModeHold    0x2               obj/SKYROVER/mw.o
motor               0x18              obj/SKYROVER/mixer.o
rcData              0x24              obj/SKYROVER/mw.o
dynD8               0x3               obj/SKYROVER/mw.o
motor_disarmed      0x18              obj/SKYROVER/mixer.o
dynP8               0x3               obj/SKYROVER/mw.o
GPS_svinfo_cno      0x10              obj/SKYROVER/mw.o
AccInflightCalibrationArmed
                    0x2               obj/SKYROVER/mw.o
lookupPitchRollRC   0xe               obj/SKYROVER/mw.o
ubs_nav_fix_type    0x1               obj/SKYROVER/gps.o
EstG                0xc               obj/SKYROVER/imu.o
heading             0x2               obj/SKYROVER/sensors.o

Discarded input sections

 .text          0x0000000000000000        0x0 /Users/imac/Develop/stm32f4/arm_gcc/gcc-arm-none-eabi-4_7-2013q3/bin/../lib/gcc/arm-none-eabi/4.7.4/armv7-m/crti.o
 .data          0x0000000000000000        0x0 /Users/imac/Develop/stm32f4/arm_gcc/gcc-arm-none-eabi-4_7-2013q3/bin/../lib/gcc/arm-none-eabi/4.7.4/armv7-m/crti.o
 .bss           0x0000000000000000        0x0 /Users/imac/Develop/stm32f4/arm_gcc/gcc-arm-none-eabi-4_7-2013q3/bin/../lib/gcc/arm-none-eabi/4.7.4/armv7-m/crti.o
 .data          0x0000000000000000        0x4 /Users/imac/Develop/stm32f4/arm_gcc/gcc-arm-none-eabi-4_7-2013q3/bin/../lib/gcc/arm-none-eabi/4.7.4/armv7-m/crtbegin.o
 .text          0x0000000000000000       0x70 /Users/imac/Develop/stm32f4/arm_gcc/gcc-arm-none-eabi-4_7-2013q3/bin/../lib/gcc/arm-none-eabi/4.7.4/../../../../arm-none-eabi/lib/armv7-m/crt0.o
 .data          0x0000000000000000        0x0 /Users/imac/Develop/stm32f4/arm_gcc/gcc-arm-none-eabi-4_7-2013q3/bin/../lib/gcc/arm-none-eabi/4.7.4/../../../../arm-none-eabi/lib/armv7-m/crt0.o
 .bss           0x0000000000000000        0x0 /Users/imac/Develop/stm32f4/arm_gcc/gcc-arm-none-eabi-4_7-2013q3/bin/../lib/gcc/arm-none-eabi/4.7.4/../../../../arm-none-eabi/lib/armv7-m/crt0.o
 .ARM.extab     0x0000000000000000        0x0 /Users/imac/Develop/stm32f4/arm_gcc/gcc-arm-none-eabi-4_7-2013q3/bin/../lib/gcc/arm-none-eabi/4.7.4/../../../../arm-none-eabi/lib/armv7-m/crt0.o
 .ARM.exidx     0x0000000000000000        0x8 /Users/imac/Develop/stm32f4/arm_gcc/gcc-arm-none-eabi-4_7-2013q3/bin/../lib/gcc/arm-none-eabi/4.7.4/../../../../arm-none-eabi/lib/armv7-m/crt0.o
 .ARM.attributes
                0x0000000000000000       0x1b /Users/imac/Develop/stm32f4/arm_gcc/gcc-arm-none-eabi-4_7-2013q3/bin/../lib/gcc/arm-none-eabi/4.7.4/../../../../arm-none-eabi/lib/armv7-m/crt0.o
 .text          0x0000000000000000        0x0 obj/SKYROVER/drv_adc.o
 .data          0x0000000000000000        0x0 obj/SKYROVER/drv_adc.o
 .bss           0x0000000000000000        0x0 obj/SKYROVER/drv_adc.o
 .text          0x0000000000000000        0x0 obj/SKYROVER/drv_adxl345.o
 .data          0x0000000000000000        0x0 obj/SKYROVER/drv_adxl345.o
 .bss           0x0000000000000000        0x0 obj/SKYROVER/drv_adxl345.o
 .text          0x0000000000000000        0x0 obj/SKYROVER/drv_bma280.o
 .data          0x0000000000000000        0x0 obj/SKYROVER/drv_bma280.o
 .bss           0x0000000000000000        0x0 obj/SKYROVER/drv_bma280.o
 .text          0x0000000000000000        0x0 obj/SKYROVER/drv_bmp085.o
 .data          0x0000000000000000        0x0 obj/SKYROVER/drv_bmp085.o
 .bss           0x0000000000000000        0x0 obj/SKYROVER/drv_bmp085.o
 .text          0x0000000000000000        0x0 obj/SKYROVER/drv_ms5611.o
 .data          0x0000000000000000        0x0 obj/SKYROVER/drv_ms5611.o
 .bss           0x0000000000000000        0x0 obj/SKYROVER/drv_ms5611.o
 .text          0x0000000000000000        0x0 obj/SKYROVER/drv_hcsr04.o
 .data          0x0000000000000000        0x0 obj/SKYROVER/drv_hcsr04.o
 .bss           0x0000000000000000        0x0 obj/SKYROVER/drv_hcsr04.o
 .comment       0x0000000000000000       0x71 obj/SKYROVER/drv_hcsr04.o
 .ARM.attributes
                0x0000000000000000       0x33 obj/SKYROVER/drv_hcsr04.o
 .text          0x0000000000000000        0x0 obj/SKYROVER/drv_hmc5883l.o
 .data          0x0000000000000000        0x0 obj/SKYROVER/drv_hmc5883l.o
 .bss           0x0000000000000000        0x0 obj/SKYROVER/drv_hmc5883l.o
 .text          0x0000000000000000        0x0 obj/SKYROVER/drv_ledring.o
 .data          0x0000000000000000        0x0 obj/SKYROVER/drv_ledring.o
 .bss           0x0000000000000000        0x0 obj/SKYROVER/drv_ledring.o
 .text.ledringDetect
                0x0000000000000000        0xa obj/SKYROVER/drv_ledring.o
 .text.ledringState
                0x0000000000000000       0xbc obj/SKYROVER/drv_ledring.o
 .text.ledringBlink
                0x0000000000000000       0x20 obj/SKYROVER/drv_ledring.o
 .bss.state.9304
                0x0000000000000000        0x1 obj/SKYROVER/drv_ledring.o
 .comment       0x0000000000000000       0x71 obj/SKYROVER/drv_ledring.o
 .ARM.attributes
                0x0000000000000000       0x33 obj/SKYROVER/drv_ledring.o
 .text          0x0000000000000000        0x0 obj/SKYROVER/drv_mma845x.o
 .data          0x0000000000000000        0x0 obj/SKYROVER/drv_mma845x.o
 .bss           0x0000000000000000        0x0 obj/SKYROVER/drv_mma845x.o
 .text          0x0000000000000000        0x0 obj/SKYROVER/drv_mpu3050.o
 .data          0x0000000000000000        0x0 obj/SKYROVER/drv_mpu3050.o
 .bss           0x0000000000000000        0x0 obj/SKYROVER/drv_mpu3050.o
 .text          0x0000000000000000        0x0 obj/SKYROVER/drv_mpu6050.o
 .data          0x0000000000000000        0x0 obj/SKYROVER/drv_mpu6050.o
 .bss           0x0000000000000000        0x0 obj/SKYROVER/drv_mpu6050.o
 .text          0x0000000000000000        0x0 obj/SKYROVER/drv_l3g4200d.o
 .data          0x0000000000000000        0x0 obj/SKYROVER/drv_l3g4200d.o
 .bss           0x0000000000000000        0x0 obj/SKYROVER/drv_l3g4200d.o
 .text          0x0000000000000000        0x0 obj/SKYROVER/drv_pwm.o
 .data          0x0000000000000000        0x0 obj/SKYROVER/drv_pwm.o
 .bss           0x0000000000000000        0x0 obj/SKYROVER/drv_pwm.o
 .text          0x0000000000000000        0x0 obj/SKYROVER/drv_spi.o
 .data          0x0000000000000000        0x0 obj/SKYROVER/drv_spi.o
 .bss           0x0000000000000000        0x0 obj/SKYROVER/drv_spi.o
 .text.spiSelect
                0x0000000000000000       0x14 obj/SKYROVER/drv_spi.o
 .text.spiTransferByte
                0x0000000000000000       0x34 obj/SKYROVER/drv_spi.o
 .text          0x0000000000000000        0x0 obj/SKYROVER/drv_timer.o
 .data          0x0000000000000000        0x0 obj/SKYROVER/drv_timer.o
 .bss           0x0000000000000000        0x0 obj/SKYROVER/drv_timer.o
 .text          0x0000000000000000        0x0 obj/SKYROVER/hexairbot.o
 .data          0x0000000000000000        0x0 obj/SKYROVER/hexairbot.o
 .bss           0x0000000000000000        0x0 obj/SKYROVER/hexairbot.o
 .text          0x0000000000000000       0x14 obj/SKYROVER/startup_stm32f10x_md_gcc.o
 .data          0x0000000000000000        0x0 obj/SKYROVER/startup_stm32f10x_md_gcc.o
 .bss           0x0000000000000000        0x0 obj/SKYROVER/startup_stm32f10x_md_gcc.o
 .text          0x0000000000000000        0x0 obj/SKYROVER/buzzer.o
 .data          0x0000000000000000        0x0 obj/SKYROVER/buzzer.o
 .bss           0x0000000000000000        0x0 obj/SKYROVER/buzzer.o
 .text          0x0000000000000000        0x0 obj/SKYROVER/cli.o
 .data          0x0000000000000000        0x0 obj/SKYROVER/cli.o
 .bss           0x0000000000000000        0x0 obj/SKYROVER/cli.o
 .text          0x0000000000000000        0x0 obj/SKYROVER/config.o
 .data          0x0000000000000000        0x0 obj/SKYROVER/config.o
 .bss           0x0000000000000000        0x0 obj/SKYROVER/config.o
 .text.featureClearAll
                0x0000000000000000        0xc obj/SKYROVER/config.o
 .text          0x0000000000000000        0x0 obj/SKYROVER/gps.o
 .data          0x0000000000000000        0x0 obj/SKYROVER/gps.o
 .bss           0x0000000000000000        0x0 obj/SKYROVER/gps.o
 .text.leadFilter_clear
                0x0000000000000000        0x6 obj/SKYROVER/gps.o
 .text.leadFilter_getPosition
                0x0000000000000000       0x48 obj/SKYROVER/gps.o
 .text._update_checksum
                0x0000000000000000       0x20 obj/SKYROVER/gps.o
 .text          0x0000000000000000        0x0 obj/SKYROVER/imu.o
 .data          0x0000000000000000        0x0 obj/SKYROVER/imu.o
 .bss           0x0000000000000000        0x0 obj/SKYROVER/imu.o
 .text.normalizeV
                0x0000000000000000       0x6a obj/SKYROVER/imu.o
 .text          0x0000000000000000        0x0 obj/SKYROVER/main.o
 .data          0x0000000000000000        0x0 obj/SKYROVER/main.o
 .bss           0x0000000000000000        0x0 obj/SKYROVER/main.o
 .text          0x0000000000000000        0x0 obj/SKYROVER/mixer.o
 .data          0x0000000000000000        0x0 obj/SKYROVER/mixer.o
 .bss           0x0000000000000000        0x0 obj/SKYROVER/mixer.o
 .text.servoDirection
                0x0000000000000000       0x1c obj/SKYROVER/mixer.o
 .text          0x0000000000000000        0x0 obj/SKYROVER/mw.o
 .data          0x0000000000000000        0x0 obj/SKYROVER/mw.o
 .bss           0x0000000000000000        0x0 obj/SKYROVER/mw.o
 .text          0x0000000000000000        0x0 obj/SKYROVER/sensors.o
 .data          0x0000000000000000        0x0 obj/SKYROVER/sensors.o
 .bss           0x0000000000000000        0x0 obj/SKYROVER/sensors.o
 .text          0x0000000000000000        0x0 obj/SKYROVER/serial.o
 .data          0x0000000000000000        0x0 obj/SKYROVER/serial.o
 .bss           0x0000000000000000        0x0 obj/SKYROVER/serial.o
 .text          0x0000000000000000        0x0 obj/SKYROVER/sbus.o
 .data          0x0000000000000000        0x0 obj/SKYROVER/sbus.o
 .bss           0x0000000000000000        0x0 obj/SKYROVER/sbus.o
 .text          0x0000000000000000        0x0 obj/SKYROVER/sumd.o
 .data          0x0000000000000000        0x0 obj/SKYROVER/sumd.o
 .bss           0x0000000000000000        0x0 obj/SKYROVER/sumd.o
 .text          0x0000000000000000        0x0 obj/SKYROVER/spektrum.o
 .data          0x0000000000000000        0x0 obj/SKYROVER/spektrum.o
 .bss           0x0000000000000000        0x0 obj/SKYROVER/spektrum.o
 .text          0x0000000000000000        0x0 obj/SKYROVER/telemetry.o
 .data          0x0000000000000000        0x0 obj/SKYROVER/telemetry.o
 .bss           0x0000000000000000        0x0 obj/SKYROVER/telemetry.o
 .text          0x0000000000000000        0x0 obj/SKYROVER/drv_gpio.o
 .data          0x0000000000000000        0x0 obj/SKYROVER/drv_gpio.o
 .bss           0x0000000000000000        0x0 obj/SKYROVER/drv_gpio.o
 .text          0x0000000000000000        0x0 obj/SKYROVER/drv_i2c.o
 .data          0x0000000000000000        0x0 obj/SKYROVER/drv_i2c.o
 .bss           0x0000000000000000        0x0 obj/SKYROVER/drv_i2c.o
 .text          0x0000000000000000        0x0 obj/SKYROVER/drv_i2c_soft.o
 .data          0x0000000000000000        0x0 obj/SKYROVER/drv_i2c_soft.o
 .bss           0x0000000000000000        0x0 obj/SKYROVER/drv_i2c_soft.o
 .comment       0x0000000000000000       0x71 obj/SKYROVER/drv_i2c_soft.o
 .ARM.attributes
                0x0000000000000000       0x33 obj/SKYROVER/drv_i2c_soft.o
 .text          0x0000000000000000        0x0 obj/SKYROVER/drv_system.o
 .data          0x0000000000000000        0x0 obj/SKYROVER/drv_system.o
 .bss           0x0000000000000000        0x0 obj/SKYROVER/drv_system.o
 .text          0x0000000000000000        0x0 obj/SKYROVER/drv_serial.o
 .data          0x0000000000000000        0x0 obj/SKYROVER/drv_serial.o
 .bss           0x0000000000000000        0x0 obj/SKYROVER/drv_serial.o
 .text.serialGetBaudRate
                0x0000000000000000        0x4 obj/SKYROVER/drv_serial.o
 .text          0x0000000000000000        0x0 obj/SKYROVER/drv_softserial.o
 .data          0x0000000000000000        0x0 obj/SKYROVER/drv_softserial.o
 .bss           0x0000000000000000        0x0 obj/SKYROVER/drv_softserial.o
 .text.lookupSoftSerial
                0x0000000000000000       0x10 obj/SKYROVER/drv_softserial.o
 .text.resetSerialTimer
                0x0000000000000000        0xa obj/SKYROVER/drv_softserial.o
 .text.stopSerialTimer
                0x0000000000000000        0xa obj/SKYROVER/drv_softserial.o
 .text.startSerialTimer
                0x0000000000000000        0xa obj/SKYROVER/drv_softserial.o
 .text          0x0000000000000000        0x0 obj/SKYROVER/drv_uart.o
 .data          0x0000000000000000        0x0 obj/SKYROVER/drv_uart.o
 .bss           0x0000000000000000        0x0 obj/SKYROVER/drv_uart.o
 .text          0x0000000000000000        0x0 obj/SKYROVER/printf.o
 .data          0x0000000000000000        0x0 obj/SKYROVER/printf.o
 .bss           0x0000000000000000        0x0 obj/SKYROVER/printf.o
 .text.putcp    0x0000000000000000        0xa obj/SKYROVER/printf.o
 .text.tfp_sprintf
                0x0000000000000000       0x28 obj/SKYROVER/printf.o
 .text          0x0000000000000000        0x0 obj/SKYROVER/utils.o
 .data          0x0000000000000000        0x0 obj/SKYROVER/utils.o
 .bss           0x0000000000000000        0x0 obj/SKYROVER/utils.o
 .text          0x0000000000000000        0x0 obj/SKYROVER/core_cm3.o
 .data          0x0000000000000000        0x0 obj/SKYROVER/core_cm3.o
 .bss           0x0000000000000000        0x0 obj/SKYROVER/core_cm3.o
 .text.__get_PSP
                0x0000000000000000        0x8 obj/SKYROVER/core_cm3.o
 .text.__set_PSP
                0x0000000000000000        0x6 obj/SKYROVER/core_cm3.o
 .text.__get_MSP
                0x0000000000000000        0x8 obj/SKYROVER/core_cm3.o
 .text.__set_MSP
                0x0000000000000000        0x6 obj/SKYROVER/core_cm3.o
 .text.__get_BASEPRI
                0x0000000000000000        0x6 obj/SKYROVER/core_cm3.o
 .text.__set_BASEPRI
                0x0000000000000000        0x6 obj/SKYROVER/core_cm3.o
 .text.__get_PRIMASK
                0x0000000000000000        0x6 obj/SKYROVER/core_cm3.o
 .text.__set_PRIMASK
                0x0000000000000000        0x6 obj/SKYROVER/core_cm3.o
 .text.__get_FAULTMASK
                0x0000000000000000        0x6 obj/SKYROVER/core_cm3.o
 .text.__set_FAULTMASK
                0x0000000000000000        0x6 obj/SKYROVER/core_cm3.o
 .text.__get_CONTROL
                0x0000000000000000        0x6 obj/SKYROVER/core_cm3.o
 .text.__set_CONTROL
                0x0000000000000000        0x6 obj/SKYROVER/core_cm3.o
 .text.__REV    0x0000000000000000        0x4 obj/SKYROVER/core_cm3.o
 .text.__REV16  0x0000000000000000        0x4 obj/SKYROVER/core_cm3.o
 .text.__REVSH  0x0000000000000000        0x4 obj/SKYROVER/core_cm3.o
 .text.__RBIT   0x0000000000000000        0x6 obj/SKYROVER/core_cm3.o
 .text.__LDREXB
                0x0000000000000000        0x8 obj/SKYROVER/core_cm3.o
 .text.__LDREXH
                0x0000000000000000        0x8 obj/SKYROVER/core_cm3.o
 .text.__LDREXW
                0x0000000000000000        0x6 obj/SKYROVER/core_cm3.o
 .text.__STREXB
                0x0000000000000000        0x8 obj/SKYROVER/core_cm3.o
 .text.__STREXH
                0x0000000000000000        0x8 obj/SKYROVER/core_cm3.o
 .text.__STREXW
                0x0000000000000000        0x6 obj/SKYROVER/core_cm3.o
 .comment       0x0000000000000000       0x71 obj/SKYROVER/core_cm3.o
 .ARM.attributes
                0x0000000000000000       0x33 obj/SKYROVER/core_cm3.o
 .text          0x0000000000000000        0x0 obj/SKYROVER/system_stm32f10x.o
 .data          0x0000000000000000        0x0 obj/SKYROVER/system_stm32f10x.o
 .bss           0x0000000000000000        0x0 obj/SKYROVER/system_stm32f10x.o
 .text          0x0000000000000000        0x0 obj/SKYROVER/misc.o
 .data          0x0000000000000000        0x0 obj/SKYROVER/misc.o
 .bss           0x0000000000000000        0x0 obj/SKYROVER/misc.o
 .text.NVIC_SetVectorTable
                0x0000000000000000       0x14 obj/SKYROVER/misc.o
 .text.NVIC_SystemLPConfig
                0x0000000000000000       0x18 obj/SKYROVER/misc.o
 .text.SysTick_CLKSourceConfig
                0x0000000000000000       0x18 obj/SKYROVER/misc.o
 .text          0x0000000000000000        0x0 obj/SKYROVER/stm32f10x_adc.o
 .data          0x0000000000000000        0x0 obj/SKYROVER/stm32f10x_adc.o
 .bss           0x0000000000000000        0x0 obj/SKYROVER/stm32f10x_adc.o
 .text.ADC_DeInit
                0x0000000000000000       0x5c obj/SKYROVER/stm32f10x_adc.o
 .text.ADC_StructInit
                0x0000000000000000       0x12 obj/SKYROVER/stm32f10x_adc.o
 .text.ADC_ITConfig
                0x0000000000000000       0x12 obj/SKYROVER/stm32f10x_adc.o
 .text.ADC_GetSoftwareStartConvStatus
                0x0000000000000000        0x8 obj/SKYROVER/stm32f10x_adc.o
 .text.ADC_DiscModeChannelCountConfig
                0x0000000000000000       0x10 obj/SKYROVER/stm32f10x_adc.o
 .text.ADC_DiscModeCmd
                0x0000000000000000       0x12 obj/SKYROVER/stm32f10x_adc.o
 .text.ADC_ExternalTrigConvCmd
                0x0000000000000000       0x12 obj/SKYROVER/stm32f10x_adc.o
 .text.ADC_GetConversionValue
                0x0000000000000000        0x6 obj/SKYROVER/stm32f10x_adc.o
 .text.ADC_GetDualModeConversionValue
                0x0000000000000000        0xc obj/SKYROVER/stm32f10x_adc.o
 .text.ADC_AutoInjectedConvCmd
                0x0000000000000000       0x12 obj/SKYROVER/stm32f10x_adc.o
 .text.ADC_InjectedDiscModeCmd
                0x0000000000000000       0x12 obj/SKYROVER/stm32f10x_adc.o
 .text.ADC_ExternalTrigInjectedConvConfig
                0x0000000000000000        0xc obj/SKYROVER/stm32f10x_adc.o
 .text.ADC_ExternalTrigInjectedConvCmd
                0x0000000000000000       0x12 obj/SKYROVER/stm32f10x_adc.o
 .text.ADC_SoftwareStartInjectedConvCmd
                0x0000000000000000       0x12 obj/SKYROVER/stm32f10x_adc.o
 .text.ADC_GetSoftwareStartInjectedConvCmdStatus
                0x0000000000000000        0x8 obj/SKYROVER/stm32f10x_adc.o
 .text.ADC_InjectedChannelConfig
                0x0000000000000000       0x60 obj/SKYROVER/stm32f10x_adc.o
 .text.ADC_InjectedSequencerLengthConfig
                0x0000000000000000       0x10 obj/SKYROVER/stm32f10x_adc.o
 .text.ADC_SetInjectedOffset
                0x0000000000000000       0x16 obj/SKYROVER/stm32f10x_adc.o
 .text.ADC_GetInjectedConversionValue
                0x0000000000000000       0x1a obj/SKYROVER/stm32f10x_adc.o
 .text.ADC_AnalogWatchdogCmd
                0x0000000000000000       0x10 obj/SKYROVER/stm32f10x_adc.o
 .text.ADC_AnalogWatchdogThresholdsConfig
                0x0000000000000000        0x6 obj/SKYROVER/stm32f10x_adc.o
 .text.ADC_AnalogWatchdogSingleChannelConfig
                0x0000000000000000        0xc obj/SKYROVER/stm32f10x_adc.o
 .text.ADC_TempSensorVrefintCmd
                0x0000000000000000       0x18 obj/SKYROVER/stm32f10x_adc.o
 .text.ADC_GetFlagStatus
                0x0000000000000000        0xc obj/SKYROVER/stm32f10x_adc.o
 .text.ADC_ClearFlag
                0x0000000000000000        0x6 obj/SKYROVER/stm32f10x_adc.o
 .text.ADC_GetITStatus
                0x0000000000000000       0x16 obj/SKYROVER/stm32f10x_adc.o
 .text.ADC_ClearITPendingBit
                0x0000000000000000        0x8 obj/SKYROVER/stm32f10x_adc.o
 .text          0x0000000000000000        0x0 obj/SKYROVER/stm32f10x_bkp.o
 .data          0x0000000000000000        0x0 obj/SKYROVER/stm32f10x_bkp.o
 .bss           0x0000000000000000        0x0 obj/SKYROVER/stm32f10x_bkp.o
 .text.BKP_DeInit
                0x0000000000000000       0x12 obj/SKYROVER/stm32f10x_bkp.o
 .text.BKP_TamperPinLevelConfig
                0x0000000000000000        0xc obj/SKYROVER/stm32f10x_bkp.o
 .text.BKP_TamperPinCmd
                0x0000000000000000        0xc obj/SKYROVER/stm32f10x_bkp.o
 .text.BKP_ITConfig
                0x0000000000000000        0xc obj/SKYROVER/stm32f10x_bkp.o
 .text.BKP_RTCOutputConfig
                0x0000000000000000       0x18 obj/SKYROVER/stm32f10x_bkp.o
 .text.BKP_SetRTCCalibrationValue
                0x0000000000000000       0x18 obj/SKYROVER/stm32f10x_bkp.o
 .text.BKP_WriteBackupRegister
                0x0000000000000000       0x1c obj/SKYROVER/stm32f10x_bkp.o
 .text.BKP_ReadBackupRegister
                0x0000000000000000       0x20 obj/SKYROVER/stm32f10x_bkp.o
 .text.BKP_GetFlagStatus
                0x0000000000000000        0xc obj/SKYROVER/stm32f10x_bkp.o
 .text.BKP_ClearFlag
                0x0000000000000000       0x14 obj/SKYROVER/stm32f10x_bkp.o
 .text.BKP_GetITStatus
                0x0000000000000000        0xc obj/SKYROVER/stm32f10x_bkp.o
 .text.BKP_ClearITPendingBit
                0x0000000000000000       0x14 obj/SKYROVER/stm32f10x_bkp.o
 .comment       0x0000000000000000       0x71 obj/SKYROVER/stm32f10x_bkp.o
 .ARM.attributes
                0x0000000000000000       0x33 obj/SKYROVER/stm32f10x_bkp.o
 .text          0x0000000000000000        0x0 obj/SKYROVER/stm32f10x_can.o
 .data          0x0000000000000000        0x0 obj/SKYROVER/stm32f10x_can.o
 .bss           0x0000000000000000        0x0 obj/SKYROVER/stm32f10x_can.o
 .text.CAN_DeInit
                0x0000000000000000       0x34 obj/SKYROVER/stm32f10x_can.o
 .text.CAN_Init
                0x0000000000000000       0xd6 obj/SKYROVER/stm32f10x_can.o
 .text.CAN_FilterInit
                0x0000000000000000       0xec obj/SKYROVER/stm32f10x_can.o
 .text.CAN_StructInit
                0x0000000000000000       0x20 obj/SKYROVER/stm32f10x_can.o
 .text.CAN_SlaveStartBank
                0x0000000000000000       0x3c obj/SKYROVER/stm32f10x_can.o
 .text.CAN_DBGFreeze
                0x0000000000000000       0x12 obj/SKYROVER/stm32f10x_can.o
 .text.CAN_TTComModeCmd
                0x0000000000000000       0x58 obj/SKYROVER/stm32f10x_can.o
 .text.CAN_Transmit
                0x0000000000000000       0xb4 obj/SKYROVER/stm32f10x_can.o
 .text.CAN_TransmitStatus
                0x0000000000000000       0x4c obj/SKYROVER/stm32f10x_can.o
 .text.CAN_CancelTransmit
                0x0000000000000000       0x24 obj/SKYROVER/stm32f10x_can.o
 .text.CAN_Receive
                0x0000000000000000       0x8c obj/SKYROVER/stm32f10x_can.o
 .text.CAN_FIFORelease
                0x0000000000000000       0x16 obj/SKYROVER/stm32f10x_can.o
 .text.CAN_MessagePending
                0x0000000000000000       0x16 obj/SKYROVER/stm32f10x_can.o
 .text.CAN_OperatingModeRequest
                0x0000000000000000       0x88 obj/SKYROVER/stm32f10x_can.o
 .text.CAN_Sleep
                0x0000000000000000       0x1c obj/SKYROVER/stm32f10x_can.o
 .text.CAN_WakeUp
                0x0000000000000000       0x22 obj/SKYROVER/stm32f10x_can.o
 .text.CAN_GetLastErrorCode
                0x0000000000000000        0x8 obj/SKYROVER/stm32f10x_can.o
 .text.CAN_GetReceiveErrorCounter
                0x0000000000000000        0x6 obj/SKYROVER/stm32f10x_can.o
 .text.CAN_GetLSBTransmitErrorCounter
                0x0000000000000000        0x8 obj/SKYROVER/stm32f10x_can.o
 .text.CAN_ITConfig
                0x0000000000000000       0x10 obj/SKYROVER/stm32f10x_can.o
 .text.CAN_GetFlagStatus
                0x0000000000000000       0x34 obj/SKYROVER/stm32f10x_can.o
 .text.CAN_ClearFlag
                0x0000000000000000       0x34 obj/SKYROVER/stm32f10x_can.o
 .text.CAN_GetITStatus
                0x0000000000000000       0xca obj/SKYROVER/stm32f10x_can.o
 .text.CAN_ClearITPendingBit
                0x0000000000000000       0x78 obj/SKYROVER/stm32f10x_can.o
 .comment       0x0000000000000000       0x71 obj/SKYROVER/stm32f10x_can.o
 .ARM.attributes
                0x0000000000000000       0x33 obj/SKYROVER/stm32f10x_can.o
 .text          0x0000000000000000        0x0 obj/SKYROVER/stm32f10x_cec.o
 .data          0x0000000000000000        0x0 obj/SKYROVER/stm32f10x_cec.o
 .bss           0x0000000000000000        0x0 obj/SKYROVER/stm32f10x_cec.o
 .text.CEC_DeInit
                0x0000000000000000       0x1a obj/SKYROVER/stm32f10x_cec.o
 .text.CEC_Init
                0x0000000000000000       0x20 obj/SKYROVER/stm32f10x_cec.o
 .text.CEC_Cmd  0x0000000000000000       0x18 obj/SKYROVER/stm32f10x_cec.o
 .text.CEC_ITConfig
                0x0000000000000000        0xc obj/SKYROVER/stm32f10x_cec.o
 .text.CEC_OwnAddressConfig
                0x0000000000000000        0xc obj/SKYROVER/stm32f10x_cec.o
 .text.CEC_SetPrescaler
                0x0000000000000000        0xc obj/SKYROVER/stm32f10x_cec.o
 .text.CEC_SendDataByte
                0x0000000000000000        0xc obj/SKYROVER/stm32f10x_cec.o
 .text.CEC_ReceiveDataByte
                0x0000000000000000        0xc obj/SKYROVER/stm32f10x_cec.o
 .text.CEC_StartOfMessage
                0x0000000000000000        0xc obj/SKYROVER/stm32f10x_cec.o
 .text.CEC_EndOfMessageCmd
                0x0000000000000000        0xc obj/SKYROVER/stm32f10x_cec.o
 .text.CEC_GetFlagStatus
                0x0000000000000000       0x24 obj/SKYROVER/stm32f10x_cec.o
 .text.CEC_ClearFlag
                0x0000000000000000       0x1c obj/SKYROVER/stm32f10x_cec.o
 .text.CEC_GetITStatus
                0x0000000000000000       0x14 obj/SKYROVER/stm32f10x_cec.o
 .text.CEC_ClearITPendingBit
                0x0000000000000000       0x1c obj/SKYROVER/stm32f10x_cec.o
 .comment       0x0000000000000000       0x71 obj/SKYROVER/stm32f10x_cec.o
 .ARM.attributes
                0x0000000000000000       0x33 obj/SKYROVER/stm32f10x_cec.o
 .text          0x0000000000000000        0x0 obj/SKYROVER/stm32f10x_crc.o
 .data          0x0000000000000000        0x0 obj/SKYROVER/stm32f10x_crc.o
 .bss           0x0000000000000000        0x0 obj/SKYROVER/stm32f10x_crc.o
 .text.CRC_ResetDR
                0x0000000000000000        0xc obj/SKYROVER/stm32f10x_crc.o
 .text.CRC_CalcCRC
                0x0000000000000000        0xc obj/SKYROVER/stm32f10x_crc.o
 .text.CRC_CalcBlockCRC
                0x0000000000000000       0x1c obj/SKYROVER/stm32f10x_crc.o
 .text.CRC_GetCRC
                0x0000000000000000        0xc obj/SKYROVER/stm32f10x_crc.o
 .text.CRC_SetIDRegister
                0x0000000000000000        0xc obj/SKYROVER/stm32f10x_crc.o
 .text.CRC_GetIDRegister
                0x0000000000000000        0xc obj/SKYROVER/stm32f10x_crc.o
 .comment       0x0000000000000000       0x71 obj/SKYROVER/stm32f10x_crc.o
 .ARM.attributes
                0x0000000000000000       0x33 obj/SKYROVER/stm32f10x_crc.o
 .text          0x0000000000000000        0x0 obj/SKYROVER/stm32f10x_dac.o
 .data          0x0000000000000000        0x0 obj/SKYROVER/stm32f10x_dac.o
 .bss           0x0000000000000000        0x0 obj/SKYROVER/stm32f10x_dac.o
 .text.DAC_DeInit
                0x0000000000000000       0x1a obj/SKYROVER/stm32f10x_dac.o
 .text.DAC_Init
                0x0000000000000000       0x30 obj/SKYROVER/stm32f10x_dac.o
 .text.DAC_StructInit
                0x0000000000000000        0xc obj/SKYROVER/stm32f10x_dac.o
 .text.DAC_Cmd  0x0000000000000000       0x24 obj/SKYROVER/stm32f10x_dac.o
 .text.DAC_DMACmd
                0x0000000000000000       0x24 obj/SKYROVER/stm32f10x_dac.o
 .text.DAC_SoftwareTriggerCmd
                0x0000000000000000       0x24 obj/SKYROVER/stm32f10x_dac.o
 .text.DAC_DualSoftwareTriggerCmd
                0x0000000000000000       0x18 obj/SKYROVER/stm32f10x_dac.o
 .text.DAC_WaveGenerationCmd
                0x0000000000000000       0x1c obj/SKYROVER/stm32f10x_dac.o
 .text.DAC_SetChannel1Data
                0x0000000000000000       0x20 obj/SKYROVER/stm32f10x_dac.o
 .text.DAC_SetChannel2Data
                0x0000000000000000       0x20 obj/SKYROVER/stm32f10x_dac.o
 .text.DAC_SetDualChannelData
                0x0000000000000000       0x18 obj/SKYROVER/stm32f10x_dac.o
 .text.DAC_GetDataOutputValue
                0x0000000000000000       0x24 obj/SKYROVER/stm32f10x_dac.o
 .comment       0x0000000000000000       0x71 obj/SKYROVER/stm32f10x_dac.o
 .ARM.attributes
                0x0000000000000000       0x33 obj/SKYROVER/stm32f10x_dac.o
 .text          0x0000000000000000        0x0 obj/SKYROVER/stm32f10x_dbgmcu.o
 .data          0x0000000000000000        0x0 obj/SKYROVER/stm32f10x_dbgmcu.o
 .bss           0x0000000000000000        0x0 obj/SKYROVER/stm32f10x_dbgmcu.o
 .text.DBGMCU_GetREVID
                0x0000000000000000        0xc obj/SKYROVER/stm32f10x_dbgmcu.o
 .text.DBGMCU_GetDEVID
                0x0000000000000000       0x10 obj/SKYROVER/stm32f10x_dbgmcu.o
 .text.DBGMCU_Config
                0x0000000000000000       0x18 obj/SKYROVER/stm32f10x_dbgmcu.o
 .comment       0x0000000000000000       0x71 obj/SKYROVER/stm32f10x_dbgmcu.o
 .ARM.attributes
                0x0000000000000000       0x33 obj/SKYROVER/stm32f10x_dbgmcu.o
 .text          0x0000000000000000        0x0 obj/SKYROVER/stm32f10x_dma.o
 .data          0x0000000000000000        0x0 obj/SKYROVER/stm32f10x_dma.o
 .bss           0x0000000000000000        0x0 obj/SKYROVER/stm32f10x_dma.o
 .text.DMA_GetFlagStatus
                0x0000000000000000       0x1c obj/SKYROVER/stm32f10x_dma.o
 .text.DMA_ClearFlag
                0x0000000000000000       0x14 obj/SKYROVER/stm32f10x_dma.o
 .text.DMA_GetITStatus
                0x0000000000000000       0x1c obj/SKYROVER/stm32f10x_dma.o
 .text          0x0000000000000000        0x0 obj/SKYROVER/stm32f10x_exti.o
 .data          0x0000000000000000        0x0 obj/SKYROVER/stm32f10x_exti.o
 .bss           0x0000000000000000        0x0 obj/SKYROVER/stm32f10x_exti.o
 .text.EXTI_DeInit
                0x0000000000000000       0x1c obj/SKYROVER/stm32f10x_exti.o
 .text.EXTI_StructInit
                0x0000000000000000        0xe obj/SKYROVER/stm32f10x_exti.o
 .text.EXTI_GenerateSWInterrupt
                0x0000000000000000       0x10 obj/SKYROVER/stm32f10x_exti.o
 .text.EXTI_GetFlagStatus
                0x0000000000000000       0x14 obj/SKYROVER/stm32f10x_exti.o
 .text.EXTI_ClearFlag
                0x0000000000000000        0xc obj/SKYROVER/stm32f10x_exti.o
 .text          0x0000000000000000        0x0 obj/SKYROVER/stm32f10x_flash.o
 .data          0x0000000000000000        0x0 obj/SKYROVER/stm32f10x_flash.o
 .bss           0x0000000000000000        0x0 obj/SKYROVER/stm32f10x_flash.o
 .text.FLASH_SetLatency
                0x0000000000000000       0x14 obj/SKYROVER/stm32f10x_flash.o
 .text.FLASH_HalfCycleAccessCmd
                0x0000000000000000       0x18 obj/SKYROVER/stm32f10x_flash.o
 .text.FLASH_PrefetchBufferCmd
                0x0000000000000000       0x18 obj/SKYROVER/stm32f10x_flash.o
 .text.FLASH_UnlockBank1
                0x0000000000000000       0x18 obj/SKYROVER/stm32f10x_flash.o
 .text.FLASH_LockBank1
                0x0000000000000000       0x10 obj/SKYROVER/stm32f10x_flash.o
 .text.FLASH_GetUserOptionByte
                0x0000000000000000        0xc obj/SKYROVER/stm32f10x_flash.o
 .text.FLASH_GetWriteProtectionOptionByte
                0x0000000000000000        0xc obj/SKYROVER/stm32f10x_flash.o
 .text.FLASH_GetReadOutProtectionStatus
                0x0000000000000000       0x10 obj/SKYROVER/stm32f10x_flash.o
 .text.FLASH_GetPrefetchBufferStatus
                0x0000000000000000       0x10 obj/SKYROVER/stm32f10x_flash.o
 .text.FLASH_ITConfig
                0x0000000000000000       0x18 obj/SKYROVER/stm32f10x_flash.o
 .text.FLASH_GetFlagStatus
                0x0000000000000000       0x20 obj/SKYROVER/stm32f10x_flash.o
 .text.FLASH_GetStatus
                0x0000000000000000       0x28 obj/SKYROVER/stm32f10x_flash.o
 .text.FLASH_UserOptionByteConfig
                0x0000000000000000       0x58 obj/SKYROVER/stm32f10x_flash.o
 .text.FLASH_ReadOutProtection
                0x0000000000000000       0x90 obj/SKYROVER/stm32f10x_flash.o
 .text.FLASH_EnableWriteProtection
                0x0000000000000000       0xa4 obj/SKYROVER/stm32f10x_flash.o
 .text.FLASH_ProgramOptionByteData
                0x0000000000000000       0x48 obj/SKYROVER/stm32f10x_flash.o
 .text.FLASH_ProgramHalfWord
                0x0000000000000000       0x38 obj/SKYROVER/stm32f10x_flash.o
 .text.FLASH_EraseOptionBytes
                0x0000000000000000       0x80 obj/SKYROVER/stm32f10x_flash.o
 .text.FLASH_EraseAllPages
                0x0000000000000000       0x38 obj/SKYROVER/stm32f10x_flash.o
 .text.FLASH_WaitForLastBank1Operation
                0x0000000000000000       0x22 obj/SKYROVER/stm32f10x_flash.o
 .text.FLASH_EraseAllBank1Pages
                0x0000000000000000       0x38 obj/SKYROVER/stm32f10x_flash.o
 .text          0x0000000000000000        0x0 obj/SKYROVER/stm32f10x_fsmc.o
 .data          0x0000000000000000        0x0 obj/SKYROVER/stm32f10x_fsmc.o
 .bss           0x0000000000000000        0x0 obj/SKYROVER/stm32f10x_fsmc.o
 .text.FSMC_NORSRAMDeInit
                0x0000000000000000       0x2e obj/SKYROVER/stm32f10x_fsmc.o
 .text.FSMC_NANDDeInit
                0x0000000000000000       0x28 obj/SKYROVER/stm32f10x_fsmc.o
 .text.FSMC_PCCARDDeInit
                0x0000000000000000       0x1c obj/SKYROVER/stm32f10x_fsmc.o
 .text.FSMC_NORSRAMInit
                0x0000000000000000       0xb8 obj/SKYROVER/stm32f10x_fsmc.o
 .text.FSMC_NANDInit
                0x0000000000000000       0x6c obj/SKYROVER/stm32f10x_fsmc.o
 .text.FSMC_PCCARDInit
                0x0000000000000000       0x68 obj/SKYROVER/stm32f10x_fsmc.o
 .text.FSMC_NORSRAMStructInit
                0x0000000000000000       0x4e obj/SKYROVER/stm32f10x_fsmc.o
 .text.FSMC_NANDStructInit
                0x0000000000000000       0x2a obj/SKYROVER/stm32f10x_fsmc.o
 .text.FSMC_PCCARDStructInit
                0x0000000000000000       0x2a obj/SKYROVER/stm32f10x_fsmc.o
 .text.FSMC_NORSRAMCmd
                0x0000000000000000       0x24 obj/SKYROVER/stm32f10x_fsmc.o
 .text.FSMC_NANDCmd
                0x0000000000000000       0x34 obj/SKYROVER/stm32f10x_fsmc.o
 .text.FSMC_PCCARDCmd
                0x0000000000000000       0x20 obj/SKYROVER/stm32f10x_fsmc.o
 .text.FSMC_NANDECCCmd
                0x0000000000000000       0x34 obj/SKYROVER/stm32f10x_fsmc.o
 .text.FSMC_GetECC
                0x0000000000000000       0x14 obj/SKYROVER/stm32f10x_fsmc.o
 .text.FSMC_ITConfig
                0x0000000000000000       0x4c obj/SKYROVER/stm32f10x_fsmc.o
 .text.FSMC_GetFlagStatus
                0x0000000000000000       0x2c obj/SKYROVER/stm32f10x_fsmc.o
 .text.FSMC_ClearFlag
                0x0000000000000000       0x30 obj/SKYROVER/stm32f10x_fsmc.o
 .text.FSMC_GetITStatus
                0x0000000000000000       0x34 obj/SKYROVER/stm32f10x_fsmc.o
 .text.FSMC_ClearITPendingBit
                0x0000000000000000       0x34 obj/SKYROVER/stm32f10x_fsmc.o
 .comment       0x0000000000000000       0x71 obj/SKYROVER/stm32f10x_fsmc.o
 .ARM.attributes
                0x0000000000000000       0x33 obj/SKYROVER/stm32f10x_fsmc.o
 .text          0x0000000000000000        0x0 obj/SKYROVER/stm32f10x_gpio.o
 .data          0x0000000000000000        0x0 obj/SKYROVER/stm32f10x_gpio.o
 .bss           0x0000000000000000        0x0 obj/SKYROVER/stm32f10x_gpio.o
 .text.GPIO_DeInit
                0x0000000000000000       0xac obj/SKYROVER/stm32f10x_gpio.o
 .text.GPIO_AFIODeInit
                0x0000000000000000       0x16 obj/SKYROVER/stm32f10x_gpio.o
 .text.GPIO_Init
                0x0000000000000000       0xa0 obj/SKYROVER/stm32f10x_gpio.o
 .text.GPIO_StructInit
                0x0000000000000000       0x10 obj/SKYROVER/stm32f10x_gpio.o
 .text.GPIO_ReadInputDataBit
                0x0000000000000000        0xc obj/SKYROVER/stm32f10x_gpio.o
 .text.GPIO_ReadInputData
                0x0000000000000000        0x6 obj/SKYROVER/stm32f10x_gpio.o
 .text.GPIO_ReadOutputDataBit
                0x0000000000000000        0xc obj/SKYROVER/stm32f10x_gpio.o
 .text.GPIO_ReadOutputData
                0x0000000000000000        0x6 obj/SKYROVER/stm32f10x_gpio.o
 .text.GPIO_SetBits
                0x0000000000000000        0x4 obj/SKYROVER/stm32f10x_gpio.o
 .text.GPIO_ResetBits
                0x0000000000000000        0x4 obj/SKYROVER/stm32f10x_gpio.o
 .text.GPIO_WriteBit
                0x0000000000000000        0xa obj/SKYROVER/stm32f10x_gpio.o
 .text.GPIO_Write
                0x0000000000000000        0x4 obj/SKYROVER/stm32f10x_gpio.o
 .text.GPIO_PinLockConfig
                0x0000000000000000       0x10 obj/SKYROVER/stm32f10x_gpio.o
 .text.GPIO_EventOutputConfig
                0x0000000000000000       0x1c obj/SKYROVER/stm32f10x_gpio.o
 .text.GPIO_EventOutputCmd
                0x0000000000000000        0xc obj/SKYROVER/stm32f10x_gpio.o
 .text.GPIO_PinRemapConfig
                0x0000000000000000       0x64 obj/SKYROVER/stm32f10x_gpio.o
 .text.GPIO_EXTILineConfig
                0x0000000000000000       0x34 obj/SKYROVER/stm32f10x_gpio.o
 .text.GPIO_ETH_MediaInterfaceConfig
                0x0000000000000000        0xc obj/SKYROVER/stm32f10x_gpio.o
 .comment       0x0000000000000000       0x71 obj/SKYROVER/stm32f10x_gpio.o
 .ARM.attributes
                0x0000000000000000       0x33 obj/SKYROVER/stm32f10x_gpio.o
 .text          0x0000000000000000        0x0 obj/SKYROVER/stm32f10x_i2c.o
 .data          0x0000000000000000        0x0 obj/SKYROVER/stm32f10x_i2c.o
 .bss           0x0000000000000000        0x0 obj/SKYROVER/stm32f10x_i2c.o
 .text.I2C_DMACmd
                0x0000000000000000       0x18 obj/SKYROVER/stm32f10x_i2c.o
 .text.I2C_DMALastTransferCmd
                0x0000000000000000       0x18 obj/SKYROVER/stm32f10x_i2c.o
 .text.I2C_OwnAddress2Config
                0x0000000000000000       0x14 obj/SKYROVER/stm32f10x_i2c.o
 .text.I2C_DualAddressCmd
                0x0000000000000000       0x18 obj/SKYROVER/stm32f10x_i2c.o
 .text.I2C_GeneralCallCmd
                0x0000000000000000       0x18 obj/SKYROVER/stm32f10x_i2c.o
 .text.I2C_ReadRegister
                0x0000000000000000       0x18 obj/SKYROVER/stm32f10x_i2c.o
 .text.I2C_SoftwareResetCmd
                0x0000000000000000       0x18 obj/SKYROVER/stm32f10x_i2c.o
 .text.I2C_NACKPositionConfig
                0x0000000000000000       0x1c obj/SKYROVER/stm32f10x_i2c.o
 .text.I2C_SMBusAlertConfig
                0x0000000000000000       0x1c obj/SKYROVER/stm32f10x_i2c.o
 .text.I2C_TransmitPEC
                0x0000000000000000       0x18 obj/SKYROVER/stm32f10x_i2c.o
 .text.I2C_PECPositionConfig
                0x0000000000000000       0x1c obj/SKYROVER/stm32f10x_i2c.o
 .text.I2C_CalculatePEC
                0x0000000000000000       0x18 obj/SKYROVER/stm32f10x_i2c.o
 .text.I2C_GetPEC
                0x0000000000000000        0x8 obj/SKYROVER/stm32f10x_i2c.o
 .text.I2C_ARPCmd
                0x0000000000000000       0x18 obj/SKYROVER/stm32f10x_i2c.o
 .text.I2C_StretchClockCmd
                0x0000000000000000       0x18 obj/SKYROVER/stm32f10x_i2c.o
 .text.I2C_FastModeDutyCycleConfig
                0x0000000000000000       0x1c obj/SKYROVER/stm32f10x_i2c.o
 .text.I2C_CheckEvent
                0x0000000000000000       0x18 obj/SKYROVER/stm32f10x_i2c.o
 .text.I2C_GetLastEvent
                0x0000000000000000       0x10 obj/SKYROVER/stm32f10x_i2c.o
 .text.I2C_GetFlagStatus
                0x0000000000000000       0x34 obj/SKYROVER/stm32f10x_i2c.o
 .text.I2C_ClearFlag
                0x0000000000000000        0x8 obj/SKYROVER/stm32f10x_i2c.o
 .text.I2C_GetITStatus
                0x0000000000000000       0x1e obj/SKYROVER/stm32f10x_i2c.o
 .text.I2C_ClearITPendingBit
                0x0000000000000000        0x8 obj/SKYROVER/stm32f10x_i2c.o
 .text          0x0000000000000000        0x0 obj/SKYROVER/stm32f10x_iwdg.o
 .data          0x0000000000000000        0x0 obj/SKYROVER/stm32f10x_iwdg.o
 .bss           0x0000000000000000        0x0 obj/SKYROVER/stm32f10x_iwdg.o
 .text.IWDG_WriteAccessCmd
                0x0000000000000000        0xc obj/SKYROVER/stm32f10x_iwdg.o
 .text.IWDG_SetPrescaler
                0x0000000000000000        0xc obj/SKYROVER/stm32f10x_iwdg.o
 .text.IWDG_SetReload
                0x0000000000000000        0xc obj/SKYROVER/stm32f10x_iwdg.o
 .text.IWDG_ReloadCounter
                0x0000000000000000       0x10 obj/SKYROVER/stm32f10x_iwdg.o
 .text.IWDG_Enable
                0x0000000000000000       0x10 obj/SKYROVER/stm32f10x_iwdg.o
 .text.IWDG_GetFlagStatus
                0x0000000000000000       0x14 obj/SKYROVER/stm32f10x_iwdg.o
 .comment       0x0000000000000000       0x71 obj/SKYROVER/stm32f10x_iwdg.o
 .ARM.attributes
                0x0000000000000000       0x33 obj/SKYROVER/stm32f10x_iwdg.o
 .text          0x0000000000000000        0x0 obj/SKYROVER/stm32f10x_pwr.o
 .data          0x0000000000000000        0x0 obj/SKYROVER/stm32f10x_pwr.o
 .bss           0x0000000000000000        0x0 obj/SKYROVER/stm32f10x_pwr.o
 .text.PWR_DeInit
                0x0000000000000000       0x1a obj/SKYROVER/stm32f10x_pwr.o
 .text.PWR_BackupAccessCmd
                0x0000000000000000        0xc obj/SKYROVER/stm32f10x_pwr.o
 .text.PWR_PVDCmd
                0x0000000000000000        0xc obj/SKYROVER/stm32f10x_pwr.o
 .text.PWR_PVDLevelConfig
                0x0000000000000000       0x14 obj/SKYROVER/stm32f10x_pwr.o
 .text.PWR_WakeUpPinCmd
                0x0000000000000000        0xc obj/SKYROVER/stm32f10x_pwr.o
 .text.PWR_EnterSTOPMode
                0x0000000000000000       0x34 obj/SKYROVER/stm32f10x_pwr.o
 .text.PWR_EnterSTANDBYMode
                0x0000000000000000       0x28 obj/SKYROVER/stm32f10x_pwr.o
 .text.PWR_GetFlagStatus
                0x0000000000000000       0x14 obj/SKYROVER/stm32f10x_pwr.o
 .text.PWR_ClearFlag
                0x0000000000000000       0x10 obj/SKYROVER/stm32f10x_pwr.o
 .comment       0x0000000000000000       0x71 obj/SKYROVER/stm32f10x_pwr.o
 .ARM.attributes
                0x0000000000000000       0x33 obj/SKYROVER/stm32f10x_pwr.o
 .text          0x0000000000000000        0x0 obj/SKYROVER/stm32f10x_rcc.o
 .data          0x0000000000000000        0x0 obj/SKYROVER/stm32f10x_rcc.o
 .bss           0x0000000000000000        0x0 obj/SKYROVER/stm32f10x_rcc.o
 .text.RCC_DeInit
                0x0000000000000000       0x40 obj/SKYROVER/stm32f10x_rcc.o
 .text.RCC_HSEConfig
                0x0000000000000000       0x34 obj/SKYROVER/stm32f10x_rcc.o
 .text.RCC_AdjustHSICalibrationValue
                0x0000000000000000       0x14 obj/SKYROVER/stm32f10x_rcc.o
 .text.RCC_HSICmd
                0x0000000000000000        0xc obj/SKYROVER/stm32f10x_rcc.o
 .text.RCC_PLLConfig
                0x0000000000000000       0x14 obj/SKYROVER/stm32f10x_rcc.o
 .text.RCC_PLLCmd
                0x0000000000000000        0xc obj/SKYROVER/stm32f10x_rcc.o
 .text.RCC_SYSCLKConfig
                0x0000000000000000       0x14 obj/SKYROVER/stm32f10x_rcc.o
 .text.RCC_GetSYSCLKSource
                0x0000000000000000       0x10 obj/SKYROVER/stm32f10x_rcc.o
 .text.RCC_HCLKConfig
                0x0000000000000000       0x14 obj/SKYROVER/stm32f10x_rcc.o
 .text.RCC_PCLK1Config
                0x0000000000000000       0x14 obj/SKYROVER/stm32f10x_rcc.o
 .text.RCC_PCLK2Config
                0x0000000000000000       0x14 obj/SKYROVER/stm32f10x_rcc.o
 .text.RCC_ITConfig
                0x0000000000000000       0x18 obj/SKYROVER/stm32f10x_rcc.o
 .text.RCC_USBCLKConfig
                0x0000000000000000        0xc obj/SKYROVER/stm32f10x_rcc.o
 .text.RCC_ADCCLKConfig
                0x0000000000000000       0x14 obj/SKYROVER/stm32f10x_rcc.o
 .text.RCC_LSEConfig
                0x0000000000000000       0x20 obj/SKYROVER/stm32f10x_rcc.o
 .text.RCC_LSICmd
                0x0000000000000000        0xc obj/SKYROVER/stm32f10x_rcc.o
 .text.RCC_RTCCLKConfig
                0x0000000000000000       0x10 obj/SKYROVER/stm32f10x_rcc.o
 .text.RCC_RTCCLKCmd
                0x0000000000000000        0xc obj/SKYROVER/stm32f10x_rcc.o
 .text.RCC_BackupResetCmd
                0x0000000000000000        0xc obj/SKYROVER/stm32f10x_rcc.o
 .text.RCC_ClockSecuritySystemCmd
                0x0000000000000000        0xc obj/SKYROVER/stm32f10x_rcc.o
 .text.RCC_MCOConfig
                0x0000000000000000        0xc obj/SKYROVER/stm32f10x_rcc.o
 .text.RCC_GetFlagStatus
                0x0000000000000000       0x28 obj/SKYROVER/stm32f10x_rcc.o
 .text.RCC_WaitForHSEStartUp
                0x0000000000000000       0x2c obj/SKYROVER/stm32f10x_rcc.o
 .text.RCC_GetITStatus
                0x0000000000000000       0x14 obj/SKYROVER/stm32f10x_rcc.o
 .text.RCC_ClearITPendingBit
                0x0000000000000000        0xc obj/SKYROVER/stm32f10x_rcc.o
 .text          0x0000000000000000        0x0 obj/SKYROVER/stm32f10x_rtc.o
 .data          0x0000000000000000        0x0 obj/SKYROVER/stm32f10x_rtc.o
 .bss           0x0000000000000000        0x0 obj/SKYROVER/stm32f10x_rtc.o
 .text.RTC_ITConfig
                0x0000000000000000       0x18 obj/SKYROVER/stm32f10x_rtc.o
 .text.RTC_EnterConfigMode
                0x0000000000000000       0x14 obj/SKYROVER/stm32f10x_rtc.o
 .text.RTC_ExitConfigMode
                0x0000000000000000       0x14 obj/SKYROVER/stm32f10x_rtc.o
 .text.RTC_GetCounter
                0x0000000000000000       0x14 obj/SKYROVER/stm32f10x_rtc.o
 .text.RTC_SetCounter
                0x0000000000000000       0x20 obj/SKYROVER/stm32f10x_rtc.o
 .text.RTC_SetPrescaler
                0x0000000000000000       0x20 obj/SKYROVER/stm32f10x_rtc.o
 .text.RTC_SetAlarm
                0x0000000000000000       0x20 obj/SKYROVER/stm32f10x_rtc.o
 .text.RTC_GetDivider
                0x0000000000000000       0x18 obj/SKYROVER/stm32f10x_rtc.o
 .text.RTC_WaitForLastTask
                0x0000000000000000       0x14 obj/SKYROVER/stm32f10x_rtc.o
 .text.RTC_WaitForSynchro
                0x0000000000000000       0x24 obj/SKYROVER/stm32f10x_rtc.o
 .text.RTC_GetFlagStatus
                0x0000000000000000       0x14 obj/SKYROVER/stm32f10x_rtc.o
 .text.RTC_ClearFlag
                0x0000000000000000       0x14 obj/SKYROVER/stm32f10x_rtc.o
 .text.RTC_GetITStatus
                0x0000000000000000       0x24 obj/SKYROVER/stm32f10x_rtc.o
 .text.RTC_ClearITPendingBit
                0x0000000000000000       0x14 obj/SKYROVER/stm32f10x_rtc.o
 .comment       0x0000000000000000       0x71 obj/SKYROVER/stm32f10x_rtc.o
 .ARM.attributes
                0x0000000000000000       0x33 obj/SKYROVER/stm32f10x_rtc.o
 .text          0x0000000000000000        0x0 obj/SKYROVER/stm32f10x_sdio.o
 .data          0x0000000000000000        0x0 obj/SKYROVER/stm32f10x_sdio.o
 .bss           0x0000000000000000        0x0 obj/SKYROVER/stm32f10x_sdio.o
 .text.SDIO_DeInit
                0x0000000000000000       0x24 obj/SKYROVER/stm32f10x_sdio.o
 .text.SDIO_Init
                0x0000000000000000       0x30 obj/SKYROVER/stm32f10x_sdio.o
 .text.SDIO_StructInit
                0x0000000000000000       0x10 obj/SKYROVER/stm32f10x_sdio.o
 .text.SDIO_ClockCmd
                0x0000000000000000        0xc obj/SKYROVER/stm32f10x_sdio.o
 .text.SDIO_SetPowerState
                0x0000000000000000       0x18 obj/SKYROVER/stm32f10x_sdio.o
 .text.SDIO_GetPowerState
                0x0000000000000000       0x10 obj/SKYROVER/stm32f10x_sdio.o
 .text.SDIO_ITConfig
                0x0000000000000000       0x18 obj/SKYROVER/stm32f10x_sdio.o
 .text.SDIO_DMACmd
                0x0000000000000000        0xc obj/SKYROVER/stm32f10x_sdio.o
 .text.SDIO_SendCommand
                0x0000000000000000       0x2c obj/SKYROVER/stm32f10x_sdio.o
 .text.SDIO_CmdStructInit
                0x0000000000000000        0xe obj/SKYROVER/stm32f10x_sdio.o
 .text.SDIO_GetCommandResponse
                0x0000000000000000        0xc obj/SKYROVER/stm32f10x_sdio.o
 .text.SDIO_GetResponse
                0x0000000000000000       0x18 obj/SKYROVER/stm32f10x_sdio.o
 .text.SDIO_DataConfig
                0x0000000000000000       0x2c obj/SKYROVER/stm32f10x_sdio.o
 .text.SDIO_DataStructInit
                0x0000000000000000       0x14 obj/SKYROVER/stm32f10x_sdio.o
 .text.SDIO_GetDataCounter
                0x0000000000000000        0xc obj/SKYROVER/stm32f10x_sdio.o
 .text.SDIO_ReadData
                0x0000000000000000        0xc obj/SKYROVER/stm32f10x_sdio.o
 .text.SDIO_WriteData
                0x0000000000000000        0xc obj/SKYROVER/stm32f10x_sdio.o
 .text.SDIO_GetFIFOCount
                0x0000000000000000        0xc obj/SKYROVER/stm32f10x_sdio.o
 .text.SDIO_StartSDIOReadWait
                0x0000000000000000        0xc obj/SKYROVER/stm32f10x_sdio.o
 .text.SDIO_StopSDIOReadWait
                0x0000000000000000        0xc obj/SKYROVER/stm32f10x_sdio.o
 .text.SDIO_SetSDIOReadWaitMode
                0x0000000000000000        0xc obj/SKYROVER/stm32f10x_sdio.o
 .text.SDIO_SetSDIOOperation
                0x0000000000000000        0xc obj/SKYROVER/stm32f10x_sdio.o
 .text.SDIO_SendSDIOSuspendCmd
                0x0000000000000000        0xc obj/SKYROVER/stm32f10x_sdio.o
 .text.SDIO_CommandCompletionCmd
                0x0000000000000000        0xc obj/SKYROVER/stm32f10x_sdio.o
 .text.SDIO_CEATAITCmd
                0x0000000000000000       0x14 obj/SKYROVER/stm32f10x_sdio.o
 .text.SDIO_SendCEATACmd
                0x0000000000000000        0xc obj/SKYROVER/stm32f10x_sdio.o
 .text.SDIO_GetFlagStatus
                0x0000000000000000       0x14 obj/SKYROVER/stm32f10x_sdio.o
 .text.SDIO_ClearFlag
                0x0000000000000000        0xc obj/SKYROVER/stm32f10x_sdio.o
 .text.SDIO_GetITStatus
                0x0000000000000000       0x14 obj/SKYROVER/stm32f10x_sdio.o
 .text.SDIO_ClearITPendingBit
                0x0000000000000000        0xc obj/SKYROVER/stm32f10x_sdio.o
 .comment       0x0000000000000000       0x71 obj/SKYROVER/stm32f10x_sdio.o
 .ARM.attributes
                0x0000000000000000       0x33 obj/SKYROVER/stm32f10x_sdio.o
 .text          0x0000000000000000        0x0 obj/SKYROVER/stm32f10x_spi.o
 .data          0x0000000000000000        0x0 obj/SKYROVER/stm32f10x_spi.o
 .bss           0x0000000000000000        0x0 obj/SKYROVER/stm32f10x_spi.o
 .text.I2S_Init
                0x0000000000000000       0xa6 obj/SKYROVER/stm32f10x_spi.o
 .text.SPI_StructInit
                0x0000000000000000       0x18 obj/SKYROVER/stm32f10x_spi.o
 .text.I2S_StructInit
                0x0000000000000000       0x12 obj/SKYROVER/stm32f10x_spi.o
 .text.I2S_Cmd  0x0000000000000000       0x18 obj/SKYROVER/stm32f10x_spi.o
 .text.SPI_I2S_ITConfig
                0x0000000000000000       0x20 obj/SKYROVER/stm32f10x_spi.o
 .text.SPI_I2S_DMACmd
                0x0000000000000000       0x12 obj/SKYROVER/stm32f10x_spi.o
 .text.SPI_NSSInternalSoftwareConfig
                0x0000000000000000       0x1e obj/SKYROVER/stm32f10x_spi.o
 .text.SPI_SSOutputCmd
                0x0000000000000000       0x18 obj/SKYROVER/stm32f10x_spi.o
 .text.SPI_DataSizeConfig
                0x0000000000000000       0x16 obj/SKYROVER/stm32f10x_spi.o
 .text.SPI_TransmitCRC
                0x0000000000000000        0xc obj/SKYROVER/stm32f10x_spi.o
 .text.SPI_CalculateCRC
                0x0000000000000000       0x18 obj/SKYROVER/stm32f10x_spi.o
 .text.SPI_GetCRC
                0x0000000000000000        0xc obj/SKYROVER/stm32f10x_spi.o
 .text.SPI_GetCRCPolynomial
                0x0000000000000000        0x6 obj/SKYROVER/stm32f10x_spi.o
 .text.SPI_BiDirectionalLineConfig
                0x0000000000000000       0x1c obj/SKYROVER/stm32f10x_spi.o
 .text.SPI_I2S_ClearFlag
                0x0000000000000000        0x8 obj/SKYROVER/stm32f10x_spi.o
 .text.SPI_I2S_GetITStatus
                0x0000000000000000       0x28 obj/SKYROVER/stm32f10x_spi.o
 .text.SPI_I2S_ClearITPendingBit
                0x0000000000000000       0x12 obj/SKYROVER/stm32f10x_spi.o
 .text          0x0000000000000000        0x0 obj/SKYROVER/stm32f10x_tim.o
 .data          0x0000000000000000        0x0 obj/SKYROVER/stm32f10x_tim.o
 .bss           0x0000000000000000        0x0 obj/SKYROVER/stm32f10x_tim.o
 .text.TIM_DeInit
                0x0000000000000000      0x1ac obj/SKYROVER/stm32f10x_tim.o
 .text.TIM_BDTRConfig
                0x0000000000000000       0x22 obj/SKYROVER/stm32f10x_tim.o
 .text.TIM_BDTRStructInit
                0x0000000000000000       0x12 obj/SKYROVER/stm32f10x_tim.o
 .text.TIM_GenerateEvent
                0x0000000000000000        0x4 obj/SKYROVER/stm32f10x_tim.o
 .text.TIM_DMAConfig
                0x0000000000000000        0x8 obj/SKYROVER/stm32f10x_tim.o
 .text.TIM_DMACmd
                0x0000000000000000       0x12 obj/SKYROVER/stm32f10x_tim.o
 .text.TIM_InternalClockConfig
                0x0000000000000000        0xe obj/SKYROVER/stm32f10x_tim.o
 .text.TIM_ITRxExternalClockConfig
                0x0000000000000000       0x1a obj/SKYROVER/stm32f10x_tim.o
 .text.TIM_TIxExternalClockConfig
                0x0000000000000000       0x34 obj/SKYROVER/stm32f10x_tim.o
 .text.TIM_ETRConfig
                0x0000000000000000       0x14 obj/SKYROVER/stm32f10x_tim.o
 .text.TIM_ETRClockMode2Config
                0x0000000000000000       0x14 obj/SKYROVER/stm32f10x_tim.o
 .text.TIM_ETRClockMode1Config
                0x0000000000000000       0x1a obj/SKYROVER/stm32f10x_tim.o
 .text.TIM_PrescalerConfig
                0x0000000000000000        0x6 obj/SKYROVER/stm32f10x_tim.o
 .text.TIM_CounterModeConfig
                0x0000000000000000       0x10 obj/SKYROVER/stm32f10x_tim.o
 .text.TIM_SelectInputTrigger
                0x0000000000000000       0x10 obj/SKYROVER/stm32f10x_tim.o
 .text.TIM_EncoderInterfaceConfig
                0x0000000000000000       0x3c obj/SKYROVER/stm32f10x_tim.o
 .text.TIM_ForcedOC1Config
                0x0000000000000000       0x10 obj/SKYROVER/stm32f10x_tim.o
 .text.TIM_ForcedOC2Config
                0x0000000000000000       0x14 obj/SKYROVER/stm32f10x_tim.o
 .text.TIM_ForcedOC3Config
                0x0000000000000000       0x10 obj/SKYROVER/stm32f10x_tim.o
 .text.TIM_ForcedOC4Config
                0x0000000000000000       0x14 obj/SKYROVER/stm32f10x_tim.o
 .text.TIM_ARRPreloadConfig
                0x0000000000000000       0x18 obj/SKYROVER/stm32f10x_tim.o
 .text.TIM_SelectCOM
                0x0000000000000000       0x18 obj/SKYROVER/stm32f10x_tim.o
 .text.TIM_SelectCCDMA
                0x0000000000000000       0x18 obj/SKYROVER/stm32f10x_tim.o
 .text.TIM_CCPreloadControl
                0x0000000000000000       0x18 obj/SKYROVER/stm32f10x_tim.o
 .text.TIM_OC1FastConfig
                0x0000000000000000       0x10 obj/SKYROVER/stm32f10x_tim.o
 .text.TIM_OC2FastConfig
                0x0000000000000000       0x14 obj/SKYROVER/stm32f10x_tim.o
 .text.TIM_OC3FastConfig
                0x0000000000000000       0x10 obj/SKYROVER/stm32f10x_tim.o
 .text.TIM_OC4FastConfig
                0x0000000000000000       0x14 obj/SKYROVER/stm32f10x_tim.o
 .text.TIM_ClearOC1Ref
                0x0000000000000000       0x10 obj/SKYROVER/stm32f10x_tim.o
 .text.TIM_ClearOC2Ref
                0x0000000000000000       0x10 obj/SKYROVER/stm32f10x_tim.o
 .text.TIM_ClearOC3Ref
                0x0000000000000000       0x10 obj/SKYROVER/stm32f10x_tim.o
 .text.TIM_ClearOC4Ref
                0x0000000000000000       0x10 obj/SKYROVER/stm32f10x_tim.o
 .text.TIM_OC1PolarityConfig
                0x0000000000000000       0x10 obj/SKYROVER/stm32f10x_tim.o
 .text.TIM_OC1NPolarityConfig
                0x0000000000000000       0x10 obj/SKYROVER/stm32f10x_tim.o
 .text.TIM_OC2PolarityConfig
                0x0000000000000000       0x14 obj/SKYROVER/stm32f10x_tim.o
 .text.TIM_OC2NPolarityConfig
                0x0000000000000000       0x14 obj/SKYROVER/stm32f10x_tim.o
 .text.TIM_OC3PolarityConfig
                0x0000000000000000       0x14 obj/SKYROVER/stm32f10x_tim.o
 .text.TIM_OC3NPolarityConfig
                0x0000000000000000       0x14 obj/SKYROVER/stm32f10x_tim.o
 .text.TIM_OC4PolarityConfig
                0x0000000000000000       0x14 obj/SKYROVER/stm32f10x_tim.o
 .text.TIM_CCxCmd
                0x0000000000000000       0x22 obj/SKYROVER/stm32f10x_tim.o
 .text.TIM_CCxNCmd
                0x0000000000000000       0x22 obj/SKYROVER/stm32f10x_tim.o
 .text.TIM_SelectOCxM
                0x0000000000000000       0x44 obj/SKYROVER/stm32f10x_tim.o
 .text.TIM_UpdateDisableConfig
                0x0000000000000000       0x18 obj/SKYROVER/stm32f10x_tim.o
 .text.TIM_UpdateRequestConfig
                0x0000000000000000       0x18 obj/SKYROVER/stm32f10x_tim.o
 .text.TIM_SelectHallSensor
                0x0000000000000000       0x18 obj/SKYROVER/stm32f10x_tim.o
 .text.TIM_SelectOnePulseMode
                0x0000000000000000       0x16 obj/SKYROVER/stm32f10x_tim.o
 .text.TIM_SelectOutputTrigger
                0x0000000000000000       0x16 obj/SKYROVER/stm32f10x_tim.o
 .text.TIM_SelectSlaveMode
                0x0000000000000000       0x16 obj/SKYROVER/stm32f10x_tim.o
 .text.TIM_SelectMasterSlaveMode
                0x0000000000000000       0x16 obj/SKYROVER/stm32f10x_tim.o
 .text.TIM_SetCounter
                0x0000000000000000        0x4 obj/SKYROVER/stm32f10x_tim.o
 .text.TIM_SetAutoreload
                0x0000000000000000        0x4 obj/SKYROVER/stm32f10x_tim.o
 .text.TIM_SetCompare1
                0x0000000000000000        0x4 obj/SKYROVER/stm32f10x_tim.o
 .text.TIM_SetCompare2
                0x0000000000000000        0x4 obj/SKYROVER/stm32f10x_tim.o
 .text.TIM_SetCompare3
                0x0000000000000000        0x4 obj/SKYROVER/stm32f10x_tim.o
 .text.TIM_SetCompare4
                0x0000000000000000        0x6 obj/SKYROVER/stm32f10x_tim.o
 .text.TIM_PWMIConfig
                0x0000000000000000       0x6e obj/SKYROVER/stm32f10x_tim.o
 .text.TIM_SetClockDivision
                0x0000000000000000       0x16 obj/SKYROVER/stm32f10x_tim.o
 .text.TIM_GetCounter
                0x0000000000000000        0x6 obj/SKYROVER/stm32f10x_tim.o
 .text.TIM_GetPrescaler
                0x0000000000000000        0x6 obj/SKYROVER/stm32f10x_tim.o
 .text.TIM_GetFlagStatus
                0x0000000000000000        0xc obj/SKYROVER/stm32f10x_tim.o
 .text.TIM_ClearFlag
                0x0000000000000000        0x8 obj/SKYROVER/stm32f10x_tim.o
 .text          0x0000000000000000        0x0 obj/SKYROVER/stm32f10x_usart.o
 .data          0x0000000000000000        0x0 obj/SKYROVER/stm32f10x_usart.o
 .bss           0x0000000000000000        0x0 obj/SKYROVER/stm32f10x_usart.o
 .text.USART_DeInit
                0x0000000000000000       0x98 obj/SKYROVER/stm32f10x_usart.o
 .text.USART_StructInit
                0x0000000000000000       0x16 obj/SKYROVER/stm32f10x_usart.o
 .text.USART_ClockInit
                0x0000000000000000       0x20 obj/SKYROVER/stm32f10x_usart.o
 .text.USART_ClockStructInit
                0x0000000000000000        0xc obj/SKYROVER/stm32f10x_usart.o
 .text.USART_SetAddress
                0x0000000000000000       0x16 obj/SKYROVER/stm32f10x_usart.o
 .text.USART_WakeUpConfig
                0x0000000000000000       0x16 obj/SKYROVER/stm32f10x_usart.o
 .text.USART_ReceiverWakeUpCmd
                0x0000000000000000       0x18 obj/SKYROVER/stm32f10x_usart.o
 .text.USART_LINBreakDetectLengthConfig
                0x0000000000000000       0x16 obj/SKYROVER/stm32f10x_usart.o
 .text.USART_LINCmd
                0x0000000000000000       0x18 obj/SKYROVER/stm32f10x_usart.o
 .text.USART_SendData
                0x0000000000000000        0x8 obj/SKYROVER/stm32f10x_usart.o
 .text.USART_ReceiveData
                0x0000000000000000        0x8 obj/SKYROVER/stm32f10x_usart.o
 .text.USART_SendBreak
                0x0000000000000000        0xc obj/SKYROVER/stm32f10x_usart.o
 .text.USART_SetGuardTime
                0x0000000000000000       0x12 obj/SKYROVER/stm32f10x_usart.o
 .text.USART_SetPrescaler
                0x0000000000000000       0x12 obj/SKYROVER/stm32f10x_usart.o
 .text.USART_SmartCardCmd
                0x0000000000000000       0x18 obj/SKYROVER/stm32f10x_usart.o
 .text.USART_SmartCardNACKCmd
                0x0000000000000000       0x18 obj/SKYROVER/stm32f10x_usart.o
 .text.USART_HalfDuplexCmd
                0x0000000000000000       0x18 obj/SKYROVER/stm32f10x_usart.o
 .text.USART_OverSampling8Cmd
                0x0000000000000000       0x18 obj/SKYROVER/stm32f10x_usart.o
 .text.USART_OneBitMethodCmd
                0x0000000000000000       0x18 obj/SKYROVER/stm32f10x_usart.o
 .text.USART_IrDAConfig
                0x0000000000000000       0x16 obj/SKYROVER/stm32f10x_usart.o
 .text.USART_IrDACmd
                0x0000000000000000       0x18 obj/SKYROVER/stm32f10x_usart.o
 .text.USART_GetFlagStatus
                0x0000000000000000        0xc obj/SKYROVER/stm32f10x_usart.o
 .text.USART_ClearFlag
                0x0000000000000000        0x8 obj/SKYROVER/stm32f10x_usart.o
 .text.USART_GetITStatus
                0x0000000000000000       0x40 obj/SKYROVER/stm32f10x_usart.o
 .text.USART_ClearITPendingBit
                0x0000000000000000       0x10 obj/SKYROVER/stm32f10x_usart.o
 .text          0x0000000000000000        0x0 obj/SKYROVER/stm32f10x_wwdg.o
 .data          0x0000000000000000        0x0 obj/SKYROVER/stm32f10x_wwdg.o
 .bss           0x0000000000000000        0x0 obj/SKYROVER/stm32f10x_wwdg.o
 .text.WWDG_DeInit
                0x0000000000000000       0x1a obj/SKYROVER/stm32f10x_wwdg.o
 .text.WWDG_SetPrescaler
                0x0000000000000000       0x14 obj/SKYROVER/stm32f10x_wwdg.o
 .text.WWDG_SetWindowValue
                0x0000000000000000       0x28 obj/SKYROVER/stm32f10x_wwdg.o
 .text.WWDG_EnableIT
                0x0000000000000000        0xc obj/SKYROVER/stm32f10x_wwdg.o
 .text.WWDG_SetCounter
                0x0000000000000000       0x10 obj/SKYROVER/stm32f10x_wwdg.o
 .text.WWDG_Enable
                0x0000000000000000       0x10 obj/SKYROVER/stm32f10x_wwdg.o
 .text.WWDG_GetFlagStatus
                0x0000000000000000        0xc obj/SKYROVER/stm32f10x_wwdg.o
 .text.WWDG_ClearFlag
                0x0000000000000000        0xc obj/SKYROVER/stm32f10x_wwdg.o
 .comment       0x0000000000000000       0x71 obj/SKYROVER/stm32f10x_wwdg.o
 .ARM.attributes
                0x0000000000000000       0x33 obj/SKYROVER/stm32f10x_wwdg.o
 .text          0x0000000000000000        0x0 /Users/imac/Develop/stm32f4/arm_gcc/gcc-arm-none-eabi-4_7-2013q3/bin/../lib/gcc/arm-none-eabi/4.7.4/../../../../arm-none-eabi/lib/armv7-m/libm.a(lib_a-sf_cos.o)
 .data          0x0000000000000000        0x0 /Users/imac/Develop/stm32f4/arm_gcc/gcc-arm-none-eabi-4_7-2013q3/bin/../lib/gcc/arm-none-eabi/4.7.4/../../../../arm-none-eabi/lib/armv7-m/libm.a(lib_a-sf_cos.o)
 .bss           0x0000000000000000        0x0 /Users/imac/Develop/stm32f4/arm_gcc/gcc-arm-none-eabi-4_7-2013q3/bin/../lib/gcc/arm-none-eabi/4.7.4/../../../../arm-none-eabi/lib/armv7-m/libm.a(lib_a-sf_cos.o)
 .text          0x0000000000000000        0x0 /Users/imac/Develop/stm32f4/arm_gcc/gcc-arm-none-eabi-4_7-2013q3/bin/../lib/gcc/arm-none-eabi/4.7.4/../../../../arm-none-eabi/lib/armv7-m/libm.a(lib_a-sf_lrint.o)
 .data          0x0000000000000000        0x0 /Users/imac/Develop/stm32f4/arm_gcc/gcc-arm-none-eabi-4_7-2013q3/bin/../lib/gcc/arm-none-eabi/4.7.4/../../../../arm-none-eabi/lib/armv7-m/libm.a(lib_a-sf_lrint.o)
 .bss           0x0000000000000000        0x0 /Users/imac/Develop/stm32f4/arm_gcc/gcc-arm-none-eabi-4_7-2013q3/bin/../lib/gcc/arm-none-eabi/4.7.4/../../../../arm-none-eabi/lib/armv7-m/libm.a(lib_a-sf_lrint.o)
 .text          0x0000000000000000        0x0 /Users/imac/Develop/stm32f4/arm_gcc/gcc-arm-none-eabi-4_7-2013q3/bin/../lib/gcc/arm-none-eabi/4.7.4/../../../../arm-none-eabi/lib/armv7-m/libm.a(lib_a-sf_sin.o)
 .data          0x0000000000000000        0x0 /Users/imac/Develop/stm32f4/arm_gcc/gcc-arm-none-eabi-4_7-2013q3/bin/../lib/gcc/arm-none-eabi/4.7.4/../../../../arm-none-eabi/lib/armv7-m/libm.a(lib_a-sf_sin.o)
 .bss           0x0000000000000000        0x0 /Users/imac/Develop/stm32f4/arm_gcc/gcc-arm-none-eabi-4_7-2013q3/bin/../lib/gcc/arm-none-eabi/4.7.4/../../../../arm-none-eabi/lib/armv7-m/libm.a(lib_a-sf_sin.o)
 .text          0x0000000000000000        0x0 /Users/imac/Develop/stm32f4/arm_gcc/gcc-arm-none-eabi-4_7-2013q3/bin/../lib/gcc/arm-none-eabi/4.7.4/../../../../arm-none-eabi/lib/armv7-m/libm.a(lib_a-wf_atan2.o)
 .data          0x0000000000000000        0x0 /Users/imac/Develop/stm32f4/arm_gcc/gcc-arm-none-eabi-4_7-2013q3/bin/../lib/gcc/arm-none-eabi/4.7.4/../../../../arm-none-eabi/lib/armv7-m/libm.a(lib_a-wf_atan2.o)
 .bss           0x0000000000000000        0x0 /Users/imac/Develop/stm32f4/arm_gcc/gcc-arm-none-eabi-4_7-2013q3/bin/../lib/gcc/arm-none-eabi/4.7.4/../../../../arm-none-eabi/lib/armv7-m/libm.a(lib_a-wf_atan2.o)
 .text          0x0000000000000000        0x0 /Users/imac/Develop/stm32f4/arm_gcc/gcc-arm-none-eabi-4_7-2013q3/bin/../lib/gcc/arm-none-eabi/4.7.4/../../../../arm-none-eabi/lib/armv7-m/libm.a(lib_a-wf_pow.o)
 .data          0x0000000000000000        0x0 /Users/imac/Develop/stm32f4/arm_gcc/gcc-arm-none-eabi-4_7-2013q3/bin/../lib/gcc/arm-none-eabi/4.7.4/../../../../arm-none-eabi/lib/armv7-m/libm.a(lib_a-wf_pow.o)
 .bss           0x0000000000000000        0x0 /Users/imac/Develop/stm32f4/arm_gcc/gcc-arm-none-eabi-4_7-2013q3/bin/../lib/gcc/arm-none-eabi/4.7.4/../../../../arm-none-eabi/lib/armv7-m/libm.a(lib_a-wf_pow.o)
 .text          0x0000000000000000        0x0 /Users/imac/Develop/stm32f4/arm_gcc/gcc-arm-none-eabi-4_7-2013q3/bin/../lib/gcc/arm-none-eabi/4.7.4/../../../../arm-none-eabi/lib/armv7-m/libm.a(lib_a-wf_sqrt.o)
 .data          0x0000000000000000        0x0 /Users/imac/Develop/stm32f4/arm_gcc/gcc-arm-none-eabi-4_7-2013q3/bin/../lib/gcc/arm-none-eabi/4.7.4/../../../../arm-none-eabi/lib/armv7-m/libm.a(lib_a-wf_sqrt.o)
 .bss           0x0000000000000000        0x0 /Users/imac/Develop/stm32f4/arm_gcc/gcc-arm-none-eabi-4_7-2013q3/bin/../lib/gcc/arm-none-eabi/4.7.4/../../../../arm-none-eabi/lib/armv7-m/libm.a(lib_a-wf_sqrt.o)
 .text          0x0000000000000000        0x0 /Users/imac/Develop/stm32f4/arm_gcc/gcc-arm-none-eabi-4_7-2013q3/bin/../lib/gcc/arm-none-eabi/4.7.4/../../../../arm-none-eabi/lib/armv7-m/libm.a(lib_a-ef_atan2.o)
 .data          0x0000000000000000        0x0 /Users/imac/Develop/stm32f4/arm_gcc/gcc-arm-none-eabi-4_7-2013q3/bin/../lib/gcc/arm-none-eabi/4.7.4/../../../../arm-none-eabi/lib/armv7-m/libm.a(lib_a-ef_atan2.o)
 .bss           0x0000000000000000        0x0 /Users/imac/Develop/stm32f4/arm_gcc/gcc-arm-none-eabi-4_7-2013q3/bin/../lib/gcc/arm-none-eabi/4.7.4/../../../../arm-none-eabi/lib/armv7-m/libm.a(lib_a-ef_atan2.o)
 .text          0x0000000000000000        0x0 /Users/imac/Develop/stm32f4/arm_gcc/gcc-arm-none-eabi-4_7-2013q3/bin/../lib/gcc/arm-none-eabi/4.7.4/../../../../arm-none-eabi/lib/armv7-m/libm.a(lib_a-ef_pow.o)
 .data          0x0000000000000000        0x0 /Users/imac/Develop/stm32f4/arm_gcc/gcc-arm-none-eabi-4_7-2013q3/bin/../lib/gcc/arm-none-eabi/4.7.4/../../../../arm-none-eabi/lib/armv7-m/libm.a(lib_a-ef_pow.o)
 .bss           0x0000000000000000        0x0 /Users/imac/Develop/stm32f4/arm_gcc/gcc-arm-none-eabi-4_7-2013q3/bin/../lib/gcc/arm-none-eabi/4.7.4/../../../../arm-none-eabi/lib/armv7-m/libm.a(lib_a-ef_pow.o)
 .text          0x0000000000000000        0x0 /Users/imac/Develop/stm32f4/arm_gcc/gcc-arm-none-eabi-4_7-2013q3/bin/../lib/gcc/arm-none-eabi/4.7.4/../../../../arm-none-eabi/lib/armv7-m/libm.a(lib_a-ef_rem_pio2.o)
 .data          0x0000000000000000        0x0 /Users/imac/Develop/stm32f4/arm_gcc/gcc-arm-none-eabi-4_7-2013q3/bin/../lib/gcc/arm-none-eabi/4.7.4/../../../../arm-none-eabi/lib/armv7-m/libm.a(lib_a-ef_rem_pio2.o)
 .bss           0x0000000000000000        0x0 /Users/imac/Develop/stm32f4/arm_gcc/gcc-arm-none-eabi-4_7-2013q3/bin/../lib/gcc/arm-none-eabi/4.7.4/../../../../arm-none-eabi/lib/armv7-m/libm.a(lib_a-ef_rem_pio2.o)
 .text          0x0000000000000000        0x0 /Users/imac/Develop/stm32f4/arm_gcc/gcc-arm-none-eabi-4_7-2013q3/bin/../lib/gcc/arm-none-eabi/4.7.4/../../../../arm-none-eabi/lib/armv7-m/libm.a(lib_a-ef_sqrt.o)
 .data          0x0000000000000000        0x0 /Users/imac/Develop/stm32f4/arm_gcc/gcc-arm-none-eabi-4_7-2013q3/bin/../lib/gcc/arm-none-eabi/4.7.4/../../../../arm-none-eabi/lib/armv7-m/libm.a(lib_a-ef_sqrt.o)
 .bss           0x0000000000000000        0x0 /Users/imac/Develop/stm32f4/arm_gcc/gcc-arm-none-eabi-4_7-2013q3/bin/../lib/gcc/arm-none-eabi/4.7.4/../../../../arm-none-eabi/lib/armv7-m/libm.a(lib_a-ef_sqrt.o)
 .text          0x0000000000000000        0x0 /Users/imac/Develop/stm32f4/arm_gcc/gcc-arm-none-eabi-4_7-2013q3/bin/../lib/gcc/arm-none-eabi/4.7.4/../../../../arm-none-eabi/lib/armv7-m/libm.a(lib_a-kf_cos.o)
 .data          0x0000000000000000        0x0 /Users/imac/Develop/stm32f4/arm_gcc/gcc-arm-none-eabi-4_7-2013q3/bin/../lib/gcc/arm-none-eabi/4.7.4/../../../../arm-none-eabi/lib/armv7-m/libm.a(lib_a-kf_cos.o)
 .bss           0x0000000000000000        0x0 /Users/imac/Develop/stm32f4/arm_gcc/gcc-arm-none-eabi-4_7-2013q3/bin/../lib/gcc/arm-none-eabi/4.7.4/../../../../arm-none-eabi/lib/armv7-m/libm.a(lib_a-kf_cos.o)
 .text          0x0000000000000000        0x0 /Users/imac/Develop/stm32f4/arm_gcc/gcc-arm-none-eabi-4_7-2013q3/bin/../lib/gcc/arm-none-eabi/4.7.4/../../../../arm-none-eabi/lib/armv7-m/libm.a(lib_a-kf_rem_pio2.o)
 .data          0x0000000000000000        0x0 /Users/imac/Develop/stm32f4/arm_gcc/gcc-arm-none-eabi-4_7-2013q3/bin/../lib/gcc/arm-none-eabi/4.7.4/../../../../arm-none-eabi/lib/armv7-m/libm.a(lib_a-kf_rem_pio2.o)
 .bss           0x0000000000000000        0x0 /Users/imac/Develop/stm32f4/arm_gcc/gcc-arm-none-eabi-4_7-2013q3/bin/../lib/gcc/arm-none-eabi/4.7.4/../../../../arm-none-eabi/lib/armv7-m/libm.a(lib_a-kf_rem_pio2.o)
 .text          0x0000000000000000        0x0 /Users/imac/Develop/stm32f4/arm_gcc/gcc-arm-none-eabi-4_7-2013q3/bin/../lib/gcc/arm-none-eabi/4.7.4/../../../../arm-none-eabi/lib/armv7-m/libm.a(lib_a-kf_sin.o)
 .data          0x0000000000000000        0x0 /Users/imac/Develop/stm32f4/arm_gcc/gcc-arm-none-eabi-4_7-2013q3/bin/../lib/gcc/arm-none-eabi/4.7.4/../../../../arm-none-eabi/lib/armv7-m/libm.a(lib_a-kf_sin.o)
 .bss           0x0000000000000000        0x0 /Users/imac/Develop/stm32f4/arm_gcc/gcc-arm-none-eabi-4_7-2013q3/bin/../lib/gcc/arm-none-eabi/4.7.4/../../../../arm-none-eabi/lib/armv7-m/libm.a(lib_a-kf_sin.o)
 .text          0x0000000000000000        0x0 /Users/imac/Develop/stm32f4/arm_gcc/gcc-arm-none-eabi-4_7-2013q3/bin/../lib/gcc/arm-none-eabi/4.7.4/../../../../arm-none-eabi/lib/armv7-m/libm.a(lib_a-s_lib_ver.o)
 .data          0x0000000000000000        0x0 /Users/imac/Develop/stm32f4/arm_gcc/gcc-arm-none-eabi-4_7-2013q3/bin/../lib/gcc/arm-none-eabi/4.7.4/../../../../arm-none-eabi/lib/armv7-m/libm.a(lib_a-s_lib_ver.o)
 .bss           0x0000000000000000        0x0 /Users/imac/Develop/stm32f4/arm_gcc/gcc-arm-none-eabi-4_7-2013q3/bin/../lib/gcc/arm-none-eabi/4.7.4/../../../../arm-none-eabi/lib/armv7-m/libm.a(lib_a-s_lib_ver.o)
 .text          0x0000000000000000        0x0 /Users/imac/Develop/stm32f4/arm_gcc/gcc-arm-none-eabi-4_7-2013q3/bin/../lib/gcc/arm-none-eabi/4.7.4/../../../../arm-none-eabi/lib/armv7-m/libm.a(lib_a-s_matherr.o)
 .data          0x0000000000000000        0x0 /Users/imac/Develop/stm32f4/arm_gcc/gcc-arm-none-eabi-4_7-2013q3/bin/../lib/gcc/arm-none-eabi/4.7.4/../../../../arm-none-eabi/lib/armv7-m/libm.a(lib_a-s_matherr.o)
 .bss           0x0000000000000000        0x0 /Users/imac/Develop/stm32f4/arm_gcc/gcc-arm-none-eabi-4_7-2013q3/bin/../lib/gcc/arm-none-eabi/4.7.4/../../../../arm-none-eabi/lib/armv7-m/libm.a(lib_a-s_matherr.o)
 .text          0x0000000000000000        0x0 /Users/imac/Develop/stm32f4/arm_gcc/gcc-arm-none-eabi-4_7-2013q3/bin/../lib/gcc/arm-none-eabi/4.7.4/../../../../arm-none-eabi/lib/armv7-m/libm.a(lib_a-s_rint.o)
 .data          0x0000000000000000        0x0 /Users/imac/Develop/stm32f4/arm_gcc/gcc-arm-none-eabi-4_7-2013q3/bin/../lib/gcc/arm-none-eabi/4.7.4/../../../../arm-none-eabi/lib/armv7-m/libm.a(lib_a-s_rint.o)
 .bss           0x0000000000000000        0x0 /Users/imac/Develop/stm32f4/arm_gcc/gcc-arm-none-eabi-4_7-2013q3/bin/../lib/gcc/arm-none-eabi/4.7.4/../../../../arm-none-eabi/lib/armv7-m/libm.a(lib_a-s_rint.o)
 .text          0x0000000000000000        0x0 /Users/imac/Develop/stm32f4/arm_gcc/gcc-arm-none-eabi-4_7-2013q3/bin/../lib/gcc/arm-none-eabi/4.7.4/../../../../arm-none-eabi/lib/armv7-m/libm.a(lib_a-sf_atan.o)
 .data          0x0000000000000000        0x0 /Users/imac/Develop/stm32f4/arm_gcc/gcc-arm-none-eabi-4_7-2013q3/bin/../lib/gcc/arm-none-eabi/4.7.4/../../../../arm-none-eabi/lib/armv7-m/libm.a(lib_a-sf_atan.o)
 .bss           0x0000000000000000        0x0 /Users/imac/Develop/stm32f4/arm_gcc/gcc-arm-none-eabi-4_7-2013q3/bin/../lib/gcc/arm-none-eabi/4.7.4/../../../../arm-none-eabi/lib/armv7-m/libm.a(lib_a-sf_atan.o)
 .text          0x0000000000000000        0x0 /Users/imac/Develop/stm32f4/arm_gcc/gcc-arm-none-eabi-4_7-2013q3/bin/../lib/gcc/arm-none-eabi/4.7.4/../../../../arm-none-eabi/lib/armv7-m/libm.a(lib_a-sf_fabs.o)
 .data          0x0000000000000000        0x0 /Users/imac/Develop/stm32f4/arm_gcc/gcc-arm-none-eabi-4_7-2013q3/bin/../lib/gcc/arm-none-eabi/4.7.4/../../../../arm-none-eabi/lib/armv7-m/libm.a(lib_a-sf_fabs.o)
 .bss           0x0000000000000000        0x0 /Users/imac/Develop/stm32f4/arm_gcc/gcc-arm-none-eabi-4_7-2013q3/bin/../lib/gcc/arm-none-eabi/4.7.4/../../../../arm-none-eabi/lib/armv7-m/libm.a(lib_a-sf_fabs.o)
 .text          0x0000000000000000        0x0 /Users/imac/Develop/stm32f4/arm_gcc/gcc-arm-none-eabi-4_7-2013q3/bin/../lib/gcc/arm-none-eabi/4.7.4/../../../../arm-none-eabi/lib/armv7-m/libm.a(lib_a-sf_finite.o)
 .data          0x0000000000000000        0x0 /Users/imac/Develop/stm32f4/arm_gcc/gcc-arm-none-eabi-4_7-2013q3/bin/../lib/gcc/arm-none-eabi/4.7.4/../../../../arm-none-eabi/lib/armv7-m/libm.a(lib_a-sf_finite.o)
 .bss           0x0000000000000000        0x0 /Users/imac/Develop/stm32f4/arm_gcc/gcc-arm-none-eabi-4_7-2013q3/bin/../lib/gcc/arm-none-eabi/4.7.4/../../../../arm-none-eabi/lib/armv7-m/libm.a(lib_a-sf_finite.o)
 .text          0x0000000000000000        0x0 /Users/imac/Develop/stm32f4/arm_gcc/gcc-arm-none-eabi-4_7-2013q3/bin/../lib/gcc/arm-none-eabi/4.7.4/../../../../arm-none-eabi/lib/armv7-m/libm.a(lib_a-sf_floor.o)
 .data          0x0000000000000000        0x0 /Users/imac/Develop/stm32f4/arm_gcc/gcc-arm-none-eabi-4_7-2013q3/bin/../lib/gcc/arm-none-eabi/4.7.4/../../../../arm-none-eabi/lib/armv7-m/libm.a(lib_a-sf_floor.o)
 .bss           0x0000000000000000        0x0 /Users/imac/Develop/stm32f4/arm_gcc/gcc-arm-none-eabi-4_7-2013q3/bin/../lib/gcc/arm-none-eabi/4.7.4/../../../../arm-none-eabi/lib/armv7-m/libm.a(lib_a-sf_floor.o)
 .text          0x0000000000000000        0x0 /Users/imac/Develop/stm32f4/arm_gcc/gcc-arm-none-eabi-4_7-2013q3/bin/../lib/gcc/arm-none-eabi/4.7.4/../../../../arm-none-eabi/lib/armv7-m/libm.a(lib_a-sf_fpclassify.o)
 .data          0x0000000000000000        0x0 /Users/imac/Develop/stm32f4/arm_gcc/gcc-arm-none-eabi-4_7-2013q3/bin/../lib/gcc/arm-none-eabi/4.7.4/../../../../arm-none-eabi/lib/armv7-m/libm.a(lib_a-sf_fpclassify.o)
 .bss           0x0000000000000000        0x0 /Users/imac/Develop/stm32f4/arm_gcc/gcc-arm-none-eabi-4_7-2013q3/bin/../lib/gcc/arm-none-eabi/4.7.4/../../../../arm-none-eabi/lib/armv7-m/libm.a(lib_a-sf_fpclassify.o)
 .text          0x0000000000000000        0x0 /Users/imac/Develop/stm32f4/arm_gcc/gcc-arm-none-eabi-4_7-2013q3/bin/../lib/gcc/arm-none-eabi/4.7.4/../../../../arm-none-eabi/lib/armv7-m/libm.a(lib_a-sf_nan.o)
 .data          0x0000000000000000        0x0 /Users/imac/Develop/stm32f4/arm_gcc/gcc-arm-none-eabi-4_7-2013q3/bin/../lib/gcc/arm-none-eabi/4.7.4/../../../../arm-none-eabi/lib/armv7-m/libm.a(lib_a-sf_nan.o)
 .bss           0x0000000000000000        0x0 /Users/imac/Develop/stm32f4/arm_gcc/gcc-arm-none-eabi-4_7-2013q3/bin/../lib/gcc/arm-none-eabi/4.7.4/../../../../arm-none-eabi/lib/armv7-m/libm.a(lib_a-sf_nan.o)
 .text          0x0000000000000000        0x0 /Users/imac/Develop/stm32f4/arm_gcc/gcc-arm-none-eabi-4_7-2013q3/bin/../lib/gcc/arm-none-eabi/4.7.4/../../../../arm-none-eabi/lib/armv7-m/libm.a(lib_a-sf_scalbn.o)
 .data          0x0000000000000000        0x0 /Users/imac/Develop/stm32f4/arm_gcc/gcc-arm-none-eabi-4_7-2013q3/bin/../lib/gcc/arm-none-eabi/4.7.4/../../../../arm-none-eabi/lib/armv7-m/libm.a(lib_a-sf_scalbn.o)
 .bss           0x0000000000000000        0x0 /Users/imac/Develop/stm32f4/arm_gcc/gcc-arm-none-eabi-4_7-2013q3/bin/../lib/gcc/arm-none-eabi/4.7.4/../../../../arm-none-eabi/lib/armv7-m/libm.a(lib_a-sf_scalbn.o)
 .text          0x0000000000000000        0x0 /Users/imac/Develop/stm32f4/arm_gcc/gcc-arm-none-eabi-4_7-2013q3/bin/../lib/gcc/arm-none-eabi/4.7.4/../../../../arm-none-eabi/lib/armv7-m/libm.a(lib_a-sf_copysign.o)
 .data          0x0000000000000000        0x0 /Users/imac/Develop/stm32f4/arm_gcc/gcc-arm-none-eabi-4_7-2013q3/bin/../lib/gcc/arm-none-eabi/4.7.4/../../../../arm-none-eabi/lib/armv7-m/libm.a(lib_a-sf_copysign.o)
 .bss           0x0000000000000000        0x0 /Users/imac/Develop/stm32f4/arm_gcc/gcc-arm-none-eabi-4_7-2013q3/bin/../lib/gcc/arm-none-eabi/4.7.4/../../../../arm-none-eabi/lib/armv7-m/libm.a(lib_a-sf_copysign.o)
 .data          0x0000000000000000        0x0 /Users/imac/Develop/stm32f4/arm_gcc/gcc-arm-none-eabi-4_7-2013q3/bin/../lib/gcc/arm-none-eabi/4.7.4/armv7-m/libgcc.a(_arm_addsubdf3.o)
 .bss           0x0000000000000000        0x0 /Users/imac/Develop/stm32f4/arm_gcc/gcc-arm-none-eabi-4_7-2013q3/bin/../lib/gcc/arm-none-eabi/4.7.4/armv7-m/libgcc.a(_arm_addsubdf3.o)
 .data          0x0000000000000000        0x0 /Users/imac/Develop/stm32f4/arm_gcc/gcc-arm-none-eabi-4_7-2013q3/bin/../lib/gcc/arm-none-eabi/4.7.4/armv7-m/libgcc.a(_arm_muldivdf3.o)
 .bss           0x0000000000000000        0x0 /Users/imac/Develop/stm32f4/arm_gcc/gcc-arm-none-eabi-4_7-2013q3/bin/../lib/gcc/arm-none-eabi/4.7.4/armv7-m/libgcc.a(_arm_muldivdf3.o)
 .data          0x0000000000000000        0x0 /Users/imac/Develop/stm32f4/arm_gcc/gcc-arm-none-eabi-4_7-2013q3/bin/../lib/gcc/arm-none-eabi/4.7.4/armv7-m/libgcc.a(_arm_cmpdf2.o)
 .bss           0x0000000000000000        0x0 /Users/imac/Develop/stm32f4/arm_gcc/gcc-arm-none-eabi-4_7-2013q3/bin/../lib/gcc/arm-none-eabi/4.7.4/armv7-m/libgcc.a(_arm_cmpdf2.o)
 .data          0x0000000000000000        0x0 /Users/imac/Develop/stm32f4/arm_gcc/gcc-arm-none-eabi-4_7-2013q3/bin/../lib/gcc/arm-none-eabi/4.7.4/armv7-m/libgcc.a(_arm_truncdfsf2.o)
 .bss           0x0000000000000000        0x0 /Users/imac/Develop/stm32f4/arm_gcc/gcc-arm-none-eabi-4_7-2013q3/bin/../lib/gcc/arm-none-eabi/4.7.4/armv7-m/libgcc.a(_arm_truncdfsf2.o)
 .data          0x0000000000000000        0x0 /Users/imac/Develop/stm32f4/arm_gcc/gcc-arm-none-eabi-4_7-2013q3/bin/../lib/gcc/arm-none-eabi/4.7.4/armv7-m/libgcc.a(_arm_addsubsf3.o)
 .bss           0x0000000000000000        0x0 /Users/imac/Develop/stm32f4/arm_gcc/gcc-arm-none-eabi-4_7-2013q3/bin/../lib/gcc/arm-none-eabi/4.7.4/armv7-m/libgcc.a(_arm_addsubsf3.o)
 .data          0x0000000000000000        0x0 /Users/imac/Develop/stm32f4/arm_gcc/gcc-arm-none-eabi-4_7-2013q3/bin/../lib/gcc/arm-none-eabi/4.7.4/armv7-m/libgcc.a(_arm_muldivsf3.o)
 .bss           0x0000000000000000        0x0 /Users/imac/Develop/stm32f4/arm_gcc/gcc-arm-none-eabi-4_7-2013q3/bin/../lib/gcc/arm-none-eabi/4.7.4/armv7-m/libgcc.a(_arm_muldivsf3.o)
 .data          0x0000000000000000        0x0 /Users/imac/Develop/stm32f4/arm_gcc/gcc-arm-none-eabi-4_7-2013q3/bin/../lib/gcc/arm-none-eabi/4.7.4/armv7-m/libgcc.a(_arm_cmpsf2.o)
 .bss           0x0000000000000000        0x0 /Users/imac/Develop/stm32f4/arm_gcc/gcc-arm-none-eabi-4_7-2013q3/bin/../lib/gcc/arm-none-eabi/4.7.4/armv7-m/libgcc.a(_arm_cmpsf2.o)
 .data          0x0000000000000000        0x0 /Users/imac/Develop/stm32f4/arm_gcc/gcc-arm-none-eabi-4_7-2013q3/bin/../lib/gcc/arm-none-eabi/4.7.4/armv7-m/libgcc.a(_arm_fixsfsi.o)
 .bss           0x0000000000000000        0x0 /Users/imac/Develop/stm32f4/arm_gcc/gcc-arm-none-eabi-4_7-2013q3/bin/../lib/gcc/arm-none-eabi/4.7.4/armv7-m/libgcc.a(_arm_fixsfsi.o)
 .data          0x0000000000000000        0x0 /Users/imac/Develop/stm32f4/arm_gcc/gcc-arm-none-eabi-4_7-2013q3/bin/../lib/gcc/arm-none-eabi/4.7.4/armv7-m/libgcc.a(_arm_fixunssfsi.o)
 .bss           0x0000000000000000        0x0 /Users/imac/Develop/stm32f4/arm_gcc/gcc-arm-none-eabi-4_7-2013q3/bin/../lib/gcc/arm-none-eabi/4.7.4/armv7-m/libgcc.a(_arm_fixunssfsi.o)
 .text          0x0000000000000000        0x0 /Users/imac/Develop/stm32f4/arm_gcc/gcc-arm-none-eabi-4_7-2013q3/bin/../lib/gcc/arm-none-eabi/4.7.4/../../../../arm-none-eabi/lib/armv7-m/libc.a(lib_a-__atexit.o)
 .data          0x0000000000000000        0x0 /Users/imac/Develop/stm32f4/arm_gcc/gcc-arm-none-eabi-4_7-2013q3/bin/../lib/gcc/arm-none-eabi/4.7.4/../../../../arm-none-eabi/lib/armv7-m/libc.a(lib_a-__atexit.o)
 .bss           0x0000000000000000        0x0 /Users/imac/Develop/stm32f4/arm_gcc/gcc-arm-none-eabi-4_7-2013q3/bin/../lib/gcc/arm-none-eabi/4.7.4/../../../../arm-none-eabi/lib/armv7-m/libc.a(lib_a-__atexit.o)
 .text          0x0000000000000000        0x0 /Users/imac/Develop/stm32f4/arm_gcc/gcc-arm-none-eabi-4_7-2013q3/bin/../lib/gcc/arm-none-eabi/4.7.4/../../../../arm-none-eabi/lib/armv7-m/libc.a(lib_a-atoi.o)
 .data          0x0000000000000000        0x0 /Users/imac/Develop/stm32f4/arm_gcc/gcc-arm-none-eabi-4_7-2013q3/bin/../lib/gcc/arm-none-eabi/4.7.4/../../../../arm-none-eabi/lib/armv7-m/libc.a(lib_a-atoi.o)
 .bss           0x0000000000000000        0x0 /Users/imac/Develop/stm32f4/arm_gcc/gcc-arm-none-eabi-4_7-2013q3/bin/../lib/gcc/arm-none-eabi/4.7.4/../../../../arm-none-eabi/lib/armv7-m/libc.a(lib_a-atoi.o)
 .text._atoi_r  0x0000000000000000        0x8 /Users/imac/Develop/stm32f4/arm_gcc/gcc-arm-none-eabi-4_7-2013q3/bin/../lib/gcc/arm-none-eabi/4.7.4/../../../../arm-none-eabi/lib/armv7-m/libc.a(lib_a-atoi.o)
 .text          0x0000000000000000        0x0 /Users/imac/Develop/stm32f4/arm_gcc/gcc-arm-none-eabi-4_7-2013q3/bin/../lib/gcc/arm-none-eabi/4.7.4/../../../../arm-none-eabi/lib/armv7-m/libc.a(lib_a-bsearch.o)
 .data          0x0000000000000000        0x0 /Users/imac/Develop/stm32f4/arm_gcc/gcc-arm-none-eabi-4_7-2013q3/bin/../lib/gcc/arm-none-eabi/4.7.4/../../../../arm-none-eabi/lib/armv7-m/libc.a(lib_a-bsearch.o)
 .bss           0x0000000000000000        0x0 /Users/imac/Develop/stm32f4/arm_gcc/gcc-arm-none-eabi-4_7-2013q3/bin/../lib/gcc/arm-none-eabi/4.7.4/../../../../arm-none-eabi/lib/armv7-m/libc.a(lib_a-bsearch.o)
 .text          0x0000000000000000        0x0 /Users/imac/Develop/stm32f4/arm_gcc/gcc-arm-none-eabi-4_7-2013q3/bin/../lib/gcc/arm-none-eabi/4.7.4/../../../../arm-none-eabi/lib/armv7-m/libc.a(lib_a-ctype_.o)
 .data          0x0000000000000000        0x0 /Users/imac/Develop/stm32f4/arm_gcc/gcc-arm-none-eabi-4_7-2013q3/bin/../lib/gcc/arm-none-eabi/4.7.4/../../../../arm-none-eabi/lib/armv7-m/libc.a(lib_a-ctype_.o)
 .bss           0x0000000000000000        0x0 /Users/imac/Develop/stm32f4/arm_gcc/gcc-arm-none-eabi-4_7-2013q3/bin/../lib/gcc/arm-none-eabi/4.7.4/../../../../arm-none-eabi/lib/armv7-m/libc.a(lib_a-ctype_.o)
 .text          0x0000000000000000        0x0 /Users/imac/Develop/stm32f4/arm_gcc/gcc-arm-none-eabi-4_7-2013q3/bin/../lib/gcc/arm-none-eabi/4.7.4/../../../../arm-none-eabi/lib/armv7-m/libc.a(lib_a-errno.o)
 .data          0x0000000000000000        0x0 /Users/imac/Develop/stm32f4/arm_gcc/gcc-arm-none-eabi-4_7-2013q3/bin/../lib/gcc/arm-none-eabi/4.7.4/../../../../arm-none-eabi/lib/armv7-m/libc.a(lib_a-errno.o)
 .bss           0x0000000000000000        0x0 /Users/imac/Develop/stm32f4/arm_gcc/gcc-arm-none-eabi-4_7-2013q3/bin/../lib/gcc/arm-none-eabi/4.7.4/../../../../arm-none-eabi/lib/armv7-m/libc.a(lib_a-errno.o)
 .text          0x0000000000000000        0x0 /Users/imac/Develop/stm32f4/arm_gcc/gcc-arm-none-eabi-4_7-2013q3/bin/../lib/gcc/arm-none-eabi/4.7.4/../../../../arm-none-eabi/lib/armv7-m/libc.a(lib_a-exit.o)
 .data          0x0000000000000000        0x0 /Users/imac/Develop/stm32f4/arm_gcc/gcc-arm-none-eabi-4_7-2013q3/bin/../lib/gcc/arm-none-eabi/4.7.4/../../../../arm-none-eabi/lib/armv7-m/libc.a(lib_a-exit.o)
 .bss           0x0000000000000000        0x0 /Users/imac/Develop/stm32f4/arm_gcc/gcc-arm-none-eabi-4_7-2013q3/bin/../lib/gcc/arm-none-eabi/4.7.4/../../../../arm-none-eabi/lib/armv7-m/libc.a(lib_a-exit.o)
 .text.exit     0x0000000000000000       0x20 /Users/imac/Develop/stm32f4/arm_gcc/gcc-arm-none-eabi-4_7-2013q3/bin/../lib/gcc/arm-none-eabi/4.7.4/../../../../arm-none-eabi/lib/armv7-m/libc.a(lib_a-exit.o)
 .ARM.attributes
                0x0000000000000000       0x2d /Users/imac/Develop/stm32f4/arm_gcc/gcc-arm-none-eabi-4_7-2013q3/bin/../lib/gcc/arm-none-eabi/4.7.4/../../../../arm-none-eabi/lib/armv7-m/libc.a(lib_a-exit.o)
 .debug_frame   0x0000000000000000       0x28 /Users/imac/Develop/stm32f4/arm_gcc/gcc-arm-none-eabi-4_7-2013q3/bin/../lib/gcc/arm-none-eabi/4.7.4/../../../../arm-none-eabi/lib/armv7-m/libc.a(lib_a-exit.o)
 .text          0x0000000000000000        0x0 /Users/imac/Develop/stm32f4/arm_gcc/gcc-arm-none-eabi-4_7-2013q3/bin/../lib/gcc/arm-none-eabi/4.7.4/../../../../arm-none-eabi/lib/armv7-m/libc.a(lib_a-fini.o)
 .data          0x0000000000000000        0x0 /Users/imac/Develop/stm32f4/arm_gcc/gcc-arm-none-eabi-4_7-2013q3/bin/../lib/gcc/arm-none-eabi/4.7.4/../../../../arm-none-eabi/lib/armv7-m/libc.a(lib_a-fini.o)
 .bss           0x0000000000000000        0x0 /Users/imac/Develop/stm32f4/arm_gcc/gcc-arm-none-eabi-4_7-2013q3/bin/../lib/gcc/arm-none-eabi/4.7.4/../../../../arm-none-eabi/lib/armv7-m/libc.a(lib_a-fini.o)
 .text          0x0000000000000000        0x0 /Users/imac/Develop/stm32f4/arm_gcc/gcc-arm-none-eabi-4_7-2013q3/bin/../lib/gcc/arm-none-eabi/4.7.4/../../../../arm-none-eabi/lib/armv7-m/libc.a(lib_a-impure.o)
 .data          0x0000000000000000        0x0 /Users/imac/Develop/stm32f4/arm_gcc/gcc-arm-none-eabi-4_7-2013q3/bin/../lib/gcc/arm-none-eabi/4.7.4/../../../../arm-none-eabi/lib/armv7-m/libc.a(lib_a-impure.o)
 .bss           0x0000000000000000        0x0 /Users/imac/Develop/stm32f4/arm_gcc/gcc-arm-none-eabi-4_7-2013q3/bin/../lib/gcc/arm-none-eabi/4.7.4/../../../../arm-none-eabi/lib/armv7-m/libc.a(lib_a-impure.o)
 .text          0x0000000000000000        0x0 /Users/imac/Develop/stm32f4/arm_gcc/gcc-arm-none-eabi-4_7-2013q3/bin/../lib/gcc/arm-none-eabi/4.7.4/../../../../arm-none-eabi/lib/armv7-m/libc.a(lib_a-init.o)
 .data          0x0000000000000000        0x0 /Users/imac/Develop/stm32f4/arm_gcc/gcc-arm-none-eabi-4_7-2013q3/bin/../lib/gcc/arm-none-eabi/4.7.4/../../../../arm-none-eabi/lib/armv7-m/libc.a(lib_a-init.o)
 .bss           0x0000000000000000        0x0 /Users/imac/Develop/stm32f4/arm_gcc/gcc-arm-none-eabi-4_7-2013q3/bin/../lib/gcc/arm-none-eabi/4.7.4/../../../../arm-none-eabi/lib/armv7-m/libc.a(lib_a-init.o)
 .text          0x0000000000000000        0x0 /Users/imac/Develop/stm32f4/arm_gcc/gcc-arm-none-eabi-4_7-2013q3/bin/../lib/gcc/arm-none-eabi/4.7.4/../../../../arm-none-eabi/lib/armv7-m/libc.a(lib_a-memcpy.o)
 .data          0x0000000000000000        0x0 /Users/imac/Develop/stm32f4/arm_gcc/gcc-arm-none-eabi-4_7-2013q3/bin/../lib/gcc/arm-none-eabi/4.7.4/../../../../arm-none-eabi/lib/armv7-m/libc.a(lib_a-memcpy.o)
 .bss           0x0000000000000000        0x0 /Users/imac/Develop/stm32f4/arm_gcc/gcc-arm-none-eabi-4_7-2013q3/bin/../lib/gcc/arm-none-eabi/4.7.4/../../../../arm-none-eabi/lib/armv7-m/libc.a(lib_a-memcpy.o)
 .text          0x0000000000000000        0x0 /Users/imac/Develop/stm32f4/arm_gcc/gcc-arm-none-eabi-4_7-2013q3/bin/../lib/gcc/arm-none-eabi/4.7.4/../../../../arm-none-eabi/lib/armv7-m/libc.a(lib_a-memset.o)
 .data          0x0000000000000000        0x0 /Users/imac/Develop/stm32f4/arm_gcc/gcc-arm-none-eabi-4_7-2013q3/bin/../lib/gcc/arm-none-eabi/4.7.4/../../../../arm-none-eabi/lib/armv7-m/libc.a(lib_a-memset.o)
 .bss           0x0000000000000000        0x0 /Users/imac/Develop/stm32f4/arm_gcc/gcc-arm-none-eabi-4_7-2013q3/bin/../lib/gcc/arm-none-eabi/4.7.4/../../../../arm-none-eabi/lib/armv7-m/libc.a(lib_a-memset.o)
 .text          0x0000000000000000        0x0 /Users/imac/Develop/stm32f4/arm_gcc/gcc-arm-none-eabi-4_7-2013q3/bin/../lib/gcc/arm-none-eabi/4.7.4/../../../../arm-none-eabi/lib/armv7-m/libc.a(lib_a-strcat.o)
 .data          0x0000000000000000        0x0 /Users/imac/Develop/stm32f4/arm_gcc/gcc-arm-none-eabi-4_7-2013q3/bin/../lib/gcc/arm-none-eabi/4.7.4/../../../../arm-none-eabi/lib/armv7-m/libc.a(lib_a-strcat.o)
 .bss           0x0000000000000000        0x0 /Users/imac/Develop/stm32f4/arm_gcc/gcc-arm-none-eabi-4_7-2013q3/bin/../lib/gcc/arm-none-eabi/4.7.4/../../../../arm-none-eabi/lib/armv7-m/libc.a(lib_a-strcat.o)
 .text          0x0000000000000000        0x0 /Users/imac/Develop/stm32f4/arm_gcc/gcc-arm-none-eabi-4_7-2013q3/bin/../lib/gcc/arm-none-eabi/4.7.4/../../../../arm-none-eabi/lib/armv7-m/libc.a(lib_a-strchr.o)
 .data          0x0000000000000000        0x0 /Users/imac/Develop/stm32f4/arm_gcc/gcc-arm-none-eabi-4_7-2013q3/bin/../lib/gcc/arm-none-eabi/4.7.4/../../../../arm-none-eabi/lib/armv7-m/libc.a(lib_a-strchr.o)
 .bss           0x0000000000000000        0x0 /Users/imac/Develop/stm32f4/arm_gcc/gcc-arm-none-eabi-4_7-2013q3/bin/../lib/gcc/arm-none-eabi/4.7.4/../../../../arm-none-eabi/lib/armv7-m/libc.a(lib_a-strchr.o)
 .text          0x0000000000000000        0x0 /Users/imac/Develop/stm32f4/arm_gcc/gcc-arm-none-eabi-4_7-2013q3/bin/../lib/gcc/arm-none-eabi/4.7.4/../../../../arm-none-eabi/lib/armv7-m/libc.a(lib_a-strcpy.o)
 .data          0x0000000000000000        0x0 /Users/imac/Develop/stm32f4/arm_gcc/gcc-arm-none-eabi-4_7-2013q3/bin/../lib/gcc/arm-none-eabi/4.7.4/../../../../arm-none-eabi/lib/armv7-m/libc.a(lib_a-strcpy.o)
 .bss           0x0000000000000000        0x0 /Users/imac/Develop/stm32f4/arm_gcc/gcc-arm-none-eabi-4_7-2013q3/bin/../lib/gcc/arm-none-eabi/4.7.4/../../../../arm-none-eabi/lib/armv7-m/libc.a(lib_a-strcpy.o)
 .text          0x0000000000000000        0x0 /Users/imac/Develop/stm32f4/arm_gcc/gcc-arm-none-eabi-4_7-2013q3/bin/../lib/gcc/arm-none-eabi/4.7.4/../../../../arm-none-eabi/lib/armv7-m/libc.a(lib_a-strlen.o)
 .data          0x0000000000000000        0x0 /Users/imac/Develop/stm32f4/arm_gcc/gcc-arm-none-eabi-4_7-2013q3/bin/../lib/gcc/arm-none-eabi/4.7.4/../../../../arm-none-eabi/lib/armv7-m/libc.a(lib_a-strlen.o)
 .bss           0x0000000000000000        0x0 /Users/imac/Develop/stm32f4/arm_gcc/gcc-arm-none-eabi-4_7-2013q3/bin/../lib/gcc/arm-none-eabi/4.7.4/../../../../arm-none-eabi/lib/armv7-m/libc.a(lib_a-strlen.o)
 .text          0x0000000000000000        0x0 /Users/imac/Develop/stm32f4/arm_gcc/gcc-arm-none-eabi-4_7-2013q3/bin/../lib/gcc/arm-none-eabi/4.7.4/../../../../arm-none-eabi/lib/armv7-m/libc.a(lib_a-strncasecmp.o)
 .data          0x0000000000000000        0x0 /Users/imac/Develop/stm32f4/arm_gcc/gcc-arm-none-eabi-4_7-2013q3/bin/../lib/gcc/arm-none-eabi/4.7.4/../../../../arm-none-eabi/lib/armv7-m/libc.a(lib_a-strncasecmp.o)
 .bss           0x0000000000000000        0x0 /Users/imac/Develop/stm32f4/arm_gcc/gcc-arm-none-eabi-4_7-2013q3/bin/../lib/gcc/arm-none-eabi/4.7.4/../../../../arm-none-eabi/lib/armv7-m/libc.a(lib_a-strncasecmp.o)
 .text          0x0000000000000000        0x0 /Users/imac/Develop/stm32f4/arm_gcc/gcc-arm-none-eabi-4_7-2013q3/bin/../lib/gcc/arm-none-eabi/4.7.4/../../../../arm-none-eabi/lib/armv7-m/libc.a(lib_a-strncpy.o)
 .data          0x0000000000000000        0x0 /Users/imac/Develop/stm32f4/arm_gcc/gcc-arm-none-eabi-4_7-2013q3/bin/../lib/gcc/arm-none-eabi/4.7.4/../../../../arm-none-eabi/lib/armv7-m/libc.a(lib_a-strncpy.o)
 .bss           0x0000000000000000        0x0 /Users/imac/Develop/stm32f4/arm_gcc/gcc-arm-none-eabi-4_7-2013q3/bin/../lib/gcc/arm-none-eabi/4.7.4/../../../../arm-none-eabi/lib/armv7-m/libc.a(lib_a-strncpy.o)
 .text          0x0000000000000000        0x0 /Users/imac/Develop/stm32f4/arm_gcc/gcc-arm-none-eabi-4_7-2013q3/bin/../lib/gcc/arm-none-eabi/4.7.4/../../../../arm-none-eabi/lib/armv7-m/libc.a(lib_a-strstr.o)
 .data          0x0000000000000000        0x0 /Users/imac/Develop/stm32f4/arm_gcc/gcc-arm-none-eabi-4_7-2013q3/bin/../lib/gcc/arm-none-eabi/4.7.4/../../../../arm-none-eabi/lib/armv7-m/libc.a(lib_a-strstr.o)
 .bss           0x0000000000000000        0x0 /Users/imac/Develop/stm32f4/arm_gcc/gcc-arm-none-eabi-4_7-2013q3/bin/../lib/gcc/arm-none-eabi/4.7.4/../../../../arm-none-eabi/lib/armv7-m/libc.a(lib_a-strstr.o)
 .text          0x0000000000000000        0x0 /Users/imac/Develop/stm32f4/arm_gcc/gcc-arm-none-eabi-4_7-2013q3/bin/../lib/gcc/arm-none-eabi/4.7.4/../../../../arm-none-eabi/lib/armv7-m/libc.a(lib_a-strtok.o)
 .data          0x0000000000000000        0x0 /Users/imac/Develop/stm32f4/arm_gcc/gcc-arm-none-eabi-4_7-2013q3/bin/../lib/gcc/arm-none-eabi/4.7.4/../../../../arm-none-eabi/lib/armv7-m/libc.a(lib_a-strtok.o)
 .bss           0x0000000000000000        0x0 /Users/imac/Develop/stm32f4/arm_gcc/gcc-arm-none-eabi-4_7-2013q3/bin/../lib/gcc/arm-none-eabi/4.7.4/../../../../arm-none-eabi/lib/armv7-m/libc.a(lib_a-strtok.o)
 .text          0x0000000000000000        0x0 /Users/imac/Develop/stm32f4/arm_gcc/gcc-arm-none-eabi-4_7-2013q3/bin/../lib/gcc/arm-none-eabi/4.7.4/../../../../arm-none-eabi/lib/armv7-m/libc.a(lib_a-strtok_r.o)
 .data          0x0000000000000000        0x0 /Users/imac/Develop/stm32f4/arm_gcc/gcc-arm-none-eabi-4_7-2013q3/bin/../lib/gcc/arm-none-eabi/4.7.4/../../../../arm-none-eabi/lib/armv7-m/libc.a(lib_a-strtok_r.o)
 .bss           0x0000000000000000        0x0 /Users/imac/Develop/stm32f4/arm_gcc/gcc-arm-none-eabi-4_7-2013q3/bin/../lib/gcc/arm-none-eabi/4.7.4/../../../../arm-none-eabi/lib/armv7-m/libc.a(lib_a-strtok_r.o)
 .text.strtok_r
                0x0000000000000000        0x8 /Users/imac/Develop/stm32f4/arm_gcc/gcc-arm-none-eabi-4_7-2013q3/bin/../lib/gcc/arm-none-eabi/4.7.4/../../../../arm-none-eabi/lib/armv7-m/libc.a(lib_a-strtok_r.o)
 .text          0x0000000000000000        0x0 /Users/imac/Develop/stm32f4/arm_gcc/gcc-arm-none-eabi-4_7-2013q3/bin/../lib/gcc/arm-none-eabi/4.7.4/../../../../arm-none-eabi/lib/armv7-m/libc.a(lib_a-strtol.o)
 .data          0x0000000000000000        0x0 /Users/imac/Develop/stm32f4/arm_gcc/gcc-arm-none-eabi-4_7-2013q3/bin/../lib/gcc/arm-none-eabi/4.7.4/../../../../arm-none-eabi/lib/armv7-m/libc.a(lib_a-strtol.o)
 .bss           0x0000000000000000        0x0 /Users/imac/Develop/stm32f4/arm_gcc/gcc-arm-none-eabi-4_7-2013q3/bin/../lib/gcc/arm-none-eabi/4.7.4/../../../../arm-none-eabi/lib/armv7-m/libc.a(lib_a-strtol.o)
 .text          0x0000000000000000        0x0 /Users/imac/Develop/stm32f4/arm_gcc/gcc-arm-none-eabi-4_7-2013q3/bin/../lib/gcc/arm-none-eabi/4.7.4/../../../../arm-none-eabi/lib/armv7-m/libc.a(lib_a-__call_atexit.o)
 .data          0x0000000000000000        0x0 /Users/imac/Develop/stm32f4/arm_gcc/gcc-arm-none-eabi-4_7-2013q3/bin/../lib/gcc/arm-none-eabi/4.7.4/../../../../arm-none-eabi/lib/armv7-m/libc.a(lib_a-__call_atexit.o)
 .bss           0x0000000000000000        0x0 /Users/imac/Develop/stm32f4/arm_gcc/gcc-arm-none-eabi-4_7-2013q3/bin/../lib/gcc/arm-none-eabi/4.7.4/../../../../arm-none-eabi/lib/armv7-m/libc.a(lib_a-__call_atexit.o)
 .text.__call_exitprocs
                0x0000000000000000      0x288 /Users/imac/Develop/stm32f4/arm_gcc/gcc-arm-none-eabi-4_7-2013q3/bin/../lib/gcc/arm-none-eabi/4.7.4/../../../../arm-none-eabi/lib/armv7-m/libc.a(lib_a-__call_atexit.o)
 .text          0x0000000000000000        0x0 /Users/imac/Develop/stm32f4/arm_gcc/gcc-arm-none-eabi-4_7-2013q3/bin/../lib/gcc/arm-none-eabi/4.7.4/../../../../arm-none-eabi/lib/armv7-m/libc.a(lib_a-atexit.o)
 .data          0x0000000000000000        0x0 /Users/imac/Develop/stm32f4/arm_gcc/gcc-arm-none-eabi-4_7-2013q3/bin/../lib/gcc/arm-none-eabi/4.7.4/../../../../arm-none-eabi/lib/armv7-m/libc.a(lib_a-atexit.o)
 .bss           0x0000000000000000        0x0 /Users/imac/Develop/stm32f4/arm_gcc/gcc-arm-none-eabi-4_7-2013q3/bin/../lib/gcc/arm-none-eabi/4.7.4/../../../../arm-none-eabi/lib/armv7-m/libc.a(lib_a-atexit.o)
 .text          0x0000000000000000        0x0 /Users/imac/Develop/stm32f4/arm_gcc/gcc-arm-none-eabi-4_7-2013q3/bin/../lib/gcc/arm-none-eabi/4.7.4/../../../../arm-none-eabi/lib/armv7-m/libc.a(lib_a-memchr.o)
 .data          0x0000000000000000        0x0 /Users/imac/Develop/stm32f4/arm_gcc/gcc-arm-none-eabi-4_7-2013q3/bin/../lib/gcc/arm-none-eabi/4.7.4/../../../../arm-none-eabi/lib/armv7-m/libc.a(lib_a-memchr.o)
 .bss           0x0000000000000000        0x0 /Users/imac/Develop/stm32f4/arm_gcc/gcc-arm-none-eabi-4_7-2013q3/bin/../lib/gcc/arm-none-eabi/4.7.4/../../../../arm-none-eabi/lib/armv7-m/libc.a(lib_a-memchr.o)
 .text          0x0000000000000000        0x0 /Users/imac/Develop/stm32f4/arm_gcc/gcc-arm-none-eabi-4_7-2013q3/bin/../lib/gcc/arm-none-eabi/4.7.4/../../../../arm-none-eabi/lib/armv7-m/libc.a(lib_a-memcmp.o)
 .data          0x0000000000000000        0x0 /Users/imac/Develop/stm32f4/arm_gcc/gcc-arm-none-eabi-4_7-2013q3/bin/../lib/gcc/arm-none-eabi/4.7.4/../../../../arm-none-eabi/lib/armv7-m/libc.a(lib_a-memcmp.o)
 .bss           0x0000000000000000        0x0 /Users/imac/Develop/stm32f4/arm_gcc/gcc-arm-none-eabi-4_7-2013q3/bin/../lib/gcc/arm-none-eabi/4.7.4/../../../../arm-none-eabi/lib/armv7-m/libc.a(lib_a-memcmp.o)
 .text          0x0000000000000000        0x0 /Users/imac/Develop/stm32f4/arm_gcc/gcc-arm-none-eabi-4_7-2013q3/bin/../lib/gcc/arm-none-eabi/4.7.4/armv7-m/crtend.o
 .data          0x0000000000000000        0x0 /Users/imac/Develop/stm32f4/arm_gcc/gcc-arm-none-eabi-4_7-2013q3/bin/../lib/gcc/arm-none-eabi/4.7.4/armv7-m/crtend.o
 .bss           0x0000000000000000        0x0 /Users/imac/Develop/stm32f4/arm_gcc/gcc-arm-none-eabi-4_7-2013q3/bin/../lib/gcc/arm-none-eabi/4.7.4/armv7-m/crtend.o
 .eh_frame      0x0000000000000000        0x4 /Users/imac/Develop/stm32f4/arm_gcc/gcc-arm-none-eabi-4_7-2013q3/bin/../lib/gcc/arm-none-eabi/4.7.4/armv7-m/crtend.o
 .jcr           0x0000000000000000        0x4 /Users/imac/Develop/stm32f4/arm_gcc/gcc-arm-none-eabi-4_7-2013q3/bin/../lib/gcc/arm-none-eabi/4.7.4/armv7-m/crtend.o
 .ARM.attributes
                0x0000000000000000       0x2d /Users/imac/Develop/stm32f4/arm_gcc/gcc-arm-none-eabi-4_7-2013q3/bin/../lib/gcc/arm-none-eabi/4.7.4/armv7-m/crtend.o
 .text          0x0000000000000000        0x0 /Users/imac/Develop/stm32f4/arm_gcc/gcc-arm-none-eabi-4_7-2013q3/bin/../lib/gcc/arm-none-eabi/4.7.4/armv7-m/crtn.o
 .data          0x0000000000000000        0x0 /Users/imac/Develop/stm32f4/arm_gcc/gcc-arm-none-eabi-4_7-2013q3/bin/../lib/gcc/arm-none-eabi/4.7.4/armv7-m/crtn.o
 .bss           0x0000000000000000        0x0 /Users/imac/Develop/stm32f4/arm_gcc/gcc-arm-none-eabi-4_7-2013q3/bin/../lib/gcc/arm-none-eabi/4.7.4/armv7-m/crtn.o

Memory Configuration

Name             Origin             Length             Attributes
FLASH            0x0000000008003000 0x000000000001cc00 xr
RAM              0x0000000020000000 0x0000000000005000 xrw
MEMORY_B1        0x0000000060000000 0x0000000000000000 xr
*default*        0x0000000000000000 0xffffffffffffffff

Linker script and memory map

LOAD /Users/imac/Develop/stm32f4/arm_gcc/gcc-arm-none-eabi-4_7-2013q3/bin/../lib/gcc/arm-none-eabi/4.7.4/armv7-m/crti.o
LOAD /Users/imac/Develop/stm32f4/arm_gcc/gcc-arm-none-eabi-4_7-2013q3/bin/../lib/gcc/arm-none-eabi/4.7.4/armv7-m/crtbegin.o
LOAD /Users/imac/Develop/stm32f4/arm_gcc/gcc-arm-none-eabi-4_7-2013q3/bin/../lib/gcc/arm-none-eabi/4.7.4/../../../../arm-none-eabi/lib/armv7-m/crt0.o
LOAD obj/SKYROVER/drv_adc.o
LOAD obj/SKYROVER/drv_adxl345.o
LOAD obj/SKYROVER/drv_bma280.o
LOAD obj/SKYROVER/drv_bmp085.o
LOAD obj/SKYROVER/drv_ms5611.o
LOAD obj/SKYROVER/drv_hcsr04.o
LOAD obj/SKYROVER/drv_hmc5883l.o
LOAD obj/SKYROVER/drv_ledring.o
LOAD obj/SKYROVER/drv_mma845x.o
LOAD obj/SKYROVER/drv_mpu3050.o
LOAD obj/SKYROVER/drv_mpu6050.o
LOAD obj/SKYROVER/drv_l3g4200d.o
LOAD obj/SKYROVER/drv_pwm.o
LOAD obj/SKYROVER/drv_spi.o
LOAD obj/SKYROVER/drv_timer.o
LOAD obj/SKYROVER/hexairbot.o
LOAD obj/SKYROVER/startup_stm32f10x_md_gcc.o
LOAD obj/SKYROVER/buzzer.o
LOAD obj/SKYROVER/cli.o
LOAD obj/SKYROVER/config.o
LOAD obj/SKYROVER/gps.o
LOAD obj/SKYROVER/imu.o
LOAD obj/SKYROVER/main.o
LOAD obj/SKYROVER/mixer.o
LOAD obj/SKYROVER/mw.o
LOAD obj/SKYROVER/sensors.o
LOAD obj/SKYROVER/serial.o
LOAD obj/SKYROVER/sbus.o
LOAD obj/SKYROVER/sumd.o
LOAD obj/SKYROVER/spektrum.o
LOAD obj/SKYROVER/telemetry.o
LOAD obj/SKYROVER/drv_gpio.o
LOAD obj/SKYROVER/drv_i2c.o
LOAD obj/SKYROVER/drv_i2c_soft.o
LOAD obj/SKYROVER/drv_system.o
LOAD obj/SKYROVER/drv_serial.o
LOAD obj/SKYROVER/drv_softserial.o
LOAD obj/SKYROVER/drv_uart.o
LOAD obj/SKYROVER/printf.o
LOAD obj/SKYROVER/utils.o
LOAD obj/SKYROVER/core_cm3.o
LOAD obj/SKYROVER/system_stm32f10x.o
LOAD obj/SKYROVER/misc.o
LOAD obj/SKYROVER/stm32f10x_adc.o
LOAD obj/SKYROVER/stm32f10x_bkp.o
LOAD obj/SKYROVER/stm32f10x_can.o
LOAD obj/SKYROVER/stm32f10x_cec.o
LOAD obj/SKYROVER/stm32f10x_crc.o
LOAD obj/SKYROVER/stm32f10x_dac.o
LOAD obj/SKYROVER/stm32f10x_dbgmcu.o
LOAD obj/SKYROVER/stm32f10x_dma.o
LOAD obj/SKYROVER/stm32f10x_exti.o
LOAD obj/SKYROVER/stm32f10x_flash.o
LOAD obj/SKYROVER/stm32f10x_fsmc.o
LOAD obj/SKYROVER/stm32f10x_gpio.o
LOAD obj/SKYROVER/stm32f10x_i2c.o
LOAD obj/SKYROVER/stm32f10x_iwdg.o
LOAD obj/SKYROVER/stm32f10x_pwr.o
LOAD obj/SKYROVER/stm32f10x_rcc.o
LOAD obj/SKYROVER/stm32f10x_rtc.o
LOAD obj/SKYROVER/stm32f10x_sdio.o
LOAD obj/SKYROVER/stm32f10x_spi.o
LOAD obj/SKYROVER/stm32f10x_tim.o
LOAD obj/SKYROVER/stm32f10x_usart.o
LOAD obj/SKYROVER/stm32f10x_wwdg.o
LOAD /Users/imac/Develop/stm32f4/arm_gcc/gcc-arm-none-eabi-4_7-2013q3/bin/../lib/gcc/arm-none-eabi/4.7.4/../../../../arm-none-eabi/lib/armv7-m/libm.a
START GROUP
LOAD /Users/imac/Develop/stm32f4/arm_gcc/gcc-arm-none-eabi-4_7-2013q3/bin/../lib/gcc/arm-none-eabi/4.7.4/armv7-m/libgcc.a
LOAD /Users/imac/Develop/stm32f4/arm_gcc/gcc-arm-none-eabi-4_7-2013q3/bin/../lib/gcc/arm-none-eabi/4.7.4/../../../../arm-none-eabi/lib/armv7-m/libc.a
END GROUP
LOAD /Users/imac/Develop/stm32f4/arm_gcc/gcc-arm-none-eabi-4_7-2013q3/bin/../lib/gcc/arm-none-eabi/4.7.4/armv7-m/crtend.o
LOAD /Users/imac/Develop/stm32f4/arm_gcc/gcc-arm-none-eabi-4_7-2013q3/bin/../lib/gcc/arm-none-eabi/4.7.4/armv7-m/crtn.o
                0x0000000020005000                _estack = 0x20005000
                0x0000000000000000                _Min_Heap_Size = 0x0
                0x0000000000000400                _Min_Stack_Size = 0x400

.isr_vector     0x0000000008003000      0x10c
                0x0000000008003000                . = ALIGN (0x4)
 *(.isr_vector)
 .isr_vector    0x0000000008003000      0x10c obj/SKYROVER/startup_stm32f10x_md_gcc.o
                0x0000000008003000                g_pfnVectors
                0x000000000800310c                . = ALIGN (0x4)

.text           0x0000000008003110    0x12714
                0x0000000008003110                . = ALIGN (0x4)
 *(.text)
 .text          0x0000000008003110       0x54 /Users/imac/Develop/stm32f4/arm_gcc/gcc-arm-none-eabi-4_7-2013q3/bin/../lib/gcc/arm-none-eabi/4.7.4/armv7-m/crtbegin.o
 .text          0x0000000008003164      0x370 /Users/imac/Develop/stm32f4/arm_gcc/gcc-arm-none-eabi-4_7-2013q3/bin/../lib/gcc/arm-none-eabi/4.7.4/armv7-m/libgcc.a(_arm_addsubdf3.o)
                0x0000000008003164                __aeabi_drsub
                0x000000000800316c                __subdf3
                0x000000000800316c                __aeabi_dsub
                0x0000000008003170                __aeabi_dadd
                0x0000000008003170                __adddf3
                0x00000000080033e8                __aeabi_ui2d
                0x00000000080033e8                __floatunsidf
                0x0000000008003408                __floatsidf
                0x0000000008003408                __aeabi_i2d
                0x000000000800342c                __extendsfdf2
                0x000000000800342c                __aeabi_f2d
                0x0000000008003468                __aeabi_ul2d
                0x0000000008003468                __floatundidf
                0x0000000008003478                __aeabi_l2d
                0x0000000008003478                __floatdidf
 .text          0x00000000080034d4      0x424 /Users/imac/Develop/stm32f4/arm_gcc/gcc-arm-none-eabi-4_7-2013q3/bin/../lib/gcc/arm-none-eabi/4.7.4/armv7-m/libgcc.a(_arm_muldivdf3.o)
                0x00000000080034d4                __aeabi_dmul
                0x00000000080034d4                __muldf3
                0x0000000008003728                __aeabi_ddiv
                0x0000000008003728                __divdf3
 .text          0x00000000080038f8      0x110 /Users/imac/Develop/stm32f4/arm_gcc/gcc-arm-none-eabi-4_7-2013q3/bin/../lib/gcc/arm-none-eabi/4.7.4/armv7-m/libgcc.a(_arm_cmpdf2.o)
                0x00000000080038f8                __gtdf2
                0x00000000080038f8                __gedf2
                0x0000000008003900                __ltdf2
                0x0000000008003900                __ledf2
                0x0000000008003908                __eqdf2
                0x0000000008003908                __nedf2
                0x0000000008003908                __cmpdf2
                0x0000000008003984                __aeabi_cdrcmple
                0x0000000008003994                __aeabi_cdcmple
                0x0000000008003994                __aeabi_cdcmpeq
                0x00000000080039a4                __aeabi_dcmpeq
                0x00000000080039b8                __aeabi_dcmplt
                0x00000000080039cc                __aeabi_dcmple
                0x00000000080039e0                __aeabi_dcmpge
                0x00000000080039f4                __aeabi_dcmpgt
 .text          0x0000000008003a08       0xa0 /Users/imac/Develop/stm32f4/arm_gcc/gcc-arm-none-eabi-4_7-2013q3/bin/../lib/gcc/arm-none-eabi/4.7.4/armv7-m/libgcc.a(_arm_truncdfsf2.o)
                0x0000000008003a08                __aeabi_d2f
                0x0000000008003a08                __truncdfsf2
 .text          0x0000000008003aa8      0x21c /Users/imac/Develop/stm32f4/arm_gcc/gcc-arm-none-eabi-4_7-2013q3/bin/../lib/gcc/arm-none-eabi/4.7.4/armv7-m/libgcc.a(_arm_addsubsf3.o)
                0x0000000008003aa8                __aeabi_frsub
                0x0000000008003ab0                __aeabi_fsub
                0x0000000008003ab0                __subsf3
                0x0000000008003ab4                __aeabi_fadd
                0x0000000008003ab4                __addsf3
                0x0000000008003c14                __aeabi_ui2f
                0x0000000008003c14                __floatunsisf
                0x0000000008003c1c                __floatsisf
                0x0000000008003c1c                __aeabi_i2f
                0x0000000008003c38                __aeabi_ul2f
                0x0000000008003c38                __floatundisf
                0x0000000008003c48                __aeabi_l2f
                0x0000000008003c48                __floatdisf
 .text          0x0000000008003cc4      0x2a0 /Users/imac/Develop/stm32f4/arm_gcc/gcc-arm-none-eabi-4_7-2013q3/bin/../lib/gcc/arm-none-eabi/4.7.4/armv7-m/libgcc.a(_arm_muldivsf3.o)
                0x0000000008003cc4                __mulsf3
                0x0000000008003cc4                __aeabi_fmul
                0x0000000008003e2c                __divsf3
                0x0000000008003e2c                __aeabi_fdiv
 .text          0x0000000008003f64       0xec /Users/imac/Develop/stm32f4/arm_gcc/gcc-arm-none-eabi-4_7-2013q3/bin/../lib/gcc/arm-none-eabi/4.7.4/armv7-m/libgcc.a(_arm_cmpsf2.o)
                0x0000000008003f64                __gesf2
                0x0000000008003f64                __gtsf2
                0x0000000008003f6c                __ltsf2
                0x0000000008003f6c                __lesf2
                0x0000000008003f74                __nesf2
                0x0000000008003f74                __eqsf2
                0x0000000008003f74                __cmpsf2
                0x0000000008003fd4                __aeabi_cfrcmple
                0x0000000008003fdc                __aeabi_cfcmpeq
                0x0000000008003fdc                __aeabi_cfcmple
                0x0000000008003fec                __aeabi_fcmpeq
                0x0000000008004000                __aeabi_fcmplt
                0x0000000008004014                __aeabi_fcmple
                0x0000000008004028                __aeabi_fcmpge
                0x000000000800403c                __aeabi_fcmpgt
 .text          0x0000000008004050       0x4c /Users/imac/Develop/stm32f4/arm_gcc/gcc-arm-none-eabi-4_7-2013q3/bin/../lib/gcc/arm-none-eabi/4.7.4/armv7-m/libgcc.a(_arm_fixsfsi.o)
                0x0000000008004050                __fixsfsi
                0x0000000008004050                __aeabi_f2iz
 .text          0x000000000800409c       0x40 /Users/imac/Develop/stm32f4/arm_gcc/gcc-arm-none-eabi-4_7-2013q3/bin/../lib/gcc/arm-none-eabi/4.7.4/armv7-m/libgcc.a(_arm_fixunssfsi.o)
                0x000000000800409c                __aeabi_f2uiz
                0x000000000800409c                __fixunssfsi
 *(.text*)
 .text.adcInit  0x00000000080040dc       0xec obj/SKYROVER/drv_adc.o
                0x00000000080040dc                adcInit
 .text.adcGetChannel
                0x00000000080041c8       0x10 obj/SKYROVER/drv_adc.o
                0x00000000080041c8                adcGetChannel
 .text.adxl345Read
                0x00000000080041d8       0xe0 obj/SKYROVER/drv_adxl345.o
 .text.adxl345Init
                0x00000000080042b8       0x64 obj/SKYROVER/drv_adxl345.o
 .text.adxl345Detect
                0x000000000800431c       0x58 obj/SKYROVER/drv_adxl345.o
                0x000000000800431c                adxl345Detect
 .text.bma280Read
                0x0000000008004374       0x58 obj/SKYROVER/drv_bma280.o
 .text.bma280Init
                0x00000000080043cc       0x30 obj/SKYROVER/drv_bma280.o
 .text.bma280Detect
                0x00000000080043fc       0x38 obj/SKYROVER/drv_bma280.o
                0x00000000080043fc                bma280Detect
 .text.bmp085_calculate
                0x0000000008004434       0xe0 obj/SKYROVER/drv_bmp085.o
 .text.bmp085_get_up
                0x0000000008004514       0x54 obj/SKYROVER/drv_bmp085.o
 .text.bmp085_get_ut
                0x0000000008004568       0x3c obj/SKYROVER/drv_bmp085.o
 .text.bmp085_start_up
                0x00000000080045a4       0x24 obj/SKYROVER/drv_bmp085.o
 .text.bmp085_start_ut
                0x00000000080045c8       0x14 obj/SKYROVER/drv_bmp085.o
 .text.EXTI15_10_IRQHandler
                0x00000000080045dc       0x24 obj/SKYROVER/drv_bmp085.o
                0x00000000080045dc                EXTI15_10_IRQHandler
 .text.bmp085Detect
                0x0000000008004600      0x1dc obj/SKYROVER/drv_bmp085.o
                0x0000000008004600                bmp085Detect
 .text.ms5611_calculate
                0x00000000080047dc      0x150 obj/SKYROVER/drv_ms5611.o
 .text.ms5611_read_adc
                0x000000000800492c       0x24 obj/SKYROVER/drv_ms5611.o
 .text.ms5611_get_up
                0x0000000008004950       0x10 obj/SKYROVER/drv_ms5611.o
 .text.ms5611_get_ut
                0x0000000008004960       0x10 obj/SKYROVER/drv_ms5611.o
 .text.ms5611_start_up
                0x0000000008004970        0xa obj/SKYROVER/drv_ms5611.o
 .text.ms5611_start_ut
                0x000000000800497a        0xa obj/SKYROVER/drv_ms5611.o
 .text.ms5611Detect
                0x0000000008004984      0x13c obj/SKYROVER/drv_ms5611.o
                0x0000000008004984                ms5611Detect
 .text.hmc5883lDetect
                0x0000000008004ac0       0x34 obj/SKYROVER/drv_hmc5883l.o
                0x0000000008004ac0                hmc5883lDetect
 .text.hmc5883lRead
                0x0000000008004af4       0x8c obj/SKYROVER/drv_hmc5883l.o
                0x0000000008004af4                hmc5883lRead
 .text.hmc5883lInit
                0x0000000008004b80      0x1b4 obj/SKYROVER/drv_hmc5883l.o
                0x0000000008004b80                hmc5883lInit
 .text.mma8452Read
                0x0000000008004d34       0x6c obj/SKYROVER/drv_mma845x.o
 .text.mma8452Init
                0x0000000008004da0       0x8c obj/SKYROVER/drv_mma845x.o
 .text.mma8452Detect
                0x0000000008004e2c       0x5c obj/SKYROVER/drv_mma845x.o
                0x0000000008004e2c                mma8452Detect
 .text.mpu3050ReadTemp
                0x0000000008004e88       0x30 obj/SKYROVER/drv_mpu3050.o
 .text.mpu3050Read
                0x0000000008004eb8       0x68 obj/SKYROVER/drv_mpu3050.o
 .text.mpu3050Init
                0x0000000008004f20       0x5c obj/SKYROVER/drv_mpu3050.o
 .text.mpu3050Detect
                0x0000000008004f7c       0x78 obj/SKYROVER/drv_mpu3050.o
                0x0000000008004f7c                mpu3050Detect
 .text.mpu6050AccInit
                0x0000000008004ff4       0x28 obj/SKYROVER/drv_mpu6050.o
 .text.mpu6050GyroRead
                0x000000000800501c       0x68 obj/SKYROVER/drv_mpu6050.o
 .text.mpu6050AccRead
                0x0000000008005084       0x54 obj/SKYROVER/drv_mpu6050.o
 .text.mpu6050GyroInit
                0x00000000080050d8       0xa8 obj/SKYROVER/drv_mpu6050.o
 .text.mpu6050Detect
                0x0000000008005180      0x128 obj/SKYROVER/drv_mpu6050.o
                0x0000000008005180                mpu6050Detect
 .text.l3g4200dRead
                0x00000000080052a8       0x68 obj/SKYROVER/drv_l3g4200d.o
 .text.l3g4200dInit
                0x0000000008005310       0x44 obj/SKYROVER/drv_l3g4200d.o
 .text.l3g4200dDetect
                0x0000000008005354       0x64 obj/SKYROVER/drv_l3g4200d.o
                0x0000000008005354                l3g4200dDetect
 .text.pwmWriteBrushed
                0x00000000080053b8       0x24 obj/SKYROVER/drv_pwm.o
 .text.pwmWriteStandard
                0x00000000080053dc       0x10 obj/SKYROVER/drv_pwm.o
 .text.pwmOutConfig
                0x00000000080053ec      0x134 obj/SKYROVER/drv_pwm.o
 .text.ppmCallback
                0x0000000008005520       0x8c obj/SKYROVER/drv_pwm.o
 .text.pwmICConfig
                0x00000000080055ac       0x30 obj/SKYROVER/drv_pwm.o
                0x00000000080055ac                pwmICConfig
 .text.pwmInConfig
                0x00000000080055dc       0x64 obj/SKYROVER/drv_pwm.o
 .text.pwmCallback
                0x0000000008005640       0x60 obj/SKYROVER/drv_pwm.o
 .text.pwmInit  0x00000000080056a0      0x160 obj/SKYROVER/drv_pwm.o
                0x00000000080056a0                pwmInit
 .text.pwmWriteMotor
                0x0000000008005800       0x1c obj/SKYROVER/drv_pwm.o
                0x0000000008005800                pwmWriteMotor
 .text.pwmWriteServo
                0x000000000800581c       0x1c obj/SKYROVER/drv_pwm.o
                0x000000000800581c                pwmWriteServo
 .text.pwmRead  0x0000000008005838        0xc obj/SKYROVER/drv_pwm.o
                0x0000000008005838                pwmRead
 .text.spiTransfer
                0x0000000008005844       0x54 obj/SKYROVER/drv_spi.o
                0x0000000008005844                spiTransfer
 .text.spiInit  0x0000000008005898       0xf8 obj/SKYROVER/drv_spi.o
                0x0000000008005898                spiInit
 .text.configureTimerChannelCallback
                0x0000000008005990       0x4c obj/SKYROVER/drv_timer.o
                0x0000000008005990                configureTimerChannelCallback
 .text.configureTimerInputCaptureCompareChannel
                0x00000000080059dc       0x2c obj/SKYROVER/drv_timer.o
                0x00000000080059dc                configureTimerInputCaptureCompareChannel
 .text.configureTimerCaptureCompareInterrupt
                0x0000000008005a08       0x1e obj/SKYROVER/drv_timer.o
                0x0000000008005a08                configureTimerCaptureCompareInterrupt
 .text.timerNVICConfig
                0x0000000008005a26       0x1e obj/SKYROVER/drv_timer.o
                0x0000000008005a26                timerNVICConfig
 .text.configTimeBase
                0x0000000008005a44       0x44 obj/SKYROVER/drv_timer.o
                0x0000000008005a44                configTimeBase
 .text.timerInConfig
                0x0000000008005a88       0x1c obj/SKYROVER/drv_timer.o
                0x0000000008005a88                timerInConfig
 .text.findTimerConfig
                0x0000000008005aa4       0x40 obj/SKYROVER/drv_timer.o
                0x0000000008005aa4                findTimerConfig
 .text.timCCxHandler
                0x0000000008005ae4       0x9e obj/SKYROVER/drv_timer.o
 *fill*         0x0000000008005b82        0x2 00
 .text.TIM1_CC_IRQHandler
                0x0000000008005b84        0xc obj/SKYROVER/drv_timer.o
                0x0000000008005b84                TIM1_CC_IRQHandler
 .text.TIM2_IRQHandler
                0x0000000008005b90        0x8 obj/SKYROVER/drv_timer.o
                0x0000000008005b90                TIM2_IRQHandler
 .text.TIM3_IRQHandler
                0x0000000008005b98        0xc obj/SKYROVER/drv_timer.o
                0x0000000008005b98                TIM3_IRQHandler
 .text.TIM4_IRQHandler
                0x0000000008005ba4        0xc obj/SKYROVER/drv_timer.o
                0x0000000008005ba4                TIM4_IRQHandler
 .text.hexairbotReadRawRC
                0x0000000008005bb0        0xc obj/SKYROVER/hexairbot.o
 .text.hexairbotInit
                0x0000000008005bbc       0x18 obj/SKYROVER/hexairbot.o
                0x0000000008005bbc                hexairbotInit
 .text.hexairbotSetData
                0x0000000008005bd4       0x1c obj/SKYROVER/hexairbot.o
                0x0000000008005bd4                hexairbotSetData
 .text.hexairbotFrameComplete
                0x0000000008005bf0       0x14 obj/SKYROVER/hexairbot.o
                0x0000000008005bf0                hexairbotFrameComplete
 .text.Reset_Handler
                0x0000000008005c04       0xb0 obj/SKYROVER/startup_stm32f10x_md_gcc.o
                0x0000000008005c04                Reset_Handler
 .text.Default_Handler
                0x0000000008005cb4        0x4 obj/SKYROVER/startup_stm32f10x_md_gcc.o
                0x0000000008005cb4                USBWakeUp_IRQHandler
                0x0000000008005cb4                DebugMon_Handler
                0x0000000008005cb4                PVD_IRQHandler
                0x0000000008005cb4                PendSV_Handler
                0x0000000008005cb4                NMI_Handler
                0x0000000008005cb4                EXTI3_IRQHandler
                0x0000000008005cb4                EXTI0_IRQHandler
                0x0000000008005cb4                UsageFault_Handler
                0x0000000008005cb4                ADC1_2_IRQHandler
                0x0000000008005cb4                SPI1_IRQHandler
                0x0000000008005cb4                TAMPER_IRQHandler
                0x0000000008005cb4                USART3_IRQHandler
                0x0000000008005cb4                RTC_IRQHandler
                0x0000000008005cb4                DMA1_Channel7_IRQHandler
                0x0000000008005cb4                CAN1_RX1_IRQHandler
                0x0000000008005cb4                DMA1_Channel6_IRQHandler
                0x0000000008005cb4                RCC_IRQHandler
                0x0000000008005cb4                TIM1_TRG_COM_IRQHandler
                0x0000000008005cb4                DMA1_Channel1_IRQHandler
                0x0000000008005cb4                Default_Handler
                0x0000000008005cb4                EXTI9_5_IRQHandler
                0x0000000008005cb4                SPI2_IRQHandler
                0x0000000008005cb4                MemManage_Handler
                0x0000000008005cb4                SVC_Handler
                0x0000000008005cb4                DMA1_Channel5_IRQHandler
                0x0000000008005cb4                EXTI4_IRQHandler
                0x0000000008005cb4                USB_LP_CAN1_RX0_IRQHandler
                0x0000000008005cb4                USB_HP_CAN1_TX_IRQHandler
                0x0000000008005cb4                DMA1_Channel3_IRQHandler
                0x0000000008005cb4                TIM1_UP_IRQHandler
                0x0000000008005cb4                WWDG_IRQHandler
                0x0000000008005cb4                TIM1_BRK_IRQHandler
                0x0000000008005cb4                EXTI1_IRQHandler
                0x0000000008005cb4                RTCAlarm_IRQHandler
                0x0000000008005cb4                DMA1_Channel2_IRQHandler
                0x0000000008005cb4                CAN1_SCE_IRQHandler
                0x0000000008005cb4                FLASH_IRQHandler
                0x0000000008005cb4                BusFault_Handler
                0x0000000008005cb4                EXTI2_IRQHandler
 .text.beep     0x0000000008005cb8       0x70 obj/SKYROVER/buzzer.o
 .text.beep_code
                0x0000000008005d28       0xa8 obj/SKYROVER/buzzer.o
 .text.buzzer   0x0000000008005dd0      0x120 obj/SKYROVER/buzzer.o
                0x0000000008005dd0                buzzer
 .text.i2a      0x0000000008005ef0       0x28 obj/SKYROVER/cli.o
 .text._atof    0x0000000008005f18      0x12c obj/SKYROVER/cli.o
 .text.cliPrint
                0x0000000008006044       0x1c obj/SKYROVER/cli.o
 .text.cliVersion
                0x0000000008006060        0xc obj/SKYROVER/cli.o
 .text.cliHelp  0x000000000800606c       0x2c obj/SKYROVER/cli.o
 .text.cliStatus
                0x0000000008006098       0xe4 obj/SKYROVER/cli.o
 .text.cliCompare
                0x000000000800617c       0x1a obj/SKYROVER/cli.o
 *fill*         0x0000000008006196        0x2 00
 .text.cliSave  0x0000000008006198       0x30 obj/SKYROVER/cli.o
 .text.cliMap   0x00000000080061c8       0xa0 obj/SKYROVER/cli.o
 .text.cliGpsPassthrough
                0x0000000008006268       0x20 obj/SKYROVER/cli.o
 .text.cliFeature
                0x0000000008006288       0xec obj/SKYROVER/cli.o
 .text.cliExit  0x0000000008006374       0x38 obj/SKYROVER/cli.o
 .text.cliDefaults
                0x00000000080063ac       0x2c obj/SKYROVER/cli.o
 .text.cliMixer
                0x00000000080063d8       0xa0 obj/SKYROVER/cli.o
 .text.cliProfile
                0x0000000008006478       0x4c obj/SKYROVER/cli.o
 .text.cliMotor
                0x00000000080064c4       0xa8 obj/SKYROVER/cli.o
 .text.cliAux   0x000000000800656c       0x60 obj/SKYROVER/cli.o
 .text.itoa     0x00000000080065cc       0x24 obj/SKYROVER/cli.o
                0x00000000080065cc                itoa
 .text.ftoa     0x00000000080065f0       0xd0 obj/SKYROVER/cli.o
 .text.cliPrintVar
                0x00000000080066c0       0x9c obj/SKYROVER/cli.o
 .text.cliSet   0x000000000800675c      0x154 obj/SKYROVER/cli.o
 .text.cliDump  0x00000000080068b0      0x1b4 obj/SKYROVER/cli.o
 .text.cliCMix  0x0000000008006a64      0x244 obj/SKYROVER/cli.o
 .text.cliProcess
                0x0000000008006ca8      0x1e0 obj/SKYROVER/cli.o
                0x0000000008006ca8                cliProcess
 .text.validEEPROM
                0x0000000008006e88       0x44 obj/SKYROVER/config.o
 .text.parseRcChannels
                0x0000000008006ecc       0x30 obj/SKYROVER/config.o
                0x0000000008006ecc                parseRcChannels
 .text.readEEPROM
                0x0000000008006efc      0x110 obj/SKYROVER/config.o
                0x0000000008006efc                readEEPROM
 .text.writeEEPROM
                0x000000000800700c       0xc8 obj/SKYROVER/config.o
                0x000000000800700c                writeEEPROM
 .text.sensors  0x00000000080070d4       0x14 obj/SKYROVER/config.o
                0x00000000080070d4                sensors
 .text.sensorsSet
                0x00000000080070e8       0x10 obj/SKYROVER/config.o
                0x00000000080070e8                sensorsSet
 .text.sensorsClear
                0x00000000080070f8       0x10 obj/SKYROVER/config.o
                0x00000000080070f8                sensorsClear
 .text.sensorsMask
                0x0000000008007108        0xc obj/SKYROVER/config.o
                0x0000000008007108                sensorsMask
 .text.feature  0x0000000008007114       0x14 obj/SKYROVER/config.o
                0x0000000008007114                feature
 .text.featureSet
                0x0000000008007128       0x10 obj/SKYROVER/config.o
                0x0000000008007128                featureSet
 .text.checkFirstTime
                0x0000000008007138      0x2f0 obj/SKYROVER/config.o
                0x0000000008007138                checkFirstTime
 .text.featureClear
                0x0000000008007428       0x10 obj/SKYROVER/config.o
                0x0000000008007428                featureClear
 .text.featureMask
                0x0000000008007438        0xc obj/SKYROVER/config.o
                0x0000000008007438                featureMask
 .text.GPS_calc_longitude_scaling
                0x0000000008007444       0x3c obj/SKYROVER/gps.o
 .text.gpsSetState
                0x0000000008007480       0x18 obj/SKYROVER/gps.o
 .text.GPS_distance_cm_bearing.isra.1
                0x0000000008007498       0x84 obj/SKYROVER/gps.o
 .text.get_I.isra.2
                0x000000000800751c       0x4e obj/SKYROVER/gps.o
 *fill*         0x000000000800756a        0x2 00
 .text.grab_fields.constprop.6
                0x000000000800756c       0x3c obj/SKYROVER/gps.o
 .text.gpsInitHardware
                0x00000000080075a8       0xd4 obj/SKYROVER/gps.o
                0x00000000080075a8                gpsInitHardware
 .text.gpsThread
                0x000000000800767c       0x78 obj/SKYROVER/gps.o
                0x000000000800767c                gpsThread
 .text.GPS_reset_home_position
                0x00000000080076f4       0x48 obj/SKYROVER/gps.o
                0x00000000080076f4                GPS_reset_home_position
 .text.GPS_reset_nav
                0x000000000800773c       0x5c obj/SKYROVER/gps.o
                0x000000000800773c                GPS_reset_nav
 .text.gpsSetPIDs
                0x0000000008007798       0xa4 obj/SKYROVER/gps.o
                0x0000000008007798                gpsSetPIDs
 .text.gpsInit  0x000000000800783c       0x70 obj/SKYROVER/gps.o
                0x000000000800783c                gpsInit
 .text.gpsSetPassthrough
                0x00000000080078ac       0x78 obj/SKYROVER/gps.o
                0x00000000080078ac                gpsSetPassthrough
 .text.GPS_set_next_wp
                0x0000000008007924       0x88 obj/SKYROVER/gps.o
                0x0000000008007924                GPS_set_next_wp
 .text.wrap_18000
                0x00000000080079ac       0x24 obj/SKYROVER/gps.o
                0x00000000080079ac                wrap_18000
 .text.GPS_coord_to_degrees
                0x00000000080079d0       0xa0 obj/SKYROVER/gps.o
                0x00000000080079d0                GPS_coord_to_degrees
 .text.gpsNewData
                0x0000000008007a70      0xc00 obj/SKYROVER/gps.o
 .text.calculateHeading
                0x0000000008008670       0xf8 obj/SKYROVER/imu.o
 .text.imuInit  0x0000000008008768       0x58 obj/SKYROVER/imu.o
                0x0000000008008768                imuInit
 .text.rotateV  0x00000000080087c0      0x16e obj/SKYROVER/imu.o
                0x00000000080087c0                rotateV
 .text.applyDeadband
                0x000000000800892e       0x1e obj/SKYROVER/imu.o
                0x000000000800892e                applyDeadband
 *fill*         0x000000000800894c        0x4 00
 .text.acc_calc
                0x0000000008008950      0x190 obj/SKYROVER/imu.o
                0x0000000008008950                acc_calc
 .text.computeIMU
                0x0000000008008ae0      0x340 obj/SKYROVER/imu.o
                0x0000000008008ae0                computeIMU
 .text.accSum_reset
                0x0000000008008e20       0x20 obj/SKYROVER/imu.o
                0x0000000008008e20                accSum_reset
 .text.getEstimatedAltitude
                0x0000000008008e40      0x37c obj/SKYROVER/imu.o
                0x0000000008008e40                getEstimatedAltitude
 .text._putc    0x00000000080091bc        0xc obj/SKYROVER/main.o
 .text.startup.main
                0x00000000080091c8      0x28c obj/SKYROVER/main.o
                0x00000000080091c8                main
 .text.HardFault_Handler
                0x0000000008009454       0x14 obj/SKYROVER/main.o
                0x0000000008009454                HardFault_Handler
 .text.servoMiddle
                0x0000000008009468       0x28 obj/SKYROVER/mixer.o
                0x0000000008009468                servoMiddle
 .text.mixerResetMotors
                0x0000000008009490       0x30 obj/SKYROVER/mixer.o
                0x0000000008009490                mixerResetMotors
 .text.mixerInit
                0x00000000080094c0      0x114 obj/SKYROVER/mixer.o
                0x00000000080094c0                mixerInit
 .text.mixerLoadMix
                0x00000000080095d4       0x4c obj/SKYROVER/mixer.o
                0x00000000080095d4                mixerLoadMix
 .text.writeServos
                0x0000000008009620       0xc0 obj/SKYROVER/mixer.o
                0x0000000008009620                writeServos
 .text.writeMotors
                0x00000000080096e0       0x28 obj/SKYROVER/mixer.o
                0x00000000080096e0                writeMotors
 .text.writeAllMotors
                0x0000000008009708       0x24 obj/SKYROVER/mixer.o
                0x0000000008009708                writeAllMotors
 .text.mixTable
                0x000000000800972c      0x644 obj/SKYROVER/mixer.o
                0x000000000800972c                mixTable
 .text.pidMultiWii
                0x0000000008009d70      0x230 obj/SKYROVER/mw.o
 .text.pidRewrite
                0x0000000008009fa0      0x164 obj/SKYROVER/mw.o
 .text.blinkLED
                0x000000000800a104       0x4c obj/SKYROVER/mw.o
                0x000000000800a104                blinkLED
 .text.annexCode
                0x000000000800a150      0x410 obj/SKYROVER/mw.o
                0x000000000800a150                annexCode
 .text.pwmReadRawRC
                0x000000000800a560       0x28 obj/SKYROVER/mw.o
                0x000000000800a560                pwmReadRawRC
 .text.computeRC
                0x000000000800a588       0xa0 obj/SKYROVER/mw.o
                0x000000000800a588                computeRC
 .text.mwArm    0x000000000800a628       0x40 obj/SKYROVER/mw.o
                0x000000000800a628                mwArm
 .text.mwDisarm
                0x000000000800a668       0x10 obj/SKYROVER/mw.o
                0x000000000800a668                mwDisarm
 .text.setPIDController
                0x000000000800a678       0x1c obj/SKYROVER/mw.o
                0x000000000800a678                setPIDController
 .text.loop     0x000000000800a694      0xafc obj/SKYROVER/mw.o
                0x000000000800a694                loop
 .text.sensorsAutodetect
                0x000000000800b190      0x1d8 obj/SKYROVER/sensors.o
                0x000000000800b190                sensorsAutodetect
 .text.batteryAdcToVoltage
                0x000000000800b368       0x3c obj/SKYROVER/sensors.o
                0x000000000800b368                batteryAdcToVoltage
 .text.batteryInit
                0x000000000800b3a4       0x58 obj/SKYROVER/sensors.o
                0x000000000800b3a4                batteryInit
 .text.ACC_getADC
                0x000000000800b3fc      0x1cc obj/SKYROVER/sensors.o
                0x000000000800b3fc                ACC_getADC
 .text.Baro_Common
                0x000000000800b5c8       0x44 obj/SKYROVER/sensors.o
                0x000000000800b5c8                Baro_Common
 .text.Baro_update
                0x000000000800b60c       0x70 obj/SKYROVER/sensors.o
                0x000000000800b60c                Baro_update
 .text.Gyro_getADC
                0x000000000800b67c      0x198 obj/SKYROVER/sensors.o
                0x000000000800b67c                Gyro_getADC
 .text.Mag_init
                0x000000000800b814       0x20 obj/SKYROVER/sensors.o
                0x000000000800b814                Mag_init
 .text.Mag_getADC
                0x000000000800b834      0x120 obj/SKYROVER/sensors.o
                0x000000000800b834                Mag_getADC
 .text.serialize32
                0x000000000800b954       0x6c obj/SKYROVER/serial.o
                0x000000000800b954                serialize32
 .text.serialize16
                0x000000000800b9c0       0x44 obj/SKYROVER/serial.o
                0x000000000800b9c0                serialize16
 .text.serialize8
                0x000000000800ba04       0x20 obj/SKYROVER/serial.o
                0x000000000800ba04                serialize8
 .text.read8    0x000000000800ba24       0x18 obj/SKYROVER/serial.o
                0x000000000800ba24                read8
 .text.read16   0x000000000800ba3c       0x14 obj/SKYROVER/serial.o
                0x000000000800ba3c                read16
 .text.read32   0x000000000800ba50       0x12 obj/SKYROVER/serial.o
                0x000000000800ba50                read32
 *fill*         0x000000000800ba62        0x2 00
 .text.headSerialResponse
                0x000000000800ba64       0x40 obj/SKYROVER/serial.o
                0x000000000800ba64                headSerialResponse
 .text.headSerialReply
                0x000000000800baa4        0x8 obj/SKYROVER/serial.o
                0x000000000800baa4                headSerialReply
 .text.headSerialError
                0x000000000800baac        0x8 obj/SKYROVER/serial.o
                0x000000000800baac                headSerialError
 .text.tailSerialReply
                0x000000000800bab4        0xc obj/SKYROVER/serial.o
                0x000000000800bab4                tailSerialReply
 .text.s_struct
                0x000000000800bac0       0x24 obj/SKYROVER/serial.o
                0x000000000800bac0                s_struct
 .text.serializeNames
                0x000000000800bae4       0x12 obj/SKYROVER/serial.o
                0x000000000800bae4                serializeNames
 *fill*         0x000000000800baf6        0x2 00
 .text.serializeBoxNamesReply
                0x000000000800baf8       0x68 obj/SKYROVER/serial.o
                0x000000000800baf8                serializeBoxNamesReply
 .text.serialInit
                0x000000000800bb60      0x10c obj/SKYROVER/serial.o
                0x000000000800bb60                serialInit
 .text.serialCom
                0x000000000800bc6c      0xbac obj/SKYROVER/serial.o
                0x000000000800bc6c                serialCom
 .text.sbusReadRawRC
                0x000000000800c818       0x20 obj/SKYROVER/sbus.o
 .text.sbusDataReceive
                0x000000000800c838       0x5c obj/SKYROVER/sbus.o
 .text.sbusInit
                0x000000000800c894       0x5c obj/SKYROVER/sbus.o
                0x000000000800c894                sbusInit
 .text.sbusFrameComplete
                0x000000000800c8f0       0xb0 obj/SKYROVER/sbus.o
                0x000000000800c8f0                sbusFrameComplete
 .text.sumdReadRawRC
                0x000000000800c9a0       0x1c obj/SKYROVER/sumd.o
 .text.sumdDataReceive
                0x000000000800c9bc       0x74 obj/SKYROVER/sumd.o
 .text.sumdInit
                0x000000000800ca30       0x30 obj/SKYROVER/sumd.o
                0x000000000800ca30                sumdInit
 .text.sumdFrameComplete
                0x000000000800ca60       0x68 obj/SKYROVER/sumd.o
                0x000000000800ca60                sumdFrameComplete
 .text.spektrumDataReceive
                0x000000000800cac8       0x68 obj/SKYROVER/spektrum.o
 .text.spektrumReadRawRC
                0x000000000800cb30       0x90 obj/SKYROVER/spektrum.o
 .text.spektrumInit
                0x000000000800cbc0       0x68 obj/SKYROVER/spektrum.o
                0x000000000800cbc0                spektrumInit
 .text.spektrumFrameComplete
                0x000000000800cc28        0xc obj/SKYROVER/spektrum.o
                0x000000000800cc28                spektrumFrameComplete
 .text.sendDataHead
                0x000000000800cc34       0x20 obj/SKYROVER/telemetry.o
 .text.sendTelemetryTail
                0x000000000800cc54       0x10 obj/SKYROVER/telemetry.o
 .text.serializeFrsky
                0x000000000800cc64       0x30 obj/SKYROVER/telemetry.o
 .text.serialize16
                0x000000000800cc94       0x16 obj/SKYROVER/telemetry.o
 *fill*         0x000000000800ccaa        0x2 00
 .text.initTelemetry
                0x000000000800ccac       0x30 obj/SKYROVER/telemetry.o
                0x000000000800ccac                initTelemetry
 .text.updateTelemetryState
                0x000000000800ccdc       0x5c obj/SKYROVER/telemetry.o
                0x000000000800ccdc                updateTelemetryState
 .text.sendTelemetry
                0x000000000800cd38      0x30c obj/SKYROVER/telemetry.o
                0x000000000800cd38                sendTelemetry
 .text.gpioInit
                0x000000000800d044       0x76 obj/SKYROVER/drv_gpio.o
                0x000000000800d044                gpioInit
 *fill*         0x000000000800d0ba        0x2 00
 .text.gpioExtiLineConfig
                0x000000000800d0bc       0x34 obj/SKYROVER/drv_gpio.o
                0x000000000800d0bc                gpioExtiLineConfig
 .text.i2c_ev_handler
                0x000000000800d0f0      0x31c obj/SKYROVER/drv_i2c.o
 .text.I2C1_EV_IRQHandler
                0x000000000800d40c        0x4 obj/SKYROVER/drv_i2c.o
                0x000000000800d40c                I2C1_EV_IRQHandler
 .text.I2C2_EV_IRQHandler
                0x000000000800d410        0x4 obj/SKYROVER/drv_i2c.o
                0x000000000800d410                I2C2_EV_IRQHandler
 .text.i2cInit  0x000000000800d414      0x130 obj/SKYROVER/drv_i2c.o
                0x000000000800d414                i2cInit
 .text.i2cRead  0x000000000800d544       0xc4 obj/SKYROVER/drv_i2c.o
                0x000000000800d544                i2cRead
 .text.i2cWriteBuffer
                0x000000000800d608       0xc4 obj/SKYROVER/drv_i2c.o
                0x000000000800d608                i2cWriteBuffer
 .text.i2cWrite
                0x000000000800d6cc       0x10 obj/SKYROVER/drv_i2c.o
                0x000000000800d6cc                i2cWrite
 .text.i2c_er_handler
                0x000000000800d6dc       0xac obj/SKYROVER/drv_i2c.o
 .text.I2C2_ER_IRQHandler
                0x000000000800d788        0x4 obj/SKYROVER/drv_i2c.o
                0x000000000800d788                I2C2_ER_IRQHandler
 .text.I2C1_ER_IRQHandler
                0x000000000800d78c        0x4 obj/SKYROVER/drv_i2c.o
                0x000000000800d78c                I2C1_ER_IRQHandler
 .text.i2cGetErrorCounter
                0x000000000800d790        0xc obj/SKYROVER/drv_i2c.o
                0x000000000800d790                i2cGetErrorCounter
 .text.SysTick_Handler
                0x000000000800d79c       0x10 obj/SKYROVER/drv_system.o
                0x000000000800d79c                SysTick_Handler
 .text.micros   0x000000000800d7ac       0x34 obj/SKYROVER/drv_system.o
                0x000000000800d7ac                micros
 .text.millis   0x000000000800d7e0        0xc obj/SKYROVER/drv_system.o
                0x000000000800d7e0                millis
 .text.delayMicroseconds
                0x000000000800d7ec       0x16 obj/SKYROVER/drv_system.o
                0x000000000800d7ec                delayMicroseconds
 .text.delay    0x000000000800d802       0x14 obj/SKYROVER/drv_system.o
                0x000000000800d802                delay
 *fill*         0x000000000800d816        0x2 00
 .text.systemInit
                0x000000000800d818      0x128 obj/SKYROVER/drv_system.o
                0x000000000800d818                systemInit
 .text.failureMode
                0x000000000800d940       0x38 obj/SKYROVER/drv_system.o
                0x000000000800d940                failureMode
 .text.systemReset
                0x000000000800d978       0x20 obj/SKYROVER/drv_system.o
                0x000000000800d978                systemReset
 .text.systemBeep
                0x000000000800d998        0x2 obj/SKYROVER/drv_system.o
                0x000000000800d998                systemBeep
 .text.serialWrite
                0x000000000800d99a        0xa obj/SKYROVER/drv_serial.o
                0x000000000800d99a                serialWrite
 .text.serialPrint
                0x000000000800d9a4       0x16 obj/SKYROVER/drv_serial.o
                0x000000000800d9a4                serialPrint
 .text.serialTotalBytesWaiting
                0x000000000800d9ba        0xa obj/SKYROVER/drv_serial.o
                0x000000000800d9ba                serialTotalBytesWaiting
 .text.serialRead
                0x000000000800d9c4        0xa obj/SKYROVER/drv_serial.o
                0x000000000800d9c4                serialRead
 .text.serialSetBaudRate
                0x000000000800d9ce        0xa obj/SKYROVER/drv_serial.o
                0x000000000800d9ce                serialSetBaudRate
 .text.isSerialTransmitBufferEmpty
                0x000000000800d9d8        0xa obj/SKYROVER/drv_serial.o
                0x000000000800d9d8                isSerialTransmitBufferEmpty
 .text.softSerialTotalBytesWaiting
                0x000000000800d9e2       0x18 obj/SKYROVER/drv_softserial.o
                0x000000000800d9e2                softSerialTotalBytesWaiting
 .text.softSerialWriteByte
                0x000000000800d9fa       0x18 obj/SKYROVER/drv_softserial.o
                0x000000000800d9fa                softSerialWriteByte
 .text.softSerialSetBaudRate
                0x000000000800da12        0x2 obj/SKYROVER/drv_softserial.o
                0x000000000800da12                softSerialSetBaudRate
 .text.isSoftSerialTransmitBufferEmpty
                0x000000000800da14        0xe obj/SKYROVER/drv_softserial.o
                0x000000000800da14                isSoftSerialTransmitBufferEmpty
 .text.softSerialReadByte
                0x000000000800da22       0x22 obj/SKYROVER/drv_softserial.o
                0x000000000800da22                softSerialReadByte
 .text.readRxSignal
                0x000000000800da44       0x20 obj/SKYROVER/drv_softserial.o
                0x000000000800da44                readRxSignal
 .text.setTxSignal
                0x000000000800da64       0x2e obj/SKYROVER/drv_softserial.o
                0x000000000800da64                setTxSignal
 .text.serialInputPortConfig
                0x000000000800da92       0x20 obj/SKYROVER/drv_softserial.o
                0x000000000800da92                serialInputPortConfig
 *fill*         0x000000000800dab2        0x2 00
 .text.serialTimerConfig
                0x000000000800dab4       0x2c obj/SKYROVER/drv_softserial.o
                0x000000000800dab4                serialTimerConfig
 .text.serialOutputPortConfig
                0x000000000800dae0       0x20 obj/SKYROVER/drv_softserial.o
                0x000000000800dae0                serialOutputPortConfig
 .text.setupSoftSerial1
                0x000000000800db00       0x8c obj/SKYROVER/drv_softserial.o
                0x000000000800db00                setupSoftSerial1
 .text.updateBufferIndex
                0x000000000800db8c       0x14 obj/SKYROVER/drv_softserial.o
                0x000000000800db8c                updateBufferIndex
 .text.searchForStartBit
                0x000000000800dba0       0x30 obj/SKYROVER/drv_softserial.o
                0x000000000800dba0                searchForStartBit
 .text.searchForStopBit
                0x000000000800dbd0       0x38 obj/SKYROVER/drv_softserial.o
                0x000000000800dbd0                searchForStopBit
 .text.readDataBit
                0x000000000800dc08       0x46 obj/SKYROVER/drv_softserial.o
                0x000000000800dc08                readDataBit
 .text.processRxState
                0x000000000800dc4e       0x2a obj/SKYROVER/drv_softserial.o
                0x000000000800dc4e                processRxState
 .text.processTxState
                0x000000000800dc78       0x74 obj/SKYROVER/drv_softserial.o
                0x000000000800dc78                processTxState
 .text.onSerialTimer
                0x000000000800dcec       0x20 obj/SKYROVER/drv_softserial.o
                0x000000000800dcec                onSerialTimer
 .text.uartTotalBytesWaiting
                0x000000000800dd0c       0x16 obj/SKYROVER/drv_uart.o
                0x000000000800dd0c                uartTotalBytesWaiting
 .text.isUartTransmitBufferEmpty
                0x000000000800dd22       0x18 obj/SKYROVER/drv_uart.o
                0x000000000800dd22                isUartTransmitBufferEmpty
 .text.uartStartTxDMA
                0x000000000800dd3a       0x30 obj/SKYROVER/drv_uart.o
 .text.uartSetBaudRate
                0x000000000800dd6a       0x4a obj/SKYROVER/drv_uart.o
                0x000000000800dd6a                uartSetBaudRate
 .text.uartRead
                0x000000000800ddb4       0x30 obj/SKYROVER/drv_uart.o
                0x000000000800ddb4                uartRead
 .text.uartWrite
                0x000000000800dde4       0x3c obj/SKYROVER/drv_uart.o
                0x000000000800dde4                uartWrite
 .text.serialUSART1
                0x000000000800de20       0xa0 obj/SKYROVER/drv_uart.o
                0x000000000800de20                serialUSART1
 .text.serialUSART2
                0x000000000800dec0       0x98 obj/SKYROVER/drv_uart.o
                0x000000000800dec0                serialUSART2
 .text.uartOpen
                0x000000000800df58      0x170 obj/SKYROVER/drv_uart.o
                0x000000000800df58                uartOpen
 .text.DMA1_Channel4_IRQHandler
                0x000000000800e0c8       0x34 obj/SKYROVER/drv_uart.o
                0x000000000800e0c8                DMA1_Channel4_IRQHandler
 .text.USART1_IRQHandler
                0x000000000800e0fc       0x3c obj/SKYROVER/drv_uart.o
                0x000000000800e0fc                USART1_IRQHandler
 .text.USART2_IRQHandler
                0x000000000800e138       0x78 obj/SKYROVER/drv_uart.o
                0x000000000800e138                USART2_IRQHandler
 .text.uli2a    0x000000000800e1b0       0x4a obj/SKYROVER/printf.o
 .text.ui2a     0x000000000800e1fa       0x4a obj/SKYROVER/printf.o
 .text.putchw   0x000000000800e244       0x48 obj/SKYROVER/printf.o
 .text.tfp_format
                0x000000000800e28c      0x16c obj/SKYROVER/printf.o
                0x000000000800e28c                tfp_format
 .text.init_printf
                0x000000000800e3f8       0x14 obj/SKYROVER/printf.o
                0x000000000800e3f8                init_printf
 .text.tfp_printf
                0x000000000800e40c       0x38 obj/SKYROVER/printf.o
                0x000000000800e40c                tfp_printf
 .text.constrain
                0x000000000800e444       0x10 obj/SKYROVER/utils.o
                0x000000000800e444                constrain
 *fill*         0x000000000800e454        0x4 00
 .text.initBoardAlignment
                0x000000000800e458      0x170 obj/SKYROVER/utils.o
                0x000000000800e458                initBoardAlignment
 .text.alignBoard
                0x000000000800e5c8       0xc4 obj/SKYROVER/utils.o
                0x000000000800e5c8                alignBoard
 .text.alignSensors
                0x000000000800e68c       0x7c obj/SKYROVER/utils.o
                0x000000000800e68c                alignSensors
 .text.SystemInit
                0x000000000800e708       0x4c obj/SKYROVER/system_stm32f10x.o
                0x000000000800e708                SystemInit
 .text.SystemCoreClockUpdate
                0x000000000800e754       0x74 obj/SKYROVER/system_stm32f10x.o
                0x000000000800e754                SystemCoreClockUpdate
 .text.SetSysClock
                0x000000000800e7c8      0x15c obj/SKYROVER/system_stm32f10x.o
                0x000000000800e7c8                SetSysClock
 .text.NVIC_PriorityGroupConfig
                0x000000000800e924       0x14 obj/SKYROVER/misc.o
                0x000000000800e924                NVIC_PriorityGroupConfig
 .text.NVIC_Init
                0x000000000800e938       0x68 obj/SKYROVER/misc.o
                0x000000000800e938                NVIC_Init
 .text.ADC_Init
                0x000000000800e9a0       0x48 obj/SKYROVER/stm32f10x_adc.o
                0x000000000800e9a0                ADC_Init
 .text.ADC_Cmd  0x000000000800e9e8       0x12 obj/SKYROVER/stm32f10x_adc.o
                0x000000000800e9e8                ADC_Cmd
 .text.ADC_DMACmd
                0x000000000800e9fa       0x12 obj/SKYROVER/stm32f10x_adc.o
                0x000000000800e9fa                ADC_DMACmd
 .text.ADC_ResetCalibration
                0x000000000800ea0c        0xa obj/SKYROVER/stm32f10x_adc.o
                0x000000000800ea0c                ADC_ResetCalibration
 .text.ADC_GetResetCalibrationStatus
                0x000000000800ea16        0x8 obj/SKYROVER/stm32f10x_adc.o
                0x000000000800ea16                ADC_GetResetCalibrationStatus
 .text.ADC_StartCalibration
                0x000000000800ea1e        0xa obj/SKYROVER/stm32f10x_adc.o
                0x000000000800ea1e                ADC_StartCalibration
 .text.ADC_GetCalibrationStatus
                0x000000000800ea28        0x8 obj/SKYROVER/stm32f10x_adc.o
                0x000000000800ea28                ADC_GetCalibrationStatus
 .text.ADC_SoftwareStartConvCmd
                0x000000000800ea30       0x12 obj/SKYROVER/stm32f10x_adc.o
                0x000000000800ea30                ADC_SoftwareStartConvCmd
 .text.ADC_RegularChannelConfig
                0x000000000800ea42       0x9a obj/SKYROVER/stm32f10x_adc.o
                0x000000000800ea42                ADC_RegularChannelConfig
 .text.DMA_DeInit
                0x000000000800eadc       0xf0 obj/SKYROVER/stm32f10x_dma.o
                0x000000000800eadc                DMA_DeInit
 .text.DMA_Init
                0x000000000800ebcc       0x40 obj/SKYROVER/stm32f10x_dma.o
                0x000000000800ebcc                DMA_Init
 .text.DMA_StructInit
                0x000000000800ec0c       0x1a obj/SKYROVER/stm32f10x_dma.o
                0x000000000800ec0c                DMA_StructInit
 .text.DMA_Cmd  0x000000000800ec26       0x16 obj/SKYROVER/stm32f10x_dma.o
                0x000000000800ec26                DMA_Cmd
 .text.DMA_ITConfig
                0x000000000800ec3c       0x10 obj/SKYROVER/stm32f10x_dma.o
                0x000000000800ec3c                DMA_ITConfig
 .text.DMA_SetCurrDataCounter
                0x000000000800ec4c        0x4 obj/SKYROVER/stm32f10x_dma.o
                0x000000000800ec4c                DMA_SetCurrDataCounter
 .text.DMA_GetCurrDataCounter
                0x000000000800ec50        0x6 obj/SKYROVER/stm32f10x_dma.o
                0x000000000800ec50                DMA_GetCurrDataCounter
 *fill*         0x000000000800ec56        0x2 00
 .text.DMA_ClearITPendingBit
                0x000000000800ec58       0x14 obj/SKYROVER/stm32f10x_dma.o
                0x000000000800ec58                DMA_ClearITPendingBit
 .text.EXTI_Init
                0x000000000800ec6c       0x78 obj/SKYROVER/stm32f10x_exti.o
                0x000000000800ec6c                EXTI_Init
 .text.EXTI_GetITStatus
                0x000000000800ece4       0x20 obj/SKYROVER/stm32f10x_exti.o
                0x000000000800ece4                EXTI_GetITStatus
 .text.EXTI_ClearITPendingBit
                0x000000000800ed04        0xc obj/SKYROVER/stm32f10x_exti.o
                0x000000000800ed04                EXTI_ClearITPendingBit
 .text.FLASH_Unlock
                0x000000000800ed10       0x18 obj/SKYROVER/stm32f10x_flash.o
                0x000000000800ed10                FLASH_Unlock
 .text.FLASH_Lock
                0x000000000800ed28       0x10 obj/SKYROVER/stm32f10x_flash.o
                0x000000000800ed28                FLASH_Lock
 .text.FLASH_ClearFlag
                0x000000000800ed38        0xc obj/SKYROVER/stm32f10x_flash.o
                0x000000000800ed38                FLASH_ClearFlag
 .text.FLASH_GetBank1Status
                0x000000000800ed44       0x28 obj/SKYROVER/stm32f10x_flash.o
                0x000000000800ed44                FLASH_GetBank1Status
 .text.FLASH_WaitForLastOperation
                0x000000000800ed6c       0x22 obj/SKYROVER/stm32f10x_flash.o
                0x000000000800ed6c                FLASH_WaitForLastOperation
 *fill*         0x000000000800ed8e        0x2 00
 .text.FLASH_ProgramWord
                0x000000000800ed90       0x54 obj/SKYROVER/stm32f10x_flash.o
                0x000000000800ed90                FLASH_ProgramWord
 .text.FLASH_ErasePage
                0x000000000800ede4       0x3c obj/SKYROVER/stm32f10x_flash.o
                0x000000000800ede4                FLASH_ErasePage
 .text.I2C_DeInit
                0x000000000800ee20       0x34 obj/SKYROVER/stm32f10x_i2c.o
                0x000000000800ee20                I2C_DeInit
 .text.I2C_Init
                0x000000000800ee54       0xd4 obj/SKYROVER/stm32f10x_i2c.o
                0x000000000800ee54                I2C_Init
 .text.I2C_StructInit
                0x000000000800ef28       0x1c obj/SKYROVER/stm32f10x_i2c.o
                0x000000000800ef28                I2C_StructInit
 .text.I2C_Cmd  0x000000000800ef44       0x18 obj/SKYROVER/stm32f10x_i2c.o
                0x000000000800ef44                I2C_Cmd
 .text.I2C_GenerateSTART
                0x000000000800ef5c       0x18 obj/SKYROVER/stm32f10x_i2c.o
                0x000000000800ef5c                I2C_GenerateSTART
 .text.I2C_GenerateSTOP
                0x000000000800ef74       0x18 obj/SKYROVER/stm32f10x_i2c.o
                0x000000000800ef74                I2C_GenerateSTOP
 .text.I2C_AcknowledgeConfig
                0x000000000800ef8c       0x18 obj/SKYROVER/stm32f10x_i2c.o
                0x000000000800ef8c                I2C_AcknowledgeConfig
 .text.I2C_ITConfig
                0x000000000800efa4       0x12 obj/SKYROVER/stm32f10x_i2c.o
                0x000000000800efa4                I2C_ITConfig
 .text.I2C_SendData
                0x000000000800efb6        0x4 obj/SKYROVER/stm32f10x_i2c.o
                0x000000000800efb6                I2C_SendData
 .text.I2C_ReceiveData
                0x000000000800efba        0x6 obj/SKYROVER/stm32f10x_i2c.o
                0x000000000800efba                I2C_ReceiveData
 .text.I2C_Send7bitAddress
                0x000000000800efc0       0x10 obj/SKYROVER/stm32f10x_i2c.o
                0x000000000800efc0                I2C_Send7bitAddress
 .text.RCC_GetClocksFreq
                0x000000000800efd0       0x9c obj/SKYROVER/stm32f10x_rcc.o
                0x000000000800efd0                RCC_GetClocksFreq
 .text.RCC_AHBPeriphClockCmd
                0x000000000800f06c       0x18 obj/SKYROVER/stm32f10x_rcc.o
                0x000000000800f06c                RCC_AHBPeriphClockCmd
 .text.RCC_APB2PeriphClockCmd
                0x000000000800f084       0x18 obj/SKYROVER/stm32f10x_rcc.o
                0x000000000800f084                RCC_APB2PeriphClockCmd
 .text.RCC_APB1PeriphClockCmd
                0x000000000800f09c       0x18 obj/SKYROVER/stm32f10x_rcc.o
                0x000000000800f09c                RCC_APB1PeriphClockCmd
 .text.RCC_APB2PeriphResetCmd
                0x000000000800f0b4       0x18 obj/SKYROVER/stm32f10x_rcc.o
                0x000000000800f0b4                RCC_APB2PeriphResetCmd
 .text.RCC_APB1PeriphResetCmd
                0x000000000800f0cc       0x18 obj/SKYROVER/stm32f10x_rcc.o
                0x000000000800f0cc                RCC_APB1PeriphResetCmd
 .text.RCC_ClearFlag
                0x000000000800f0e4       0x10 obj/SKYROVER/stm32f10x_rcc.o
                0x000000000800f0e4                RCC_ClearFlag
 .text.SPI_I2S_DeInit
                0x000000000800f0f4       0x64 obj/SKYROVER/stm32f10x_spi.o
                0x000000000800f0f4                SPI_I2S_DeInit
 .text.SPI_Init
                0x000000000800f158       0x3e obj/SKYROVER/stm32f10x_spi.o
                0x000000000800f158                SPI_Init
 .text.SPI_Cmd  0x000000000800f196       0x18 obj/SKYROVER/stm32f10x_spi.o
                0x000000000800f196                SPI_Cmd
 .text.SPI_I2S_SendData
                0x000000000800f1ae        0x4 obj/SKYROVER/stm32f10x_spi.o
                0x000000000800f1ae                SPI_I2S_SendData
 .text.SPI_I2S_ReceiveData
                0x000000000800f1b2        0x6 obj/SKYROVER/stm32f10x_spi.o
                0x000000000800f1b2                SPI_I2S_ReceiveData
 .text.SPI_I2S_GetFlagStatus
                0x000000000800f1b8        0xc obj/SKYROVER/stm32f10x_spi.o
                0x000000000800f1b8                SPI_I2S_GetFlagStatus
 .text.TI1_Config
                0x000000000800f1c4       0x68 obj/SKYROVER/stm32f10x_tim.o
 .text.TI2_Config
                0x000000000800f22c       0x78 obj/SKYROVER/stm32f10x_tim.o
 .text.TIM_TimeBaseInit
                0x000000000800f2a4       0x94 obj/SKYROVER/stm32f10x_tim.o
                0x000000000800f2a4                TIM_TimeBaseInit
 .text.TIM_OC1Init
                0x000000000800f338       0x88 obj/SKYROVER/stm32f10x_tim.o
                0x000000000800f338                TIM_OC1Init
 .text.TIM_OC2Init
                0x000000000800f3c0       0x88 obj/SKYROVER/stm32f10x_tim.o
                0x000000000800f3c0                TIM_OC2Init
 .text.TIM_OC3Init
                0x000000000800f448       0x84 obj/SKYROVER/stm32f10x_tim.o
                0x000000000800f448                TIM_OC3Init
 .text.TIM_OC4Init
                0x000000000800f4cc       0x68 obj/SKYROVER/stm32f10x_tim.o
                0x000000000800f4cc                TIM_OC4Init
 .text.TIM_TimeBaseStructInit
                0x000000000800f534       0x12 obj/SKYROVER/stm32f10x_tim.o
                0x000000000800f534                TIM_TimeBaseStructInit
 .text.TIM_OCStructInit
                0x000000000800f546       0x14 obj/SKYROVER/stm32f10x_tim.o
                0x000000000800f546                TIM_OCStructInit
 .text.TIM_ICStructInit
                0x000000000800f55a       0x10 obj/SKYROVER/stm32f10x_tim.o
                0x000000000800f55a                TIM_ICStructInit
 .text.TIM_Cmd  0x000000000800f56a       0x18 obj/SKYROVER/stm32f10x_tim.o
                0x000000000800f56a                TIM_Cmd
 .text.TIM_CtrlPWMOutputs
                0x000000000800f582       0x1c obj/SKYROVER/stm32f10x_tim.o
                0x000000000800f582                TIM_CtrlPWMOutputs
 .text.TIM_ITConfig
                0x000000000800f59e       0x12 obj/SKYROVER/stm32f10x_tim.o
                0x000000000800f59e                TIM_ITConfig
 .text.TIM_OC1PreloadConfig
                0x000000000800f5b0       0x10 obj/SKYROVER/stm32f10x_tim.o
                0x000000000800f5b0                TIM_OC1PreloadConfig
 .text.TIM_OC2PreloadConfig
                0x000000000800f5c0       0x14 obj/SKYROVER/stm32f10x_tim.o
                0x000000000800f5c0                TIM_OC2PreloadConfig
 .text.TIM_OC3PreloadConfig
                0x000000000800f5d4       0x10 obj/SKYROVER/stm32f10x_tim.o
                0x000000000800f5d4                TIM_OC3PreloadConfig
 .text.TIM_OC4PreloadConfig
                0x000000000800f5e4       0x14 obj/SKYROVER/stm32f10x_tim.o
                0x000000000800f5e4                TIM_OC4PreloadConfig
 .text.TIM_SetIC1Prescaler
                0x000000000800f5f8       0x16 obj/SKYROVER/stm32f10x_tim.o
                0x000000000800f5f8                TIM_SetIC1Prescaler
 .text.TIM_SetIC2Prescaler
                0x000000000800f60e       0x1a obj/SKYROVER/stm32f10x_tim.o
                0x000000000800f60e                TIM_SetIC2Prescaler
 .text.TIM_SetIC3Prescaler
                0x000000000800f628       0x16 obj/SKYROVER/stm32f10x_tim.o
                0x000000000800f628                TIM_SetIC3Prescaler
 .text.TIM_SetIC4Prescaler
                0x000000000800f63e       0x1a obj/SKYROVER/stm32f10x_tim.o
                0x000000000800f63e                TIM_SetIC4Prescaler
 .text.TIM_ICInit
                0x000000000800f658      0x138 obj/SKYROVER/stm32f10x_tim.o
                0x000000000800f658                TIM_ICInit
 .text.TIM_GetCapture1
                0x000000000800f790        0x6 obj/SKYROVER/stm32f10x_tim.o
                0x000000000800f790                TIM_GetCapture1
 .text.TIM_GetCapture2
                0x000000000800f796        0x6 obj/SKYROVER/stm32f10x_tim.o
                0x000000000800f796                TIM_GetCapture2
 .text.TIM_GetCapture3
                0x000000000800f79c        0x6 obj/SKYROVER/stm32f10x_tim.o
                0x000000000800f79c                TIM_GetCapture3
 .text.TIM_GetCapture4
                0x000000000800f7a2        0x8 obj/SKYROVER/stm32f10x_tim.o
                0x000000000800f7a2                TIM_GetCapture4
 .text.TIM_GetITStatus
                0x000000000800f7aa       0x16 obj/SKYROVER/stm32f10x_tim.o
                0x000000000800f7aa                TIM_GetITStatus
 .text.TIM_ClearITPendingBit
                0x000000000800f7c0        0x8 obj/SKYROVER/stm32f10x_tim.o
                0x000000000800f7c0                TIM_ClearITPendingBit
 .text.USART_Init
                0x000000000800f7c8       0xb0 obj/SKYROVER/stm32f10x_usart.o
                0x000000000800f7c8                USART_Init
 .text.USART_Cmd
                0x000000000800f878       0x18 obj/SKYROVER/stm32f10x_usart.o
                0x000000000800f878                USART_Cmd
 .text.USART_ITConfig
                0x000000000800f890       0x34 obj/SKYROVER/stm32f10x_usart.o
                0x000000000800f890                USART_ITConfig
 .text.USART_DMACmd
                0x000000000800f8c4       0x12 obj/SKYROVER/stm32f10x_usart.o
                0x000000000800f8c4                USART_DMACmd
 *fill*         0x000000000800f8d6        0x2 00
 .text.cosf     0x000000000800f8d8       0x68 /Users/imac/Develop/stm32f4/arm_gcc/gcc-arm-none-eabi-4_7-2013q3/bin/../lib/gcc/arm-none-eabi/4.7.4/../../../../arm-none-eabi/lib/armv7-m/libm.a(lib_a-sf_cos.o)
                0x000000000800f8d8                cosf
 .text.lrintf   0x000000000800f940       0x80 /Users/imac/Develop/stm32f4/arm_gcc/gcc-arm-none-eabi-4_7-2013q3/bin/../lib/gcc/arm-none-eabi/4.7.4/../../../../arm-none-eabi/lib/armv7-m/libm.a(lib_a-sf_lrint.o)
                0x000000000800f940                lrintf
 .text.sinf     0x000000000800f9c0       0x78 /Users/imac/Develop/stm32f4/arm_gcc/gcc-arm-none-eabi-4_7-2013q3/bin/../lib/gcc/arm-none-eabi/4.7.4/../../../../arm-none-eabi/lib/armv7-m/libm.a(lib_a-sf_sin.o)
                0x000000000800f9c0                sinf
 .text.atan2f   0x000000000800fa38        0x4 /Users/imac/Develop/stm32f4/arm_gcc/gcc-arm-none-eabi-4_7-2013q3/bin/../lib/gcc/arm-none-eabi/4.7.4/../../../../arm-none-eabi/lib/armv7-m/libm.a(lib_a-wf_atan2.o)
                0x000000000800fa38                atan2f
 .text.powf     0x000000000800fa3c      0x328 /Users/imac/Develop/stm32f4/arm_gcc/gcc-arm-none-eabi-4_7-2013q3/bin/../lib/gcc/arm-none-eabi/4.7.4/../../../../arm-none-eabi/lib/armv7-m/libm.a(lib_a-wf_pow.o)
                0x000000000800fa3c                powf
 .text.sqrtf    0x000000000800fd64       0x9c /Users/imac/Develop/stm32f4/arm_gcc/gcc-arm-none-eabi-4_7-2013q3/bin/../lib/gcc/arm-none-eabi/4.7.4/../../../../arm-none-eabi/lib/armv7-m/libm.a(lib_a-wf_sqrt.o)
                0x000000000800fd64                sqrtf
 .text.__ieee754_atan2f
                0x000000000800fe00      0x14c /Users/imac/Develop/stm32f4/arm_gcc/gcc-arm-none-eabi-4_7-2013q3/bin/../lib/gcc/arm-none-eabi/4.7.4/../../../../arm-none-eabi/lib/armv7-m/libm.a(lib_a-ef_atan2.o)
                0x000000000800fe00                __ieee754_atan2f
 .text.__ieee754_powf
                0x000000000800ff4c      0x740 /Users/imac/Develop/stm32f4/arm_gcc/gcc-arm-none-eabi-4_7-2013q3/bin/../lib/gcc/arm-none-eabi/4.7.4/../../../../arm-none-eabi/lib/armv7-m/libm.a(lib_a-ef_pow.o)
                0x000000000800ff4c                __ieee754_powf
 .text.__ieee754_rem_pio2f
                0x000000000801068c      0x358 /Users/imac/Develop/stm32f4/arm_gcc/gcc-arm-none-eabi-4_7-2013q3/bin/../lib/gcc/arm-none-eabi/4.7.4/../../../../arm-none-eabi/lib/armv7-m/libm.a(lib_a-ef_rem_pio2.o)
                0x000000000801068c                __ieee754_rem_pio2f
 .text.__ieee754_sqrtf
                0x00000000080109e4       0xd4 /Users/imac/Develop/stm32f4/arm_gcc/gcc-arm-none-eabi-4_7-2013q3/bin/../lib/gcc/arm-none-eabi/4.7.4/../../../../arm-none-eabi/lib/armv7-m/libm.a(lib_a-ef_sqrt.o)
                0x00000000080109e4                __ieee754_sqrtf
 .text.__kernel_cosf
                0x0000000008010ab8      0x1b8 /Users/imac/Develop/stm32f4/arm_gcc/gcc-arm-none-eabi-4_7-2013q3/bin/../lib/gcc/arm-none-eabi/4.7.4/../../../../arm-none-eabi/lib/armv7-m/libm.a(lib_a-kf_cos.o)
                0x0000000008010ab8                __kernel_cosf
 .text.__kernel_rem_pio2f
                0x0000000008010c70      0xba0 /Users/imac/Develop/stm32f4/arm_gcc/gcc-arm-none-eabi-4_7-2013q3/bin/../lib/gcc/arm-none-eabi/4.7.4/../../../../arm-none-eabi/lib/armv7-m/libm.a(lib_a-kf_rem_pio2.o)
                0x0000000008010c70                __kernel_rem_pio2f
 .text.__kernel_sinf
                0x0000000008011810      0x100 /Users/imac/Develop/stm32f4/arm_gcc/gcc-arm-none-eabi-4_7-2013q3/bin/../lib/gcc/arm-none-eabi/4.7.4/../../../../arm-none-eabi/lib/armv7-m/libm.a(lib_a-kf_sin.o)
                0x0000000008011810                __kernel_sinf
 .text.matherr  0x0000000008011910        0x4 /Users/imac/Develop/stm32f4/arm_gcc/gcc-arm-none-eabi-4_7-2013q3/bin/../lib/gcc/arm-none-eabi/4.7.4/../../../../arm-none-eabi/lib/armv7-m/libm.a(lib_a-s_matherr.o)
                0x0000000008011910                matherr
 .text.rint     0x0000000008011914      0x128 /Users/imac/Develop/stm32f4/arm_gcc/gcc-arm-none-eabi-4_7-2013q3/bin/../lib/gcc/arm-none-eabi/4.7.4/../../../../arm-none-eabi/lib/armv7-m/libm.a(lib_a-s_rint.o)
                0x0000000008011914                rint
 .text.atanf    0x0000000008011a3c      0x258 /Users/imac/Develop/stm32f4/arm_gcc/gcc-arm-none-eabi-4_7-2013q3/bin/../lib/gcc/arm-none-eabi/4.7.4/../../../../arm-none-eabi/lib/armv7-m/libm.a(lib_a-sf_atan.o)
                0x0000000008011a3c                atanf
 .text.fabsf    0x0000000008011c94        0x8 /Users/imac/Develop/stm32f4/arm_gcc/gcc-arm-none-eabi-4_7-2013q3/bin/../lib/gcc/arm-none-eabi/4.7.4/../../../../arm-none-eabi/lib/armv7-m/libm.a(lib_a-sf_fabs.o)
                0x0000000008011c94                fabsf
 .text.finitef  0x0000000008011c9c       0x10 /Users/imac/Develop/stm32f4/arm_gcc/gcc-arm-none-eabi-4_7-2013q3/bin/../lib/gcc/arm-none-eabi/4.7.4/../../../../arm-none-eabi/lib/armv7-m/libm.a(lib_a-sf_finite.o)
                0x0000000008011c9c                finitef
 .text.floorf   0x0000000008011cac       0x94 /Users/imac/Develop/stm32f4/arm_gcc/gcc-arm-none-eabi-4_7-2013q3/bin/../lib/gcc/arm-none-eabi/4.7.4/../../../../arm-none-eabi/lib/armv7-m/libm.a(lib_a-sf_floor.o)
                0x0000000008011cac                floorf
 .text.__fpclassifyf
                0x0000000008011d40       0x58 /Users/imac/Develop/stm32f4/arm_gcc/gcc-arm-none-eabi-4_7-2013q3/bin/../lib/gcc/arm-none-eabi/4.7.4/../../../../arm-none-eabi/lib/armv7-m/libm.a(lib_a-sf_fpclassify.o)
                0x0000000008011d40                __fpclassifyf
 .text.nanf     0x0000000008011d98        0x8 /Users/imac/Develop/stm32f4/arm_gcc/gcc-arm-none-eabi-4_7-2013q3/bin/../lib/gcc/arm-none-eabi/4.7.4/../../../../arm-none-eabi/lib/armv7-m/libm.a(lib_a-sf_nan.o)
                0x0000000008011d98                nanf
 .text.scalbnf  0x0000000008011da0       0xc0 /Users/imac/Develop/stm32f4/arm_gcc/gcc-arm-none-eabi-4_7-2013q3/bin/../lib/gcc/arm-none-eabi/4.7.4/../../../../arm-none-eabi/lib/armv7-m/libm.a(lib_a-sf_scalbn.o)
                0x0000000008011da0                scalbnf
 .text.copysignf
                0x0000000008011e60        0xc /Users/imac/Develop/stm32f4/arm_gcc/gcc-arm-none-eabi-4_7-2013q3/bin/../lib/gcc/arm-none-eabi/4.7.4/../../../../arm-none-eabi/lib/armv7-m/libm.a(lib_a-sf_copysign.o)
                0x0000000008011e60                copysignf
 .text.__register_exitproc
                0x0000000008011e6c       0xac /Users/imac/Develop/stm32f4/arm_gcc/gcc-arm-none-eabi-4_7-2013q3/bin/../lib/gcc/arm-none-eabi/4.7.4/../../../../arm-none-eabi/lib/armv7-m/libc.a(lib_a-__atexit.o)
                0x0000000008011e6c                __register_exitproc
 .text.atoi     0x0000000008011f18        0x8 /Users/imac/Develop/stm32f4/arm_gcc/gcc-arm-none-eabi-4_7-2013q3/bin/../lib/gcc/arm-none-eabi/4.7.4/../../../../arm-none-eabi/lib/armv7-m/libc.a(lib_a-atoi.o)
                0x0000000008011f18                atoi
 .text.bsearch  0x0000000008011f20       0x40 /Users/imac/Develop/stm32f4/arm_gcc/gcc-arm-none-eabi-4_7-2013q3/bin/../lib/gcc/arm-none-eabi/4.7.4/../../../../arm-none-eabi/lib/armv7-m/libc.a(lib_a-bsearch.o)
                0x0000000008011f20                bsearch
 .text.__errno  0x0000000008011f60        0xc /Users/imac/Develop/stm32f4/arm_gcc/gcc-arm-none-eabi-4_7-2013q3/bin/../lib/gcc/arm-none-eabi/4.7.4/../../../../arm-none-eabi/lib/armv7-m/libc.a(lib_a-errno.o)
                0x0000000008011f60                __errno
 .text.__libc_fini_array
                0x0000000008011f6c       0x50 /Users/imac/Develop/stm32f4/arm_gcc/gcc-arm-none-eabi-4_7-2013q3/bin/../lib/gcc/arm-none-eabi/4.7.4/../../../../arm-none-eabi/lib/armv7-m/libc.a(lib_a-fini.o)
                0x0000000008011f6c                __libc_fini_array
 .text.__libc_init_array
                0x0000000008011fbc       0x94 /Users/imac/Develop/stm32f4/arm_gcc/gcc-arm-none-eabi-4_7-2013q3/bin/../lib/gcc/arm-none-eabi/4.7.4/../../../../arm-none-eabi/lib/armv7-m/libc.a(lib_a-init.o)
                0x0000000008011fbc                __libc_init_array
 .text.memcpy   0x0000000008012050      0x15c /Users/imac/Develop/stm32f4/arm_gcc/gcc-arm-none-eabi-4_7-2013q3/bin/../lib/gcc/arm-none-eabi/4.7.4/../../../../arm-none-eabi/lib/armv7-m/libc.a(lib_a-memcpy.o)
                0x0000000008012050                memcpy
 .text.memset   0x00000000080121ac      0x12c /Users/imac/Develop/stm32f4/arm_gcc/gcc-arm-none-eabi-4_7-2013q3/bin/../lib/gcc/arm-none-eabi/4.7.4/../../../../arm-none-eabi/lib/armv7-m/libc.a(lib_a-memset.o)
                0x00000000080121ac                memset
 .text.strcat   0x00000000080122d8       0x4c /Users/imac/Develop/stm32f4/arm_gcc/gcc-arm-none-eabi-4_7-2013q3/bin/../lib/gcc/arm-none-eabi/4.7.4/../../../../arm-none-eabi/lib/armv7-m/libc.a(lib_a-strcat.o)
                0x00000000080122d8                strcat
 .text.strchr   0x0000000008012324       0xfc /Users/imac/Develop/stm32f4/arm_gcc/gcc-arm-none-eabi-4_7-2013q3/bin/../lib/gcc/arm-none-eabi/4.7.4/../../../../arm-none-eabi/lib/armv7-m/libc.a(lib_a-strchr.o)
                0x0000000008012324                strchr
 .text.strcpy   0x0000000008012420       0xbc /Users/imac/Develop/stm32f4/arm_gcc/gcc-arm-none-eabi-4_7-2013q3/bin/../lib/gcc/arm-none-eabi/4.7.4/../../../../arm-none-eabi/lib/armv7-m/libc.a(lib_a-strcpy.o)
                0x0000000008012420                strcpy
 .text.strlen   0x00000000080124dc       0x60 /Users/imac/Develop/stm32f4/arm_gcc/gcc-arm-none-eabi-4_7-2013q3/bin/../lib/gcc/arm-none-eabi/4.7.4/../../../../arm-none-eabi/lib/armv7-m/libc.a(lib_a-strlen.o)
                0x00000000080124dc                strlen
 .text.strncasecmp
                0x000000000801253c       0xdc /Users/imac/Develop/stm32f4/arm_gcc/gcc-arm-none-eabi-4_7-2013q3/bin/../lib/gcc/arm-none-eabi/4.7.4/../../../../arm-none-eabi/lib/armv7-m/libc.a(lib_a-strncasecmp.o)
                0x000000000801253c                strncasecmp
 .text.strncpy  0x0000000008012618      0x10c /Users/imac/Develop/stm32f4/arm_gcc/gcc-arm-none-eabi-4_7-2013q3/bin/../lib/gcc/arm-none-eabi/4.7.4/../../../../arm-none-eabi/lib/armv7-m/libc.a(lib_a-strncpy.o)
                0x0000000008012618                strncpy
 .text.critical_factorization
                0x0000000008012724       0xbc /Users/imac/Develop/stm32f4/arm_gcc/gcc-arm-none-eabi-4_7-2013q3/bin/../lib/gcc/arm-none-eabi/4.7.4/../../../../arm-none-eabi/lib/armv7-m/libc.a(lib_a-strstr.o)
 .text.two_way_long_needle
                0x00000000080127e0      0x300 /Users/imac/Develop/stm32f4/arm_gcc/gcc-arm-none-eabi-4_7-2013q3/bin/../lib/gcc/arm-none-eabi/4.7.4/../../../../arm-none-eabi/lib/armv7-m/libc.a(lib_a-strstr.o)
 .text.strstr   0x0000000008012ae0      0x2ec /Users/imac/Develop/stm32f4/arm_gcc/gcc-arm-none-eabi-4_7-2013q3/bin/../lib/gcc/arm-none-eabi/4.7.4/../../../../arm-none-eabi/lib/armv7-m/libc.a(lib_a-strstr.o)
                0x0000000008012ae0                strstr
 .text.strtok   0x0000000008012dcc       0x14 /Users/imac/Develop/stm32f4/arm_gcc/gcc-arm-none-eabi-4_7-2013q3/bin/../lib/gcc/arm-none-eabi/4.7.4/../../../../arm-none-eabi/lib/armv7-m/libc.a(lib_a-strtok.o)
                0x0000000008012dcc                strtok
 .text.__strtok_r
                0x0000000008012de0       0x60 /Users/imac/Develop/stm32f4/arm_gcc/gcc-arm-none-eabi-4_7-2013q3/bin/../lib/gcc/arm-none-eabi/4.7.4/../../../../arm-none-eabi/lib/armv7-m/libc.a(lib_a-strtok_r.o)
                0x0000000008012de0                __strtok_r
 .text._strtol_r
                0x0000000008012e40      0x130 /Users/imac/Develop/stm32f4/arm_gcc/gcc-arm-none-eabi-4_7-2013q3/bin/../lib/gcc/arm-none-eabi/4.7.4/../../../../arm-none-eabi/lib/armv7-m/libc.a(lib_a-strtol.o)
                0x0000000008012e40                _strtol_r
 .text.strtol   0x0000000008012f70       0x1c /Users/imac/Develop/stm32f4/arm_gcc/gcc-arm-none-eabi-4_7-2013q3/bin/../lib/gcc/arm-none-eabi/4.7.4/../../../../arm-none-eabi/lib/armv7-m/libc.a(lib_a-strtol.o)
                0x0000000008012f70                strtol
 .text.startup.register_fini
                0x0000000008012f8c       0x14 /Users/imac/Develop/stm32f4/arm_gcc/gcc-arm-none-eabi-4_7-2013q3/bin/../lib/gcc/arm-none-eabi/4.7.4/../../../../arm-none-eabi/lib/armv7-m/libc.a(lib_a-__call_atexit.o)
 .text.atexit   0x0000000008012fa0        0xc /Users/imac/Develop/stm32f4/arm_gcc/gcc-arm-none-eabi-4_7-2013q3/bin/../lib/gcc/arm-none-eabi/4.7.4/../../../../arm-none-eabi/lib/armv7-m/libc.a(lib_a-atexit.o)
                0x0000000008012fa0                atexit
 .text.memchr   0x0000000008012fac      0x140 /Users/imac/Develop/stm32f4/arm_gcc/gcc-arm-none-eabi-4_7-2013q3/bin/../lib/gcc/arm-none-eabi/4.7.4/../../../../arm-none-eabi/lib/armv7-m/libc.a(lib_a-memchr.o)
                0x0000000008012fac                memchr
 .text.memcmp   0x00000000080130ec       0xb8 /Users/imac/Develop/stm32f4/arm_gcc/gcc-arm-none-eabi-4_7-2013q3/bin/../lib/gcc/arm-none-eabi/4.7.4/../../../../arm-none-eabi/lib/armv7-m/libc.a(lib_a-memcmp.o)
                0x00000000080130ec                memcmp
 *(.rodata)
 .rodata        0x00000000080131a4        0x8 obj/SKYROVER/config.o
 .rodata        0x00000000080131ac       0x10 obj/SKYROVER/drv_system.o
 *(.rodata*)
 .rodata.airPPM
                0x00000000080131bc        0xc obj/SKYROVER/drv_pwm.o
 .rodata.multiPPM
                0x00000000080131c8        0xc obj/SKYROVER/drv_pwm.o
 .rodata.hardwareMaps
                0x00000000080131d4       0x10 obj/SKYROVER/drv_pwm.o
 .rodata.multiPWM
                0x00000000080131e4        0xf obj/SKYROVER/drv_pwm.o
 .rodata.airPWM
                0x00000000080131f3        0xf obj/SKYROVER/drv_pwm.o
 *fill*         0x0000000008013202        0x2 00
 .rodata.timerHardware
                0x0000000008013204       0xe0 obj/SKYROVER/drv_timer.o
                0x0000000008013204                timerHardware
 .rodata.timers
                0x00000000080132e4       0x10 obj/SKYROVER/drv_timer.o
 .rodata.channels
                0x00000000080132f4        0x4 obj/SKYROVER/drv_timer.o
 .rodata.CSWTCH.19
                0x00000000080132f8       0x16 obj/SKYROVER/buzzer.o
 *fill*         0x000000000801330e        0x2 00
 .rodata.featureNames
                0x0000000008013310       0x40 obj/SKYROVER/cli.o
 .rodata.mixerNames
                0x0000000008013350       0x5c obj/SKYROVER/cli.o
 .rodata.cmdTable
                0x00000000080133ac       0xc0 obj/SKYROVER/cli.o
                0x00000000080133ac                cmdTable
 .rodata.accNames
                0x000000000801346c       0x1c obj/SKYROVER/cli.o
 .rodata.str1.1
                0x0000000008013488      0xdd0 obj/SKYROVER/cli.o
                                        0xe42 (size before relaxing)
 .rodata.sensorNames
                0x0000000008014258       0x20 obj/SKYROVER/cli.o
 .rodata.valueTable
                0x0000000008014278      0x820 obj/SKYROVER/cli.o
                0x0000000008014278                valueTable
 .rodata.rcChannelLetters
                0x0000000008014a98        0x9 obj/SKYROVER/config.o
                0x0000000008014a98                rcChannelLetters
 .rodata.str1.1
                0x0000000008014aa1        0x9 obj/SKYROVER/config.o
 .rodata.str1.1
                0x0000000008014aaa       0xda obj/SKYROVER/gps.o
                                         0xdb (size before relaxing)
 .rodata.ubloxInit
                0x0000000008014b84       0x8c obj/SKYROVER/gps.o
 .rodata.gpsInitData
                0x0000000008014c10       0x3c obj/SKYROVER/gps.o
 .rodata.str1.1
                0x0000000008014c4c        0x8 obj/SKYROVER/main.o
 .rodata.mixerY6
                0x0000000008014c54       0x60 obj/SKYROVER/mixer.o
 .rodata.mixerTri
                0x0000000008014cb4       0x30 obj/SKYROVER/mixer.o
 .rodata.mixerHex6H
                0x0000000008014ce4       0x60 obj/SKYROVER/mixer.o
 .rodata.mixerVtail4
                0x0000000008014d44       0x40 obj/SKYROVER/mixer.o
 .rodata.mixers
                0x0000000008014d84       0xb8 obj/SKYROVER/mixer.o
                0x0000000008014d84                mixers
 .rodata.mixerOctoFlatP
                0x0000000008014e3c       0x80 obj/SKYROVER/mixer.o
 .rodata.mixerHex6P
                0x0000000008014ebc       0x60 obj/SKYROVER/mixer.o
 .rodata.mixerBi
                0x0000000008014f1c       0x20 obj/SKYROVER/mixer.o
 .rodata.mixerY4
                0x0000000008014f3c       0x40 obj/SKYROVER/mixer.o
 .rodata.mixerQuadX
                0x0000000008014f7c       0x40 obj/SKYROVER/mixer.o
 .rodata.mixerOctoFlatX
                0x0000000008014fbc       0x80 obj/SKYROVER/mixer.o
 .rodata.mixerQuadP
                0x000000000801503c       0x40 obj/SKYROVER/mixer.o
 .rodata.mixerHex6X
                0x000000000801507c       0x60 obj/SKYROVER/mixer.o
 .rodata.mixerOctoX8
                0x00000000080150dc       0x80 obj/SKYROVER/mixer.o
 .rodata.mixerDualcopter
                0x000000000801515c       0x20 obj/SKYROVER/mixer.o
 .rodata.str1.1
                0x000000000801517c       0x4a obj/SKYROVER/sensors.o
 .rodata.pidnames
                0x00000000080151c6       0x30 obj/SKYROVER/serial.o
 .rodata.str1.1
                0x00000000080151f6       0xaf obj/SKYROVER/serial.o
 *fill*         0x00000000080152a5        0x3 00
 .rodata.softSerialVTable
                0x00000000080152a8       0x14 obj/SKYROVER/drv_softserial.o
                0x00000000080152a8                softSerialVTable
 .rodata.uartVTable
                0x00000000080152bc       0x14 obj/SKYROVER/drv_uart.o
                0x00000000080152bc                uartVTable
 .rodata.TWO23  0x00000000080152d0        0x8 /Users/imac/Develop/stm32f4/arm_gcc/gcc-arm-none-eabi-4_7-2013q3/bin/../lib/gcc/arm-none-eabi/4.7.4/../../../../arm-none-eabi/lib/armv7-m/libm.a(lib_a-sf_lrint.o)
 .rodata.str1.4
                0x00000000080152d8        0x5 /Users/imac/Develop/stm32f4/arm_gcc/gcc-arm-none-eabi-4_7-2013q3/bin/../lib/gcc/arm-none-eabi/4.7.4/../../../../arm-none-eabi/lib/armv7-m/libm.a(lib_a-wf_pow.o)
                                          0x8 (size before relaxing)
 *fill*         0x00000000080152dd        0x3 00
 .rodata.str1.4
                0x00000000080152e0        0x6 /Users/imac/Develop/stm32f4/arm_gcc/gcc-arm-none-eabi-4_7-2013q3/bin/../lib/gcc/arm-none-eabi/4.7.4/../../../../arm-none-eabi/lib/armv7-m/libm.a(lib_a-wf_sqrt.o)
                                          0x8 (size before relaxing)
 *fill*         0x00000000080152e6        0x2 00
 .rodata.dp_h   0x00000000080152e8        0x8 /Users/imac/Develop/stm32f4/arm_gcc/gcc-arm-none-eabi-4_7-2013q3/bin/../lib/gcc/arm-none-eabi/4.7.4/../../../../arm-none-eabi/lib/armv7-m/libm.a(lib_a-ef_pow.o)
 .rodata.dp_l   0x00000000080152f0        0x8 /Users/imac/Develop/stm32f4/arm_gcc/gcc-arm-none-eabi-4_7-2013q3/bin/../lib/gcc/arm-none-eabi/4.7.4/../../../../arm-none-eabi/lib/armv7-m/libm.a(lib_a-ef_pow.o)
 .rodata.bp     0x00000000080152f8        0x8 /Users/imac/Develop/stm32f4/arm_gcc/gcc-arm-none-eabi-4_7-2013q3/bin/../lib/gcc/arm-none-eabi/4.7.4/../../../../arm-none-eabi/lib/armv7-m/libm.a(lib_a-ef_pow.o)
 .rodata.str1.4
                0x0000000000000000        0x6 /Users/imac/Develop/stm32f4/arm_gcc/gcc-arm-none-eabi-4_7-2013q3/bin/../lib/gcc/arm-none-eabi/4.7.4/../../../../arm-none-eabi/lib/armv7-m/libm.a(lib_a-ef_pow.o)
                                          0x4 (size before relaxing)
 .rodata.npio2_hw
                0x0000000008015300       0x80 /Users/imac/Develop/stm32f4/arm_gcc/gcc-arm-none-eabi-4_7-2013q3/bin/../lib/gcc/arm-none-eabi/4.7.4/../../../../arm-none-eabi/lib/armv7-m/libm.a(lib_a-ef_rem_pio2.o)
 .rodata.two_over_pi
                0x0000000008015380      0x318 /Users/imac/Develop/stm32f4/arm_gcc/gcc-arm-none-eabi-4_7-2013q3/bin/../lib/gcc/arm-none-eabi/4.7.4/../../../../arm-none-eabi/lib/armv7-m/libm.a(lib_a-ef_rem_pio2.o)
 .rodata.init_jk
                0x0000000008015698        0xc /Users/imac/Develop/stm32f4/arm_gcc/gcc-arm-none-eabi-4_7-2013q3/bin/../lib/gcc/arm-none-eabi/4.7.4/../../../../arm-none-eabi/lib/armv7-m/libm.a(lib_a-kf_rem_pio2.o)
 .rodata.PIo2   0x00000000080156a4       0x2c /Users/imac/Develop/stm32f4/arm_gcc/gcc-arm-none-eabi-4_7-2013q3/bin/../lib/gcc/arm-none-eabi/4.7.4/../../../../arm-none-eabi/lib/armv7-m/libm.a(lib_a-kf_rem_pio2.o)
 .rodata.TWO52  0x00000000080156d0       0x10 /Users/imac/Develop/stm32f4/arm_gcc/gcc-arm-none-eabi-4_7-2013q3/bin/../lib/gcc/arm-none-eabi/4.7.4/../../../../arm-none-eabi/lib/armv7-m/libm.a(lib_a-s_rint.o)
 .rodata.atanlo
                0x00000000080156e0       0x10 /Users/imac/Develop/stm32f4/arm_gcc/gcc-arm-none-eabi-4_7-2013q3/bin/../lib/gcc/arm-none-eabi/4.7.4/../../../../arm-none-eabi/lib/armv7-m/libm.a(lib_a-sf_atan.o)
 .rodata.atanhi
                0x00000000080156f0       0x10 /Users/imac/Develop/stm32f4/arm_gcc/gcc-arm-none-eabi-4_7-2013q3/bin/../lib/gcc/arm-none-eabi/4.7.4/../../../../arm-none-eabi/lib/armv7-m/libm.a(lib_a-sf_atan.o)
 .rodata._ctype_
                0x0000000008015700      0x104 /Users/imac/Develop/stm32f4/arm_gcc/gcc-arm-none-eabi-4_7-2013q3/bin/../lib/gcc/arm-none-eabi/4.7.4/../../../../arm-none-eabi/lib/armv7-m/libc.a(lib_a-ctype_.o)
                0x0000000008015700                _ctype_
 .rodata.str1.4
                0x0000000008015804        0x4 /Users/imac/Develop/stm32f4/arm_gcc/gcc-arm-none-eabi-4_7-2013q3/bin/../lib/gcc/arm-none-eabi/4.7.4/../../../../arm-none-eabi/lib/armv7-m/libc.a(lib_a-impure.o)
 .rodata._global_impure_ptr
                0x0000000008015808        0x4 /Users/imac/Develop/stm32f4/arm_gcc/gcc-arm-none-eabi-4_7-2013q3/bin/../lib/gcc/arm-none-eabi/4.7.4/../../../../arm-none-eabi/lib/armv7-m/libc.a(lib_a-impure.o)
                0x0000000008015808                _global_impure_ptr
 *(.glue_7)
 .glue_7        0x0000000000000000        0x0 linker stubs
 *(.glue_7t)
 .glue_7t       0x0000000000000000        0x0 linker stubs
 *(.eh_frame)
 .eh_frame      0x000000000801580c        0x0 /Users/imac/Develop/stm32f4/arm_gcc/gcc-arm-none-eabi-4_7-2013q3/bin/../lib/gcc/arm-none-eabi/4.7.4/armv7-m/crtbegin.o
 *(.init)
 .init          0x000000000801580c        0x4 /Users/imac/Develop/stm32f4/arm_gcc/gcc-arm-none-eabi-4_7-2013q3/bin/../lib/gcc/arm-none-eabi/4.7.4/armv7-m/crti.o
                0x000000000801580c                _init
 .init          0x0000000008015810        0x8 /Users/imac/Develop/stm32f4/arm_gcc/gcc-arm-none-eabi-4_7-2013q3/bin/../lib/gcc/arm-none-eabi/4.7.4/armv7-m/crtn.o
 *(.fini)
 .fini          0x0000000008015818        0x4 /Users/imac/Develop/stm32f4/arm_gcc/gcc-arm-none-eabi-4_7-2013q3/bin/../lib/gcc/arm-none-eabi/4.7.4/armv7-m/crti.o
                0x0000000008015818                _fini
 .fini          0x000000000801581c        0x8 /Users/imac/Develop/stm32f4/arm_gcc/gcc-arm-none-eabi-4_7-2013q3/bin/../lib/gcc/arm-none-eabi/4.7.4/armv7-m/crtn.o
                0x0000000008015824                . = ALIGN (0x4)
                0x0000000008015824                _etext = .

.vfp11_veneer   0x0000000008015824        0x0
 .vfp11_veneer  0x0000000000000000        0x0 linker stubs

.v4_bx          0x0000000008015824        0x0
 .v4_bx         0x0000000000000000        0x0 linker stubs

.iplt           0x0000000008015824        0x0
 .iplt          0x0000000000000000        0x0 /Users/imac/Develop/stm32f4/arm_gcc/gcc-arm-none-eabi-4_7-2013q3/bin/../lib/gcc/arm-none-eabi/4.7.4/armv7-m/crtbegin.o

.rel.dyn        0x0000000008015824        0x0
 .rel.iplt      0x0000000000000000        0x0 /Users/imac/Develop/stm32f4/arm_gcc/gcc-arm-none-eabi-4_7-2013q3/bin/../lib/gcc/arm-none-eabi/4.7.4/armv7-m/crtbegin.o

.ARM.extab
 *(.ARM.extab* .gnu.linkonce.armextab.*)

.ARM            0x0000000008015824        0x0
                0x0000000008015824                __exidx_start = .
 *(.ARM.exidx*)
                0x0000000008015824                __exidx_end = .

.preinit_array  0x0000000008015824        0x0
                0x0000000008015824                PROVIDE (__preinit_array_start, .)
 *(.preinit_array*)
                0x0000000008015824                PROVIDE (__preinit_array_end, .)

.init_array     0x0000000008015824        0x8
                0x0000000008015824                PROVIDE (__init_array_start, .)
 *(SORT(.init_array.*))
 .init_array.00000
                0x0000000008015824        0x4 /Users/imac/Develop/stm32f4/arm_gcc/gcc-arm-none-eabi-4_7-2013q3/bin/../lib/gcc/arm-none-eabi/4.7.4/../../../../arm-none-eabi/lib/armv7-m/libc.a(lib_a-__call_atexit.o)
 *(.init_array*)
 .init_array    0x0000000008015828        0x4 /Users/imac/Develop/stm32f4/arm_gcc/gcc-arm-none-eabi-4_7-2013q3/bin/../lib/gcc/arm-none-eabi/4.7.4/armv7-m/crtbegin.o
                0x000000000801582c                PROVIDE (__init_array_end, .)

.fini_array     0x000000000801582c        0x4
                0x000000000801582c                PROVIDE (__fini_array_start, .)
 *(.fini_array*)
 .fini_array    0x000000000801582c        0x4 /Users/imac/Develop/stm32f4/arm_gcc/gcc-arm-none-eabi-4_7-2013q3/bin/../lib/gcc/arm-none-eabi/4.7.4/armv7-m/crtbegin.o
 *(SORT(.fini_array.*))
                0x0000000008015830                PROVIDE (__fini_array_end, .)
                0x0000000008015830                _sidata = .

.data           0x0000000020000000      0x5b4 load address 0x0000000008015830
                0x0000000020000000                . = ALIGN (0x4)
                0x0000000020000000                _sdata = .
 *(.data)
 *(.data*)
 .data.accAlign
                0x0000000020000000        0x1 obj/SKYROVER/drv_adxl345.o
 .data.accAlign
                0x0000000020000001        0x1 obj/SKYROVER/drv_bma280.o
 *fill*         0x0000000020000002        0x2 00
 .data.magGain  0x0000000020000004        0xc obj/SKYROVER/drv_hmc5883l.o
 .data.magAlign
                0x0000000020000010        0x1 obj/SKYROVER/drv_hmc5883l.o
 .data.accAlign
                0x0000000020000011        0x1 obj/SKYROVER/drv_mma845x.o
 .data.mpuLowPassFilter
                0x0000000020000012        0x1 obj/SKYROVER/drv_mpu3050.o
 .data.gyroAlign
                0x0000000020000013        0x1 obj/SKYROVER/drv_mpu3050.o
 .data.accAlign
                0x0000000020000014        0x1 obj/SKYROVER/drv_mpu6050.o
 .data.mpuLowPassFilter
                0x0000000020000015        0x1 obj/SKYROVER/drv_mpu6050.o
 .data.gyroAlign
                0x0000000020000016        0x1 obj/SKYROVER/drv_mpu6050.o
 .data.gyroAlign
                0x0000000020000017        0x1 obj/SKYROVER/drv_l3g4200d.o
 .data.failsafeThreshold
                0x0000000020000018        0x2 obj/SKYROVER/drv_pwm.o
 *fill*         0x000000002000001a        0x2 00
 .data.GPS_scaleLonDown
                0x000000002000001c        0x4 obj/SKYROVER/gps.o
 .data.EstN.9397
                0x0000000020000020        0xc obj/SKYROVER/imu.o
 .data.servo    0x000000002000002c       0x10 obj/SKYROVER/mixer.o
                0x000000002000002c                servo
 .data.batteryCellCount
                0x000000002000003c        0x1 obj/SKYROVER/mw.o
                0x000000002000003c                batteryCellCount
 .data.GPSNavReset.9477
                0x000000002000003d        0x1 obj/SKYROVER/mw.o
 *fill*         0x000000002000003e        0x2 00
 .data.pid_controller
                0x0000000020000040        0x4 obj/SKYROVER/mw.o
                0x0000000020000040                pid_controller
 .data.acc_1G   0x0000000020000044        0x2 obj/SKYROVER/sensors.o
                0x0000000020000044                acc_1G
 *fill*         0x0000000020000046        0x2 00
 .data.boxes    0x0000000020000048      0x108 obj/SKYROVER/serial.o
                0x0000000020000048                boxes
 .data.standardBoardAlignment
                0x0000000020000150        0x1 obj/SKYROVER/utils.o
 .data.AHBPrescTable
                0x0000000020000151       0x10 obj/SKYROVER/system_stm32f10x.o
                0x0000000020000151                AHBPrescTable
 *fill*         0x0000000020000161        0x3 00
 .data.hse_value
                0x0000000020000164        0x4 obj/SKYROVER/system_stm32f10x.o
                0x0000000020000164                hse_value
 .data.SystemCoreClock
                0x0000000020000168        0x4 obj/SKYROVER/system_stm32f10x.o
                0x0000000020000168                SystemCoreClock
 .data.ADCPrescTable
                0x000000002000016c        0x4 obj/SKYROVER/stm32f10x_rcc.o
 .data.APBAHBPrescTable
                0x0000000020000170       0x10 obj/SKYROVER/stm32f10x_rcc.o
 .data.__fdlib_version
                0x0000000020000180        0x1 /Users/imac/Develop/stm32f4/arm_gcc/gcc-arm-none-eabi-4_7-2013q3/bin/../lib/gcc/arm-none-eabi/4.7.4/../../../../arm-none-eabi/lib/armv7-m/libm.a(lib_a-s_lib_ver.o)
                0x0000000020000180                __fdlib_version
 *fill*         0x0000000020000181        0x3 00
 .data.__ctype_ptr__
                0x0000000020000184        0x4 /Users/imac/Develop/stm32f4/arm_gcc/gcc-arm-none-eabi-4_7-2013q3/bin/../lib/gcc/arm-none-eabi/4.7.4/../../../../arm-none-eabi/lib/armv7-m/libc.a(lib_a-ctype_.o)
                0x0000000020000184                __ctype_ptr__
 .data.impure_data
                0x0000000020000188      0x428 /Users/imac/Develop/stm32f4/arm_gcc/gcc-arm-none-eabi-4_7-2013q3/bin/../lib/gcc/arm-none-eabi/4.7.4/../../../../arm-none-eabi/lib/armv7-m/libc.a(lib_a-impure.o)
 .data._impure_ptr
                0x00000000200005b0        0x4 /Users/imac/Develop/stm32f4/arm_gcc/gcc-arm-none-eabi-4_7-2013q3/bin/../lib/gcc/arm-none-eabi/4.7.4/../../../../arm-none-eabi/lib/armv7-m/libc.a(lib_a-impure.o)
                0x00000000200005b0                _impure_ptr
                0x00000000200005b4                . = ALIGN (0x4)
                0x00000000200005b4                _edata = .

.jcr            0x00000000200005b4        0x0 load address 0x0000000008015de4
 .jcr           0x00000000200005b4        0x0 /Users/imac/Develop/stm32f4/arm_gcc/gcc-arm-none-eabi-4_7-2013q3/bin/../lib/gcc/arm-none-eabi/4.7.4/armv7-m/crtbegin.o

.igot.plt       0x00000000200005b4        0x0 load address 0x0000000008015de4
 .igot.plt      0x0000000000000000        0x0 /Users/imac/Develop/stm32f4/arm_gcc/gcc-arm-none-eabi-4_7-2013q3/bin/../lib/gcc/arm-none-eabi/4.7.4/armv7-m/crtbegin.o
                0x00000000200005b4                . = ALIGN (0x4)

.bss            0x00000000200005b4     0x18b8 load address 0x0000000008015de4
                0x00000000200005b4                _sbss = .
                0x00000000200005b4                __bss_start__ = _sbss
 *(.bss)
 .bss           0x00000000200005b4       0x1c /Users/imac/Develop/stm32f4/arm_gcc/gcc-arm-none-eabi-4_7-2013q3/bin/../lib/gcc/arm-none-eabi/4.7.4/armv7-m/crtbegin.o
 *(.bss*)
 .bss.adcValues
                0x00000000200005d0        0x4 obj/SKYROVER/drv_adc.o
 .bss.useFifo   0x00000000200005d4        0x1 obj/SKYROVER/drv_adxl345.o
 .bss.acc_samples
                0x00000000200005d5        0x1 obj/SKYROVER/drv_adxl345.o
                0x00000000200005d5                acc_samples
 .bss.convDone  0x00000000200005d6        0x1 obj/SKYROVER/drv_bmp085.o
 *fill*         0x00000000200005d7        0x1 00
 .bss.convOverrun
                0x00000000200005d8        0x2 obj/SKYROVER/drv_bmp085.o
 *fill*         0x00000000200005da        0x2 00
 .bss.bmp085    0x00000000200005dc       0x24 obj/SKYROVER/drv_bmp085.o
 .bss.bmp085_up
                0x0000000020000600        0x4 obj/SKYROVER/drv_bmp085.o
 .bss.bmp085InitDone
                0x0000000020000604        0x1 obj/SKYROVER/drv_bmp085.o
 *fill*         0x0000000020000605        0x1 00
 .bss.bmp085_ut
                0x0000000020000606        0x2 obj/SKYROVER/drv_bmp085.o
 .bss.ms5611_up
                0x0000000020000608        0x4 obj/SKYROVER/drv_ms5611.o
 .bss.ms5611_ut
                0x000000002000060c        0x4 obj/SKYROVER/drv_ms5611.o
 .bss.ms5611_c  0x0000000020000610       0x10 obj/SKYROVER/drv_ms5611.o
 .bss.device_id
                0x0000000020000620        0x1 obj/SKYROVER/drv_mma845x.o
 .bss.mpuAccelHalf
                0x0000000020000621        0x1 obj/SKYROVER/drv_mpu6050.o
 .bss.mpuLowPassFilter
                0x0000000020000622        0x1 obj/SKYROVER/drv_l3g4200d.o
 *fill*         0x0000000020000623        0x1 00
 .bss.captures  0x0000000020000624       0x10 obj/SKYROVER/drv_pwm.o
 .bss.chan.8949
                0x0000000020000634        0x1 obj/SKYROVER/drv_pwm.o
 *fill*         0x0000000020000635        0x3 00
 .bss.pwmPorts  0x0000000020000638       0xe0 obj/SKYROVER/drv_pwm.o
 .bss.numInputs
                0x0000000020000718        0x1 obj/SKYROVER/drv_pwm.o
 .bss.GoodPulses.8950
                0x0000000020000719        0x1 obj/SKYROVER/drv_pwm.o
 .bss.numMotors
                0x000000002000071a        0x1 obj/SKYROVER/drv_pwm.o
 *fill*         0x000000002000071b        0x1 00
 .bss.last.8948
                0x000000002000071c        0x2 obj/SKYROVER/drv_pwm.o
 .bss.numServos
                0x000000002000071e        0x1 obj/SKYROVER/drv_pwm.o
 *fill*         0x000000002000071f        0x1 00
 .bss.pwmWritePtr
                0x0000000020000720        0x4 obj/SKYROVER/drv_pwm.o
 .bss.motors    0x0000000020000724       0x30 obj/SKYROVER/drv_pwm.o
 .bss.servos    0x0000000020000754       0x20 obj/SKYROVER/drv_pwm.o
 .bss.now.8947  0x0000000020000774        0x2 obj/SKYROVER/drv_pwm.o
 *fill*         0x0000000020000776        0x2 00
 .bss.hexairbotChannelData
                0x0000000020000778       0x20 obj/SKYROVER/hexairbot.o
 .bss.hexairbotFrameDone
                0x0000000020000798        0x1 obj/SKYROVER/hexairbot.o
 .bss.buzzerIsOn
                0x0000000020000799        0x1 obj/SKYROVER/buzzer.o
 .bss.beepDone  0x000000002000079a        0x1 obj/SKYROVER/buzzer.o
 .bss.beeperOnBox.9308
                0x000000002000079b        0x1 obj/SKYROVER/buzzer.o
 .bss.warn_noGPSfix.9309
                0x000000002000079c        0x1 obj/SKYROVER/buzzer.o
 .bss.icnt.9320
                0x000000002000079d        0x1 obj/SKYROVER/buzzer.o
 .bss.warn_failsafe.9310
                0x000000002000079e        0x1 obj/SKYROVER/buzzer.o
 *fill*         0x000000002000079f        0x1 00
 .bss.buzzerLastToggleTime
                0x00000000200007a0        0x4 obj/SKYROVER/buzzer.o
 .bss.cliBuffer
                0x00000000200007a4       0x30 obj/SKYROVER/cli.o
 .bss.bufferIndex
                0x00000000200007d4        0x4 obj/SKYROVER/cli.o
 .bss.enabledSensors
                0x00000000200007d8        0x4 obj/SKYROVER/config.o
 .bss.GPS_filter
                0x00000000200007dc       0x28 obj/SKYROVER/gps.o
 .bss.nav_loopTimer.9469
                0x0000000020000804        0x4 obj/SKYROVER/gps.o
 .bss._msg_id   0x0000000020000808        0x1 obj/SKYROVER/gps.o
 *fill*         0x0000000020000809        0x3 00
 .bss.poshold_ratePID
                0x000000002000080c       0x28 obj/SKYROVER/gps.o
 .bss.speed_old.9521
                0x0000000020000834        0x4 obj/SKYROVER/gps.o
 .bss.rate_error
                0x0000000020000838        0x4 obj/SKYROVER/gps.o
 .bss.GPS_filtered
                0x000000002000083c        0x8 obj/SKYROVER/gps.o
 .bss.crosstrack_error
                0x0000000020000844        0x2 obj/SKYROVER/gps.o
 .bss.string.9603
                0x0000000020000846        0xf obj/SKYROVER/gps.o
 *fill*         0x0000000020000855        0x3 00
 .bss.navPID_PARAM
                0x0000000020000858       0x10 obj/SKYROVER/gps.o
 .bss.posholdPID
                0x0000000020000868       0x28 obj/SKYROVER/gps.o
 .bss._payload_counter
                0x0000000020000890        0x2 obj/SKYROVER/gps.o
 *fill*         0x0000000020000892        0x2 00
 .bss.posholdPID_PARAM
                0x0000000020000894       0x10 obj/SKYROVER/gps.o
 .bss.param.9600
                0x00000000200008a4        0x1 obj/SKYROVER/gps.o
 .bss._ck_a     0x00000000200008a5        0x1 obj/SKYROVER/gps.o
 .bss._ck_b     0x00000000200008a6        0x1 obj/SKYROVER/gps.o
 .bss.offset.9601
                0x00000000200008a7        0x1 obj/SKYROVER/gps.o
 .bss._new_position
                0x00000000200008a8        0x1 obj/SKYROVER/gps.o
 *fill*         0x00000000200008a9        0x1 00
 .bss._payload_length
                0x00000000200008aa        0x2 obj/SKYROVER/gps.o
 .bss.nav_takeoff_bearing
                0x00000000200008ac        0x2 obj/SKYROVER/gps.o
 *fill*         0x00000000200008ae        0x2 00
 .bss.nav_bearing
                0x00000000200008b0        0x4 obj/SKYROVER/gps.o
 .bss.GPS_WP    0x00000000200008b4        0x8 obj/SKYROVER/gps.o
 .bss.init.9523
                0x00000000200008bc        0x1 obj/SKYROVER/gps.o
 *fill*         0x00000000200008bd        0x1 00
 .bss.fraction3
                0x00000000200008be        0x4 obj/SKYROVER/gps.o
 *fill*         0x00000000200008c2        0x2 00
 .bss.poshold_ratePID_PARAM
                0x00000000200008c4       0x10 obj/SKYROVER/gps.o
 .bss.dTnav     0x00000000200008d4        0x4 obj/SKYROVER/gps.o
 .bss.GPS_degree
                0x00000000200008d8        0x8 obj/SKYROVER/gps.o
 .bss.actual_speed
                0x00000000200008e0        0x4 obj/SKYROVER/gps.o
 .bss._step     0x00000000200008e4        0x1 obj/SKYROVER/gps.o
 *fill*         0x00000000200008e5        0x3 00
 .bss.navPID    0x00000000200008e8       0x28 obj/SKYROVER/gps.o
 .bss.target_bearing
                0x0000000020000910        0x4 obj/SKYROVER/gps.o
 .bss.GPS_filter_sum
                0x0000000020000914        0x8 obj/SKYROVER/gps.o
 .bss.wp_distance
                0x000000002000091c        0x4 obj/SKYROVER/gps.o
 .bss.frame.9605
                0x0000000020000920        0x1 obj/SKYROVER/gps.o
 *fill*         0x0000000020000921        0x3 00
 .bss.original_target_bearing
                0x0000000020000924        0x4 obj/SKYROVER/gps.o
 .bss.checksum_param.9604
                0x0000000020000928        0x1 obj/SKYROVER/gps.o
 .bss._class    0x0000000020000929        0x1 obj/SKYROVER/gps.o
 .bss._new_speed
                0x000000002000092a        0x1 obj/SKYROVER/gps.o
 *fill*         0x000000002000092b        0x1 00
 .bss.GPS_read  0x000000002000092c        0x8 obj/SKYROVER/gps.o
 .bss.next_fix  0x0000000020000934        0x1 obj/SKYROVER/gps.o
 *fill*         0x0000000020000935        0x3 00
 .bss.last.9522
                0x0000000020000938        0x8 obj/SKYROVER/gps.o
 .bss.parity.9602
                0x0000000020000940        0x1 obj/SKYROVER/gps.o
 *fill*         0x0000000020000941        0x1 00
 .bss.waypoint_speed_gov
                0x0000000020000942        0x2 obj/SKYROVER/gps.o
 .bss.error     0x0000000020000944        0x8 obj/SKYROVER/gps.o
 .bss.GPS_filter_index
                0x000000002000094c        0x1 obj/SKYROVER/gps.o
 *fill*         0x000000002000094d        0x3 00
 .bss._buffer   0x0000000020000950       0xc8 obj/SKYROVER/gps.o
 .bss.lastBaroAlt.9431
                0x0000000020000a18        0x4 obj/SKYROVER/imu.o
 .bss.previousT.9417
                0x0000000020000a1c        0x4 obj/SKYROVER/imu.o
 .bss.baroTemperature
                0x0000000020000a20        0x4 obj/SKYROVER/imu.o
                0x0000000020000a20                baroTemperature
 .bss.accZ_25deg
                0x0000000020000a24        0x2 obj/SKYROVER/imu.o
                0x0000000020000a24                accZ_25deg
 *fill*         0x0000000020000a26        0x2 00
 .bss.accZoffset.9373
                0x0000000020000a28        0x4 obj/SKYROVER/imu.o
 .bss.gyroData  0x0000000020000a2c        0x6 obj/SKYROVER/imu.o
                0x0000000020000a2c                gyroData
 .bss.gyroYawSmooth.9329
                0x0000000020000a32        0x2 obj/SKYROVER/imu.o
 .bss.angle     0x0000000020000a34        0x4 obj/SKYROVER/imu.o
                0x0000000020000a34                angle
 .bss.accZ_old.9428
                0x0000000020000a38        0x4 obj/SKYROVER/imu.o
 .bss.previousT.9399
                0x0000000020000a3c        0x4 obj/SKYROVER/imu.o
 .bss.throttleAngleCorrection
                0x0000000020000a40        0x2 obj/SKYROVER/imu.o
                0x0000000020000a40                throttleAngleCorrection
 *fill*         0x0000000020000a42        0x2 00
 .bss.magneticDeclination
                0x0000000020000a44        0x4 obj/SKYROVER/imu.o
                0x0000000020000a44                magneticDeclination
 .bss.BaroAlt   0x0000000020000a48        0x4 obj/SKYROVER/imu.o
                0x0000000020000a48                BaroAlt
 .bss.baroPressure
                0x0000000020000a4c        0x4 obj/SKYROVER/imu.o
                0x0000000020000a4c                baroPressure
 .bss.errorAltitudeI
                0x0000000020000a50        0x4 obj/SKYROVER/imu.o
                0x0000000020000a50                errorAltitudeI
 .bss.baroGroundAltitude.9432
                0x0000000020000a54        0x4 obj/SKYROVER/imu.o
 .bss.accz_smooth.9374
                0x0000000020000a58        0x4 obj/SKYROVER/imu.o
 .bss.gyroZero  0x0000000020000a5c        0x6 obj/SKYROVER/imu.o
                0x0000000020000a5c                gyroZero
 *fill*         0x0000000020000a62        0x2 00
 .bss.accLPF.9398
                0x0000000020000a64        0xc obj/SKYROVER/imu.o
 .bss.vel.9429  0x0000000020000a70        0x4 obj/SKYROVER/imu.o
 .bss.anglerad  0x0000000020000a74        0x8 obj/SKYROVER/imu.o
                0x0000000020000a74                anglerad
 .bss.accAlt.9430
                0x0000000020000a7c        0x4 obj/SKYROVER/imu.o
 .bss.baroGroundPressure.9433
                0x0000000020000a80        0x4 obj/SKYROVER/imu.o
 .bss.baroPressureSum
                0x0000000020000a84        0x4 obj/SKYROVER/imu.o
                0x0000000020000a84                baroPressureSum
 .bss.EstM.9396
                0x0000000020000a88        0xc obj/SKYROVER/imu.o
 .bss.vario     0x0000000020000a94        0x4 obj/SKYROVER/imu.o
                0x0000000020000a94                vario
 .bss.accTimeSum
                0x0000000020000a98        0x4 obj/SKYROVER/imu.o
                0x0000000020000a98                accTimeSum
 .bss.BaroPID   0x0000000020000a9c        0x4 obj/SKYROVER/imu.o
                0x0000000020000a9c                BaroPID
 .bss.accSumCount
                0x0000000020000aa0        0x4 obj/SKYROVER/imu.o
                0x0000000020000aa0                accSumCount
 .bss.numberMotor
                0x0000000020000aa4        0x1 obj/SKYROVER/mixer.o
 *fill*         0x0000000020000aa5        0x1 00
 .bss.slow_LFlaps.9384
                0x0000000020000aa6        0x2 obj/SKYROVER/mixer.o
 .bss.currentMixer
                0x0000000020000aa8       0xc0 obj/SKYROVER/mixer.o
 .bss.failsafeCnt
                0x0000000020000b68        0x2 obj/SKYROVER/mw.o
                0x0000000020000b68                failsafeCnt
 *fill*         0x0000000020000b6a        0x2 00
 .bss.errorGyroI
                0x0000000020000b6c        0xc obj/SKYROVER/mw.o
 .bss.delta2.9449
                0x0000000020000b78        0xc obj/SKYROVER/mw.o
 .bss.rcSticks.9470
                0x0000000020000b84        0x1 obj/SKYROVER/mw.o
 *fill*         0x0000000020000b85        0x3 00
 .bss.calibratedAccTime.9364
                0x0000000020000b88        0x4 obj/SKYROVER/mw.o
 .bss.currentTime
                0x0000000020000b8c        0x4 obj/SKYROVER/mw.o
                0x0000000020000b8c                currentTime
 .bss.GPS_ground_course
                0x0000000020000b90        0x2 obj/SKYROVER/mw.o
                0x0000000020000b90                GPS_ground_course
 .bss.rcDataMean.9399
                0x0000000020000b92       0x10 obj/SKYROVER/mw.o
 .bss.rc4ValuesIndex.9400
                0x0000000020000ba2        0x1 obj/SKYROVER/mw.o
 *fill*         0x0000000020000ba3        0x1 00
 .bss.AccInflightCalibrationSavetoEEProm
                0x0000000020000ba4        0x2 obj/SKYROVER/mw.o
                0x0000000020000ba4                AccInflightCalibrationSavetoEEProm
 *fill*         0x0000000020000ba6        0x2 00
 .bss.taskOrder.9499
                0x0000000020000ba8        0x4 obj/SKYROVER/mw.o
 .bss.ind.9372  0x0000000020000bac        0x1 obj/SKYROVER/mw.o
 *fill*         0x0000000020000bad        0x3 00
 .bss.loopTime.9475
                0x0000000020000bb0        0x4 obj/SKYROVER/mw.o
 .bss.vbatRawArray.9374
                0x0000000020000bb4       0x10 obj/SKYROVER/mw.o
 .bss.GPS_update
                0x0000000020000bc4        0x1 obj/SKYROVER/mw.o
                0x0000000020000bc4                GPS_update
 *fill*         0x0000000020000bc5        0x3 00
 .bss.delta1.9434
                0x0000000020000bc8        0xc obj/SKYROVER/mw.o
 .bss.rcDelayCommand.9469
                0x0000000020000bd4        0x1 obj/SKYROVER/mw.o
 *fill*         0x0000000020000bd5        0x1 00
 .bss.lastGyro.9433
                0x0000000020000bd6        0x6 obj/SKYROVER/mw.o
 .bss.previousTime
                0x0000000020000bdc        0x4 obj/SKYROVER/mw.o
                0x0000000020000bdc                previousTime
 .bss.AccInflightCalibrationMeasurementDone
                0x0000000020000be0        0x2 obj/SKYROVER/mw.o
                0x0000000020000be0                AccInflightCalibrationMeasurementDone
 .bss.initialThrottleHold.9474
                0x0000000020000be2        0x2 obj/SKYROVER/mw.o
 .bss.InflightcalibratingA
                0x0000000020000be4        0x2 obj/SKYROVER/mw.o
                0x0000000020000be4                InflightcalibratingA
 .bss.nav_mode  0x0000000020000be6        0x1 obj/SKYROVER/mw.o
                0x0000000020000be6                nav_mode
 *fill*         0x0000000020000be7        0x1 00
 .bss.delta1.9448
                0x0000000020000be8        0xc obj/SKYROVER/mw.o
 .bss.failsafeEvents
                0x0000000020000bf4        0x2 obj/SKYROVER/mw.o
                0x0000000020000bf4                failsafeEvents
 *fill*         0x0000000020000bf6        0x2 00
 .bss.rcReadRawFunc
                0x0000000020000bf8        0x4 obj/SKYROVER/mw.o
                0x0000000020000bf8                rcReadRawFunc
 .bss.GPSLEDTime.9386
                0x0000000020000bfc        0x4 obj/SKYROVER/mw.o
 .bss.lastError.9453
                0x0000000020000c00        0xc obj/SKYROVER/mw.o
 .bss.GPS_angle
                0x0000000020000c0c        0x4 obj/SKYROVER/mw.o
                0x0000000020000c0c                GPS_angle
 .bss.cycleTime
                0x0000000020000c10        0x2 obj/SKYROVER/mw.o
                0x0000000020000c10                cycleTime
 *fill*         0x0000000020000c12        0x2 00
 .bss.rcTime.9473
                0x0000000020000c14        0x4 obj/SKYROVER/mw.o
 .bss.AccInflightCalibrationActive
                0x0000000020000c18        0x2 obj/SKYROVER/mw.o
                0x0000000020000c18                AccInflightCalibrationActive
 .bss.vbatTimer.9371
                0x0000000020000c1a        0x1 obj/SKYROVER/mw.o
 *fill*         0x0000000020000c1b        0x1 00
 .bss.errorAngleI
                0x0000000020000c1c        0x8 obj/SKYROVER/mw.o
 .bss.AltHoldCorr.9508
                0x0000000020000c24        0x2 obj/SKYROVER/mw.o
 *fill*         0x0000000020000c26        0x2 00
 .bss.delta2.9435
                0x0000000020000c28        0xc obj/SKYROVER/mw.o
 .bss.isAltHoldChanged.9507
                0x0000000020000c34        0x1 obj/SKYROVER/mw.o
 *fill*         0x0000000020000c35        0x1 00
 .bss.rcData4Values.9398
                0x0000000020000c36       0x40 obj/SKYROVER/mw.o
 .bss.toggleBeep
                0x0000000020000c76        0x1 obj/SKYROVER/mw.o
                0x0000000020000c76                toggleBeep
 .bss.buzzerFreq.9370
                0x0000000020000c77        0x1 obj/SKYROVER/mw.o
 .bss.accZero_saved.9351
                0x0000000020000c78        0x6 obj/SKYROVER/sensors.o
 *fill*         0x0000000020000c7e        0x2 00
 .bss.g.9394    0x0000000020000c80        0xc obj/SKYROVER/sensors.o
 .bss.state.9369
                0x0000000020000c8c        0x4 obj/SKYROVER/sensors.o
 .bss.angleTrim_saved.9352
                0x0000000020000c90        0x4 obj/SKYROVER/sensors.o
 .bss.calibratingA
                0x0000000020000c94        0x2 obj/SKYROVER/sensors.o
                0x0000000020000c94                calibratingA
 .bss.calibratingB
                0x0000000020000c96        0x2 obj/SKYROVER/sensors.o
                0x0000000020000c96                calibratingB
 .bss.magZeroTempMax.9417
                0x0000000020000c98        0x6 obj/SKYROVER/sensors.o
 *fill*         0x0000000020000c9e        0x2 00
 .bss.baroDeadline.9368
                0x0000000020000ca0        0x4 obj/SKYROVER/sensors.o
 .bss.var.9395  0x0000000020000ca4       0x3c obj/SKYROVER/sensors.o
 .bss.magZeroTempMin.9416
                0x0000000020000ce0        0x6 obj/SKYROVER/sensors.o
 *fill*         0x0000000020000ce6        0x2 00
 .bss.b.9350    0x0000000020000ce8        0xc obj/SKYROVER/sensors.o
 .bss.t.9414    0x0000000020000cf4        0x4 obj/SKYROVER/sensors.o
 .bss.baroHistTab.9362
                0x0000000020000cf8       0xc0 obj/SKYROVER/sensors.o
 .bss.accHardware
                0x0000000020000db8        0x1 obj/SKYROVER/sensors.o
                0x0000000020000db8                accHardware
 *fill*         0x0000000020000db9        0x3 00
 .bss.tCal.9415
                0x0000000020000dbc        0x4 obj/SKYROVER/sensors.o
 .bss.a.9345    0x0000000020000dc0        0xc obj/SKYROVER/sensors.o
 .bss.calibratingG
                0x0000000020000dcc        0x2 obj/SKYROVER/sensors.o
                0x0000000020000dcc                calibratingG
 .bss.magInit   0x0000000020000dce        0x1 obj/SKYROVER/sensors.o
 *fill*         0x0000000020000dcf        0x1 00
 .bss.baroHistIdx.9363
                0x0000000020000dd0        0x4 obj/SKYROVER/sensors.o
 .bss.checksum  0x0000000020000dd4        0x1 obj/SKYROVER/serial.o
 .bss.dataSize.9522
                0x0000000020000dd5        0x1 obj/SKYROVER/serial.o
 .bss.indRX     0x0000000020000dd6        0x1 obj/SKYROVER/serial.o
 .bss.numberBoxItems
                0x0000000020000dd7        0x1 obj/SKYROVER/serial.o
 .bss.offset.9521
                0x0000000020000dd8        0x1 obj/SKYROVER/serial.o
 .bss.cmdMSP    0x0000000020000dd9        0x1 obj/SKYROVER/serial.o
 .bss.availableBoxes
                0x0000000020000dda       0x15 obj/SKYROVER/serial.o
 .bss.t.9312    0x0000000020000def        0x1 obj/SKYROVER/serial.o
 .bss.inBuf     0x0000000020000df0       0x40 obj/SKYROVER/serial.o
 .bss.t.9316    0x0000000020000e30        0x1 obj/SKYROVER/serial.o
 .bss.cliMode   0x0000000020000e31        0x1 obj/SKYROVER/serial.o
                0x0000000020000e31                cliMode
 .bss.c_state.9530
                0x0000000020000e32        0x1 obj/SKYROVER/serial.o
 .bss.sbusFramePosition.9333
                0x0000000020000e33        0x1 obj/SKYROVER/sbus.o
 .bss.sbusFrameDone
                0x0000000020000e34        0x1 obj/SKYROVER/sbus.o
 *fill*         0x0000000020000e35        0x3 00
 .bss.sbusChannelData
                0x0000000020000e38       0x20 obj/SKYROVER/sbus.o
 .bss.sbus      0x0000000020000e58       0x19 obj/SKYROVER/sbus.o
 *fill*         0x0000000020000e71        0x3 00
 .bss.sbusTimeLast.9332
                0x0000000020000e74        0x4 obj/SKYROVER/sbus.o
 .bss.sumd      0x0000000020000e78       0x15 obj/SKYROVER/sumd.o
 .bss.sumdIndex.9311
                0x0000000020000e8d        0x1 obj/SKYROVER/sumd.o
 .bss.sumdFrameDone
                0x0000000020000e8e        0x1 obj/SKYROVER/sumd.o
 .bss.sumdSize  0x0000000020000e8f        0x1 obj/SKYROVER/sumd.o
 .bss.sumdChannelData
                0x0000000020000e90       0x20 obj/SKYROVER/sumd.o
 .bss.sumdTimeLast.9310
                0x0000000020000eb0        0x4 obj/SKYROVER/sumd.o
 .bss.spek_chan_shift
                0x0000000020000eb4        0x1 obj/SKYROVER/spektrum.o
 *fill*         0x0000000020000eb5        0x3 00
 .bss.spekTimeInterval.9317
                0x0000000020000eb8        0x4 obj/SKYROVER/spektrum.o
 .bss.spekFramePosition.9318
                0x0000000020000ebc        0x1 obj/SKYROVER/spektrum.o
 *fill*         0x0000000020000ebd        0x3 00
 .bss.spekChannelData.9326
                0x0000000020000ec0       0x1c obj/SKYROVER/spektrum.o
 .bss.rcFrameComplete
                0x0000000020000edc        0x1 obj/SKYROVER/spektrum.o
 .bss.spekDataIncoming
                0x0000000020000edd        0x1 obj/SKYROVER/spektrum.o
 .bss.spekHiRes
                0x0000000020000ede        0x1 obj/SKYROVER/spektrum.o
 .bss.spek_chan_mask
                0x0000000020000edf        0x1 obj/SKYROVER/spektrum.o
 .bss.spekTimeLast.9316
                0x0000000020000ee0        0x4 obj/SKYROVER/spektrum.o
 .bss.cycleNum  0x0000000020000ee4        0x1 obj/SKYROVER/telemetry.o
 .bss.telemetryEnabled
                0x0000000020000ee5        0x1 obj/SKYROVER/telemetry.o
 *fill*         0x0000000020000ee6        0x2 00
 .bss.lastCycleTime
                0x0000000020000ee8        0x4 obj/SKYROVER/telemetry.o
 .bss.currentCell.9336
                0x0000000020000eec        0x2 obj/SKYROVER/telemetry.o
 .bss.i2cErrorCount
                0x0000000020000eee        0x2 obj/SKYROVER/drv_i2c.o
 .bss.writing   0x0000000020000ef0        0x1 obj/SKYROVER/drv_i2c.o
 .bss.final_stop.8942
                0x0000000020000ef1        0x1 obj/SKYROVER/drv_i2c.o
 .bss.reg       0x0000000020000ef2        0x1 obj/SKYROVER/drv_i2c.o
 .bss.bytes     0x0000000020000ef3        0x1 obj/SKYROVER/drv_i2c.o
 .bss.read_p    0x0000000020000ef4        0x4 obj/SKYROVER/drv_i2c.o
 .bss.subaddress_sent.8941
                0x0000000020000ef8        0x1 obj/SKYROVER/drv_i2c.o
 .bss.error     0x0000000020000ef9        0x1 obj/SKYROVER/drv_i2c.o
 *fill*         0x0000000020000efa        0x2 00
 .bss.write_p   0x0000000020000efc        0x4 obj/SKYROVER/drv_i2c.o
 .bss.index.8943
                0x0000000020000f00        0x1 obj/SKYROVER/drv_i2c.o
 .bss.reading   0x0000000020000f01        0x1 obj/SKYROVER/drv_i2c.o
 *fill*         0x0000000020000f02        0x2 00
 .bss.I2Cx      0x0000000020000f04        0x4 obj/SKYROVER/drv_i2c.o
 .bss.busy      0x0000000020000f08        0x1 obj/SKYROVER/drv_i2c.o
 .bss.addr      0x0000000020000f09        0x1 obj/SKYROVER/drv_i2c.o
 *fill*         0x0000000020000f0a        0x2 00
 .bss.sysTickUptime
                0x0000000020000f0c        0x4 obj/SKYROVER/drv_system.o
 .bss.usTicks   0x0000000020000f10        0x4 obj/SKYROVER/drv_system.o
 .bss.rx2Buffer.8884
                0x0000000020000f14       0x80 obj/SKYROVER/drv_uart.o
 .bss.rx1Buffer.8875
                0x0000000020000f94      0x100 obj/SKYROVER/drv_uart.o
 .bss.tx2Buffer.8885
                0x0000000020001094       0x40 obj/SKYROVER/drv_uart.o
 .bss.tx1Buffer.8876
                0x00000000200010d4      0x100 obj/SKYROVER/drv_uart.o
 .bss.uartPort1
                0x00000000200011d4       0x4c obj/SKYROVER/drv_uart.o
 .bss.uartPort2
                0x0000000020001220       0x4c obj/SKYROVER/drv_uart.o
 .bss.stdout_putf
                0x000000002000126c        0x4 obj/SKYROVER/printf.o
 .bss.stdout_putp
                0x0000000020001270        0x4 obj/SKYROVER/printf.o
 .bss.boardRotation
                0x0000000020001274       0x24 obj/SKYROVER/utils.o
 *(COMMON)
 COMMON         0x0000000020001298      0x100 obj/SKYROVER/drv_timer.o
                0x0000000020001298                timerConfig
 COMMON         0x0000000020001398      0x440 obj/SKYROVER/config.o
                0x0000000020001398                cfg
                0x000000002000145c                mcfg
 COMMON         0x00000000200017d8       0x1f obj/SKYROVER/gps.o
                0x00000000200017d8                ubs_protocol_bytes
                0x00000000200017d9                ubx_nav_status_bits
                0x00000000200017da                xLeadFilter
                0x00000000200017dc                gpsData
                0x00000000200017f4                yLeadFilter
                0x00000000200017f6                ubs_nav_fix_type
 *fill*         0x00000000200017f7        0x1 00
 COMMON         0x00000000200017f8       0x48 obj/SKYROVER/imu.o
                0x00000000200017f8                sonarAlt
                0x00000000200017fc                gyroADC
                0x0000000020001804                accSum
                0x0000000020001810                accVelScale
                0x0000000020001814                accADC
                0x000000002000181c                EstAlt
                0x0000000020001820                magADC
                0x0000000020001828                AltHold
                0x000000002000182c                accSmooth
                0x0000000020001834                EstG
 COMMON         0x0000000020001840       0x14 obj/SKYROVER/main.o
                0x0000000020001840                core
 COMMON         0x0000000020001854       0x30 obj/SKYROVER/mixer.o
                0x0000000020001854                motor
                0x000000002000186c                motor_disarmed
 COMMON         0x0000000020001884      0x108 obj/SKYROVER/mw.o
                0x0000000020001884                GPS_svinfo_chn
                0x0000000020001894                telemTemperature1
                0x0000000020001896                f
                0x00000000200018a8                GPS_altitude
                0x00000000200018aa                nav_rated
                0x00000000200018ae                lookupThrottleRC
                0x00000000200018c6                nav
                0x00000000200018ca                GPS_speed
                0x00000000200018cc                GPS_hold
                0x00000000200018d4                debug
                0x00000000200018dc                rcCommand
                0x00000000200018e4                vbat
                0x00000000200018e6                batteryWarningVoltage
                0x00000000200018e8                axisPID
                0x00000000200018ee                GPS_distanceToHome
                0x00000000200018f0                GPS_home
                0x00000000200018f8                GPS_directionToHome
                0x00000000200018fa                rcOptions
                0x000000002000190f                GPS_svinfo_svid
                0x0000000020001920                GPS_coord
                0x0000000020001928                GPS_svinfo_quality
                0x0000000020001938                dynI8
                0x000000002000193c                rssi
                0x000000002000193e                GPS_numSat
                0x000000002000193f                GPS_numCh
                0x0000000020001940                headFreeModeHold
                0x0000000020001942                rcData
                0x0000000020001966                dynD8
                0x0000000020001969                dynP8
                0x000000002000196c                GPS_svinfo_cno
                0x000000002000197c                AccInflightCalibrationArmed
                0x000000002000197e                lookupPitchRollRC
 COMMON         0x000000002000198c       0x3e obj/SKYROVER/sensors.o
                0x000000002000198c                acc
                0x000000002000199c                magHold
                0x00000000200019a0                gyro
                0x00000000200019b0                baro
                0x00000000200019c8                heading
 COMMON         0x00000000200019ca       0x10 obj/SKYROVER/spektrum.o
                0x00000000200019ca                spekFrame
 *fill*         0x00000000200019da        0x2 00
 COMMON         0x00000000200019dc      0x490 obj/SKYROVER/drv_softserial.o
                0x00000000200019dc                softSerialPorts
                0x0000000020001e6c                . = ALIGN (0x4)
                0x0000000020001e6c                _ebss = .
                0x0000000020001e6c                __bss_end__ = _ebss

._user_heap_stack
                0x0000000020001e6c      0x400 load address 0x0000000008015de4
                0x0000000020001e6c                . = ALIGN (0x4)
                0x0000000020001e6c                PROVIDE (end, .)
                0x0000000020001e6c                PROVIDE (_end, .)
                0x0000000020001e6c                . = (. + _Min_Heap_Size)
                0x000000002000226c                . = (. + _Min_Stack_Size)
 *fill*         0x0000000020001e6c      0x400 00
                0x000000002000226c                . = ALIGN (0x4)

.memory_b1_text
 *(.mb1text)
 *(.mb1text*)
 *(.mb1rodata)
 *(.mb1rodata*)

/DISCARD/
 libc.a(*)
 libm.a(*)
 libgcc.a(*)

.ARM.attributes
                0x0000000000000000       0x29
 *(.ARM.attributes)
 .ARM.attributes
                0x0000000000000000       0x1d /Users/imac/Develop/stm32f4/arm_gcc/gcc-arm-none-eabi-4_7-2013q3/bin/../lib/gcc/arm-none-eabi/4.7.4/armv7-m/crti.o
 .ARM.attributes
                0x000000000000001d       0x2d /Users/imac/Develop/stm32f4/arm_gcc/gcc-arm-none-eabi-4_7-2013q3/bin/../lib/gcc/arm-none-eabi/4.7.4/armv7-m/crtbegin.o
 .ARM.attributes
                0x000000000000004a       0x33 obj/SKYROVER/drv_adc.o
 .ARM.attributes
                0x000000000000007d       0x33 obj/SKYROVER/drv_adxl345.o
 .ARM.attributes
                0x00000000000000b0       0x33 obj/SKYROVER/drv_bma280.o
 .ARM.attributes
                0x00000000000000e3       0x33 obj/SKYROVER/drv_bmp085.o
 .ARM.attributes
                0x0000000000000116       0x33 obj/SKYROVER/drv_ms5611.o
 .ARM.attributes
                0x0000000000000149       0x33 obj/SKYROVER/drv_hmc5883l.o
 .ARM.attributes
                0x000000000000017c       0x33 obj/SKYROVER/drv_mma845x.o
 .ARM.attributes
                0x00000000000001af       0x33 obj/SKYROVER/drv_mpu3050.o
 .ARM.attributes
                0x00000000000001e2       0x33 obj/SKYROVER/drv_mpu6050.o
 .ARM.attributes
                0x0000000000000215       0x33 obj/SKYROVER/drv_l3g4200d.o
 .ARM.attributes
                0x0000000000000248       0x33 obj/SKYROVER/drv_pwm.o
 .ARM.attributes
                0x000000000000027b       0x33 obj/SKYROVER/drv_spi.o
 .ARM.attributes
                0x00000000000002ae       0x33 obj/SKYROVER/drv_timer.o
 .ARM.attributes
                0x00000000000002e1       0x33 obj/SKYROVER/hexairbot.o
 .ARM.attributes
                0x0000000000000314       0x21 obj/SKYROVER/startup_stm32f10x_md_gcc.o
 .ARM.attributes
                0x0000000000000335       0x33 obj/SKYROVER/buzzer.o
 .ARM.attributes
                0x0000000000000368       0x33 obj/SKYROVER/cli.o
 .ARM.attributes
                0x000000000000039b       0x33 obj/SKYROVER/config.o
 .ARM.attributes
                0x00000000000003ce       0x33 obj/SKYROVER/gps.o
 .ARM.attributes
                0x0000000000000401       0x33 obj/SKYROVER/imu.o
 .ARM.attributes
                0x0000000000000434       0x33 obj/SKYROVER/main.o
 .ARM.attributes
                0x0000000000000467       0x33 obj/SKYROVER/mixer.o
 .ARM.attributes
                0x000000000000049a       0x33 obj/SKYROVER/mw.o
 .ARM.attributes
                0x00000000000004cd       0x33 obj/SKYROVER/sensors.o
 .ARM.attributes
                0x0000000000000500       0x33 obj/SKYROVER/serial.o
 .ARM.attributes
                0x0000000000000533       0x33 obj/SKYROVER/sbus.o
 .ARM.attributes
                0x0000000000000566       0x33 obj/SKYROVER/sumd.o
 .ARM.attributes
                0x0000000000000599       0x33 obj/SKYROVER/spektrum.o
 .ARM.attributes
                0x00000000000005cc       0x33 obj/SKYROVER/telemetry.o
 .ARM.attributes
                0x00000000000005ff       0x33 obj/SKYROVER/drv_gpio.o
 .ARM.attributes
                0x0000000000000632       0x33 obj/SKYROVER/drv_i2c.o
 .ARM.attributes
                0x0000000000000665       0x33 obj/SKYROVER/drv_system.o
 .ARM.attributes
                0x0000000000000698       0x33 obj/SKYROVER/drv_serial.o
 .ARM.attributes
                0x00000000000006cb       0x33 obj/SKYROVER/drv_softserial.o
 .ARM.attributes
                0x00000000000006fe       0x33 obj/SKYROVER/drv_uart.o
 .ARM.attributes
                0x0000000000000731       0x33 obj/SKYROVER/printf.o
 .ARM.attributes
                0x0000000000000764       0x33 obj/SKYROVER/utils.o
 .ARM.attributes
                0x0000000000000797       0x33 obj/SKYROVER/system_stm32f10x.o
 .ARM.attributes
                0x00000000000007ca       0x33 obj/SKYROVER/misc.o
 .ARM.attributes
                0x00000000000007fd       0x33 obj/SKYROVER/stm32f10x_adc.o
 .ARM.attributes
                0x0000000000000830       0x33 obj/SKYROVER/stm32f10x_dma.o
 .ARM.attributes
                0x0000000000000863       0x33 obj/SKYROVER/stm32f10x_exti.o
 .ARM.attributes
                0x0000000000000896       0x33 obj/SKYROVER/stm32f10x_flash.o
 .ARM.attributes
                0x00000000000008c9       0x33 obj/SKYROVER/stm32f10x_i2c.o
 .ARM.attributes
                0x00000000000008fc       0x33 obj/SKYROVER/stm32f10x_rcc.o
 .ARM.attributes
                0x000000000000092f       0x33 obj/SKYROVER/stm32f10x_spi.o
 .ARM.attributes
                0x0000000000000962       0x33 obj/SKYROVER/stm32f10x_tim.o
 .ARM.attributes
                0x0000000000000995       0x33 obj/SKYROVER/stm32f10x_usart.o
 .ARM.attributes
                0x00000000000009c8       0x2d /Users/imac/Develop/stm32f4/arm_gcc/gcc-arm-none-eabi-4_7-2013q3/bin/../lib/gcc/arm-none-eabi/4.7.4/../../../../arm-none-eabi/lib/armv7-m/libm.a(lib_a-sf_cos.o)
 .ARM.attributes
                0x00000000000009f5       0x2d /Users/imac/Develop/stm32f4/arm_gcc/gcc-arm-none-eabi-4_7-2013q3/bin/../lib/gcc/arm-none-eabi/4.7.4/../../../../arm-none-eabi/lib/armv7-m/libm.a(lib_a-sf_lrint.o)
 .ARM.attributes
                0x0000000000000a22       0x2d /Users/imac/Develop/stm32f4/arm_gcc/gcc-arm-none-eabi-4_7-2013q3/bin/../lib/gcc/arm-none-eabi/4.7.4/../../../../arm-none-eabi/lib/armv7-m/libm.a(lib_a-sf_sin.o)
 .ARM.attributes
                0x0000000000000a4f       0x2d /Users/imac/Develop/stm32f4/arm_gcc/gcc-arm-none-eabi-4_7-2013q3/bin/../lib/gcc/arm-none-eabi/4.7.4/../../../../arm-none-eabi/lib/armv7-m/libm.a(lib_a-wf_atan2.o)
 .ARM.attributes
                0x0000000000000a7c       0x2d /Users/imac/Develop/stm32f4/arm_gcc/gcc-arm-none-eabi-4_7-2013q3/bin/../lib/gcc/arm-none-eabi/4.7.4/../../../../arm-none-eabi/lib/armv7-m/libm.a(lib_a-wf_pow.o)
 .ARM.attributes
                0x0000000000000aa9       0x2d /Users/imac/Develop/stm32f4/arm_gcc/gcc-arm-none-eabi-4_7-2013q3/bin/../lib/gcc/arm-none-eabi/4.7.4/../../../../arm-none-eabi/lib/armv7-m/libm.a(lib_a-wf_sqrt.o)
 .ARM.attributes
                0x0000000000000ad6       0x2d /Users/imac/Develop/stm32f4/arm_gcc/gcc-arm-none-eabi-4_7-2013q3/bin/../lib/gcc/arm-none-eabi/4.7.4/../../../../arm-none-eabi/lib/armv7-m/libm.a(lib_a-ef_atan2.o)
 .ARM.attributes
                0x0000000000000b03       0x2d /Users/imac/Develop/stm32f4/arm_gcc/gcc-arm-none-eabi-4_7-2013q3/bin/../lib/gcc/arm-none-eabi/4.7.4/../../../../arm-none-eabi/lib/armv7-m/libm.a(lib_a-ef_pow.o)
 .ARM.attributes
                0x0000000000000b30       0x2d /Users/imac/Develop/stm32f4/arm_gcc/gcc-arm-none-eabi-4_7-2013q3/bin/../lib/gcc/arm-none-eabi/4.7.4/../../../../arm-none-eabi/lib/armv7-m/libm.a(lib_a-ef_rem_pio2.o)
 .ARM.attributes
                0x0000000000000b5d       0x2d /Users/imac/Develop/stm32f4/arm_gcc/gcc-arm-none-eabi-4_7-2013q3/bin/../lib/gcc/arm-none-eabi/4.7.4/../../../../arm-none-eabi/lib/armv7-m/libm.a(lib_a-ef_sqrt.o)
 .ARM.attributes
                0x0000000000000b8a       0x2d /Users/imac/Develop/stm32f4/arm_gcc/gcc-arm-none-eabi-4_7-2013q3/bin/../lib/gcc/arm-none-eabi/4.7.4/../../../../arm-none-eabi/lib/armv7-m/libm.a(lib_a-kf_cos.o)
 .ARM.attributes
                0x0000000000000bb7       0x2d /Users/imac/Develop/stm32f4/arm_gcc/gcc-arm-none-eabi-4_7-2013q3/bin/../lib/gcc/arm-none-eabi/4.7.4/../../../../arm-none-eabi/lib/armv7-m/libm.a(lib_a-kf_rem_pio2.o)
 .ARM.attributes
                0x0000000000000be4       0x2d /Users/imac/Develop/stm32f4/arm_gcc/gcc-arm-none-eabi-4_7-2013q3/bin/../lib/gcc/arm-none-eabi/4.7.4/../../../../arm-none-eabi/lib/armv7-m/libm.a(lib_a-kf_sin.o)
 .ARM.attributes
                0x0000000000000c11       0x2d /Users/imac/Develop/stm32f4/arm_gcc/gcc-arm-none-eabi-4_7-2013q3/bin/../lib/gcc/arm-none-eabi/4.7.4/../../../../arm-none-eabi/lib/armv7-m/libm.a(lib_a-s_lib_ver.o)
 .ARM.attributes
                0x0000000000000c3e       0x2d /Users/imac/Develop/stm32f4/arm_gcc/gcc-arm-none-eabi-4_7-2013q3/bin/../lib/gcc/arm-none-eabi/4.7.4/../../../../arm-none-eabi/lib/armv7-m/libm.a(lib_a-s_matherr.o)
 .ARM.attributes
                0x0000000000000c6b       0x2d /Users/imac/Develop/stm32f4/arm_gcc/gcc-arm-none-eabi-4_7-2013q3/bin/../lib/gcc/arm-none-eabi/4.7.4/../../../../arm-none-eabi/lib/armv7-m/libm.a(lib_a-s_rint.o)
 .ARM.attributes
                0x0000000000000c98       0x2d /Users/imac/Develop/stm32f4/arm_gcc/gcc-arm-none-eabi-4_7-2013q3/bin/../lib/gcc/arm-none-eabi/4.7.4/../../../../arm-none-eabi/lib/armv7-m/libm.a(lib_a-sf_atan.o)
 .ARM.attributes
                0x0000000000000cc5       0x2d /Users/imac/Develop/stm32f4/arm_gcc/gcc-arm-none-eabi-4_7-2013q3/bin/../lib/gcc/arm-none-eabi/4.7.4/../../../../arm-none-eabi/lib/armv7-m/libm.a(lib_a-sf_fabs.o)
 .ARM.attributes
                0x0000000000000cf2       0x2d /Users/imac/Develop/stm32f4/arm_gcc/gcc-arm-none-eabi-4_7-2013q3/bin/../lib/gcc/arm-none-eabi/4.7.4/../../../../arm-none-eabi/lib/armv7-m/libm.a(lib_a-sf_finite.o)
 .ARM.attributes
                0x0000000000000d1f       0x2d /Users/imac/Develop/stm32f4/arm_gcc/gcc-arm-none-eabi-4_7-2013q3/bin/../lib/gcc/arm-none-eabi/4.7.4/../../../../arm-none-eabi/lib/armv7-m/libm.a(lib_a-sf_floor.o)
 .ARM.attributes
                0x0000000000000d4c       0x2d /Users/imac/Develop/stm32f4/arm_gcc/gcc-arm-none-eabi-4_7-2013q3/bin/../lib/gcc/arm-none-eabi/4.7.4/../../../../arm-none-eabi/lib/armv7-m/libm.a(lib_a-sf_fpclassify.o)
 .ARM.attributes
                0x0000000000000d79       0x2d /Users/imac/Develop/stm32f4/arm_gcc/gcc-arm-none-eabi-4_7-2013q3/bin/../lib/gcc/arm-none-eabi/4.7.4/../../../../arm-none-eabi/lib/armv7-m/libm.a(lib_a-sf_nan.o)
 .ARM.attributes
                0x0000000000000da6       0x2d /Users/imac/Develop/stm32f4/arm_gcc/gcc-arm-none-eabi-4_7-2013q3/bin/../lib/gcc/arm-none-eabi/4.7.4/../../../../arm-none-eabi/lib/armv7-m/libm.a(lib_a-sf_scalbn.o)
 .ARM.attributes
                0x0000000000000dd3       0x2d /Users/imac/Develop/stm32f4/arm_gcc/gcc-arm-none-eabi-4_7-2013q3/bin/../lib/gcc/arm-none-eabi/4.7.4/../../../../arm-none-eabi/lib/armv7-m/libm.a(lib_a-sf_copysign.o)
 .ARM.attributes
                0x0000000000000e00       0x1d /Users/imac/Develop/stm32f4/arm_gcc/gcc-arm-none-eabi-4_7-2013q3/bin/../lib/gcc/arm-none-eabi/4.7.4/armv7-m/libgcc.a(_arm_addsubdf3.o)
 .ARM.attributes
                0x0000000000000e1d       0x1d /Users/imac/Develop/stm32f4/arm_gcc/gcc-arm-none-eabi-4_7-2013q3/bin/../lib/gcc/arm-none-eabi/4.7.4/armv7-m/libgcc.a(_arm_muldivdf3.o)
 .ARM.attributes
                0x0000000000000e3a       0x1d /Users/imac/Develop/stm32f4/arm_gcc/gcc-arm-none-eabi-4_7-2013q3/bin/../lib/gcc/arm-none-eabi/4.7.4/armv7-m/libgcc.a(_arm_cmpdf2.o)
 .ARM.attributes
                0x0000000000000e57       0x1d /Users/imac/Develop/stm32f4/arm_gcc/gcc-arm-none-eabi-4_7-2013q3/bin/../lib/gcc/arm-none-eabi/4.7.4/armv7-m/libgcc.a(_arm_truncdfsf2.o)
 .ARM.attributes
                0x0000000000000e74       0x1d /Users/imac/Develop/stm32f4/arm_gcc/gcc-arm-none-eabi-4_7-2013q3/bin/../lib/gcc/arm-none-eabi/4.7.4/armv7-m/libgcc.a(_arm_addsubsf3.o)
 .ARM.attributes
                0x0000000000000e91       0x1d /Users/imac/Develop/stm32f4/arm_gcc/gcc-arm-none-eabi-4_7-2013q3/bin/../lib/gcc/arm-none-eabi/4.7.4/armv7-m/libgcc.a(_arm_muldivsf3.o)
 .ARM.attributes
                0x0000000000000eae       0x1d /Users/imac/Develop/stm32f4/arm_gcc/gcc-arm-none-eabi-4_7-2013q3/bin/../lib/gcc/arm-none-eabi/4.7.4/armv7-m/libgcc.a(_arm_cmpsf2.o)
 .ARM.attributes
                0x0000000000000ecb       0x1d /Users/imac/Develop/stm32f4/arm_gcc/gcc-arm-none-eabi-4_7-2013q3/bin/../lib/gcc/arm-none-eabi/4.7.4/armv7-m/libgcc.a(_arm_fixsfsi.o)
 .ARM.attributes
                0x0000000000000ee8       0x1d /Users/imac/Develop/stm32f4/arm_gcc/gcc-arm-none-eabi-4_7-2013q3/bin/../lib/gcc/arm-none-eabi/4.7.4/armv7-m/libgcc.a(_arm_fixunssfsi.o)
 .ARM.attributes
                0x0000000000000f05       0x2d /Users/imac/Develop/stm32f4/arm_gcc/gcc-arm-none-eabi-4_7-2013q3/bin/../lib/gcc/arm-none-eabi/4.7.4/../../../../arm-none-eabi/lib/armv7-m/libc.a(lib_a-__atexit.o)
 .ARM.attributes
                0x0000000000000f32       0x2d /Users/imac/Develop/stm32f4/arm_gcc/gcc-arm-none-eabi-4_7-2013q3/bin/../lib/gcc/arm-none-eabi/4.7.4/../../../../arm-none-eabi/lib/armv7-m/libc.a(lib_a-atoi.o)
 .ARM.attributes
                0x0000000000000f5f       0x2d /Users/imac/Develop/stm32f4/arm_gcc/gcc-arm-none-eabi-4_7-2013q3/bin/../lib/gcc/arm-none-eabi/4.7.4/../../../../arm-none-eabi/lib/armv7-m/libc.a(lib_a-bsearch.o)
 .ARM.attributes
                0x0000000000000f8c       0x2d /Users/imac/Develop/stm32f4/arm_gcc/gcc-arm-none-eabi-4_7-2013q3/bin/../lib/gcc/arm-none-eabi/4.7.4/../../../../arm-none-eabi/lib/armv7-m/libc.a(lib_a-ctype_.o)
 .ARM.attributes
                0x0000000000000fb9       0x2d /Users/imac/Develop/stm32f4/arm_gcc/gcc-arm-none-eabi-4_7-2013q3/bin/../lib/gcc/arm-none-eabi/4.7.4/../../../../arm-none-eabi/lib/armv7-m/libc.a(lib_a-errno.o)
 .ARM.attributes
                0x0000000000000fe6       0x2d /Users/imac/Develop/stm32f4/arm_gcc/gcc-arm-none-eabi-4_7-2013q3/bin/../lib/gcc/arm-none-eabi/4.7.4/../../../../arm-none-eabi/lib/armv7-m/libc.a(lib_a-fini.o)
 .ARM.attributes
                0x0000000000001013       0x2d /Users/imac/Develop/stm32f4/arm_gcc/gcc-arm-none-eabi-4_7-2013q3/bin/../lib/gcc/arm-none-eabi/4.7.4/../../../../arm-none-eabi/lib/armv7-m/libc.a(lib_a-impure.o)
 .ARM.attributes
                0x0000000000001040       0x2d /Users/imac/Develop/stm32f4/arm_gcc/gcc-arm-none-eabi-4_7-2013q3/bin/../lib/gcc/arm-none-eabi/4.7.4/../../../../arm-none-eabi/lib/armv7-m/libc.a(lib_a-init.o)
 .ARM.attributes
                0x000000000000106d       0x2d /Users/imac/Develop/stm32f4/arm_gcc/gcc-arm-none-eabi-4_7-2013q3/bin/../lib/gcc/arm-none-eabi/4.7.4/../../../../arm-none-eabi/lib/armv7-m/libc.a(lib_a-memcpy.o)
 .ARM.attributes
                0x000000000000109a       0x2d /Users/imac/Develop/stm32f4/arm_gcc/gcc-arm-none-eabi-4_7-2013q3/bin/../lib/gcc/arm-none-eabi/4.7.4/../../../../arm-none-eabi/lib/armv7-m/libc.a(lib_a-memset.o)
 .ARM.attributes
                0x00000000000010c7       0x2d /Users/imac/Develop/stm32f4/arm_gcc/gcc-arm-none-eabi-4_7-2013q3/bin/../lib/gcc/arm-none-eabi/4.7.4/../../../../arm-none-eabi/lib/armv7-m/libc.a(lib_a-strcat.o)
 .ARM.attributes
                0x00000000000010f4       0x2d /Users/imac/Develop/stm32f4/arm_gcc/gcc-arm-none-eabi-4_7-2013q3/bin/../lib/gcc/arm-none-eabi/4.7.4/../../../../arm-none-eabi/lib/armv7-m/libc.a(lib_a-strchr.o)
 .ARM.attributes
                0x0000000000001121       0x2d /Users/imac/Develop/stm32f4/arm_gcc/gcc-arm-none-eabi-4_7-2013q3/bin/../lib/gcc/arm-none-eabi/4.7.4/../../../../arm-none-eabi/lib/armv7-m/libc.a(lib_a-strcpy.o)
 .ARM.attributes
                0x000000000000114e       0x2d /Users/imac/Develop/stm32f4/arm_gcc/gcc-arm-none-eabi-4_7-2013q3/bin/../lib/gcc/arm-none-eabi/4.7.4/../../../../arm-none-eabi/lib/armv7-m/libc.a(lib_a-strlen.o)
 .ARM.attributes
                0x000000000000117b       0x2d /Users/imac/Develop/stm32f4/arm_gcc/gcc-arm-none-eabi-4_7-2013q3/bin/../lib/gcc/arm-none-eabi/4.7.4/../../../../arm-none-eabi/lib/armv7-m/libc.a(lib_a-strncasecmp.o)
 .ARM.attributes
                0x00000000000011a8       0x2d /Users/imac/Develop/stm32f4/arm_gcc/gcc-arm-none-eabi-4_7-2013q3/bin/../lib/gcc/arm-none-eabi/4.7.4/../../../../arm-none-eabi/lib/armv7-m/libc.a(lib_a-strncpy.o)
 .ARM.attributes
                0x00000000000011d5       0x2d /Users/imac/Develop/stm32f4/arm_gcc/gcc-arm-none-eabi-4_7-2013q3/bin/../lib/gcc/arm-none-eabi/4.7.4/../../../../arm-none-eabi/lib/armv7-m/libc.a(lib_a-strstr.o)
 .ARM.attributes
                0x0000000000001202       0x2d /Users/imac/Develop/stm32f4/arm_gcc/gcc-arm-none-eabi-4_7-2013q3/bin/../lib/gcc/arm-none-eabi/4.7.4/../../../../arm-none-eabi/lib/armv7-m/libc.a(lib_a-strtok.o)
 .ARM.attributes
                0x000000000000122f       0x2d /Users/imac/Develop/stm32f4/arm_gcc/gcc-arm-none-eabi-4_7-2013q3/bin/../lib/gcc/arm-none-eabi/4.7.4/../../../../arm-none-eabi/lib/armv7-m/libc.a(lib_a-strtok_r.o)
 .ARM.attributes
                0x000000000000125c       0x2d /Users/imac/Develop/stm32f4/arm_gcc/gcc-arm-none-eabi-4_7-2013q3/bin/../lib/gcc/arm-none-eabi/4.7.4/../../../../arm-none-eabi/lib/armv7-m/libc.a(lib_a-strtol.o)
 .ARM.attributes
                0x0000000000001289       0x2d /Users/imac/Develop/stm32f4/arm_gcc/gcc-arm-none-eabi-4_7-2013q3/bin/../lib/gcc/arm-none-eabi/4.7.4/../../../../arm-none-eabi/lib/armv7-m/libc.a(lib_a-__call_atexit.o)
 .ARM.attributes
                0x00000000000012b6       0x2d /Users/imac/Develop/stm32f4/arm_gcc/gcc-arm-none-eabi-4_7-2013q3/bin/../lib/gcc/arm-none-eabi/4.7.4/../../../../arm-none-eabi/lib/armv7-m/libc.a(lib_a-atexit.o)
 .ARM.attributes
                0x00000000000012e3       0x2d /Users/imac/Develop/stm32f4/arm_gcc/gcc-arm-none-eabi-4_7-2013q3/bin/../lib/gcc/arm-none-eabi/4.7.4/../../../../arm-none-eabi/lib/armv7-m/libc.a(lib_a-memchr.o)
 .ARM.attributes
                0x0000000000001310       0x2d /Users/imac/Develop/stm32f4/arm_gcc/gcc-arm-none-eabi-4_7-2013q3/bin/../lib/gcc/arm-none-eabi/4.7.4/../../../../arm-none-eabi/lib/armv7-m/libc.a(lib_a-memcmp.o)
 .ARM.attributes
                0x000000000000133d       0x1d /Users/imac/Develop/stm32f4/arm_gcc/gcc-arm-none-eabi-4_7-2013q3/bin/../lib/gcc/arm-none-eabi/4.7.4/armv7-m/crtn.o
OUTPUT(obj/SKYROVER.elf elf32-littlearm)

.comment        0x0000000000000000       0x70
 .comment       0x0000000000000000       0x70 obj/SKYROVER/drv_adc.o
                                         0x71 (size before relaxing)
 .comment       0x0000000000000000       0x71 obj/SKYROVER/drv_adxl345.o
 .comment       0x0000000000000000       0x71 obj/SKYROVER/drv_bma280.o
 .comment       0x0000000000000000       0x71 obj/SKYROVER/drv_bmp085.o
 .comment       0x0000000000000000       0x71 obj/SKYROVER/drv_ms5611.o
 .comment       0x0000000000000000       0x71 obj/SKYROVER/drv_hmc5883l.o
 .comment       0x0000000000000000       0x71 obj/SKYROVER/drv_mma845x.o
 .comment       0x0000000000000000       0x71 obj/SKYROVER/drv_mpu3050.o
 .comment       0x0000000000000000       0x71 obj/SKYROVER/drv_mpu6050.o
 .comment       0x0000000000000000       0x71 obj/SKYROVER/drv_l3g4200d.o
 .comment       0x0000000000000000       0x71 obj/SKYROVER/drv_pwm.o
 .comment       0x0000000000000000       0x71 obj/SKYROVER/drv_spi.o
 .comment       0x0000000000000000       0x71 obj/SKYROVER/drv_timer.o
 .comment       0x0000000000000000       0x71 obj/SKYROVER/hexairbot.o
 .comment       0x0000000000000000       0x71 obj/SKYROVER/buzzer.o
 .comment       0x0000000000000000       0x71 obj/SKYROVER/cli.o
 .comment       0x0000000000000000       0x71 obj/SKYROVER/config.o
 .comment       0x0000000000000000       0x71 obj/SKYROVER/gps.o
 .comment       0x0000000000000000       0x71 obj/SKYROVER/imu.o
 .comment       0x0000000000000000       0x71 obj/SKYROVER/main.o
 .comment       0x0000000000000000       0x71 obj/SKYROVER/mixer.o
 .comment       0x0000000000000000       0x71 obj/SKYROVER/mw.o
 .comment       0x0000000000000000       0x71 obj/SKYROVER/sensors.o
 .comment       0x0000000000000000       0x71 obj/SKYROVER/serial.o
 .comment       0x0000000000000000       0x71 obj/SKYROVER/sbus.o
 .comment       0x0000000000000000       0x71 obj/SKYROVER/sumd.o
 .comment       0x0000000000000000       0x71 obj/SKYROVER/spektrum.o
 .comment       0x0000000000000000       0x71 obj/SKYROVER/telemetry.o
 .comment       0x0000000000000000       0x71 obj/SKYROVER/drv_gpio.o
 .comment       0x0000000000000000       0x71 obj/SKYROVER/drv_i2c.o
 .comment       0x0000000000000000       0x71 obj/SKYROVER/drv_system.o
 .comment       0x0000000000000000       0x71 obj/SKYROVER/drv_serial.o
 .comment       0x0000000000000000       0x71 obj/SKYROVER/drv_softserial.o
 .comment       0x0000000000000000       0x71 obj/SKYROVER/drv_uart.o
 .comment       0x0000000000000000       0x71 obj/SKYROVER/printf.o
 .comment       0x0000000000000000       0x71 obj/SKYROVER/utils.o
 .comment       0x0000000000000000       0x71 obj/SKYROVER/system_stm32f10x.o
 .comment       0x0000000000000000       0x71 obj/SKYROVER/misc.o
 .comment       0x0000000000000000       0x71 obj/SKYROVER/stm32f10x_adc.o
 .comment       0x0000000000000000       0x71 obj/SKYROVER/stm32f10x_dma.o
 .comment       0x0000000000000000       0x71 obj/SKYROVER/stm32f10x_exti.o
 .comment       0x0000000000000000       0x71 obj/SKYROVER/stm32f10x_flash.o
 .comment       0x0000000000000000       0x71 obj/SKYROVER/stm32f10x_i2c.o
 .comment       0x0000000000000000       0x71 obj/SKYROVER/stm32f10x_rcc.o
 .comment       0x0000000000000000       0x71 obj/SKYROVER/stm32f10x_spi.o
 .comment       0x0000000000000000       0x71 obj/SKYROVER/stm32f10x_tim.o
 .comment       0x0000000000000000       0x71 obj/SKYROVER/stm32f10x_usart.o

.debug_frame    0x0000000000000000      0x850
 .debug_frame   0x0000000000000000       0x28 /Users/imac/Develop/stm32f4/arm_gcc/gcc-arm-none-eabi-4_7-2013q3/bin/../lib/gcc/arm-none-eabi/4.7.4/../../../../arm-none-eabi/lib/armv7-m/libm.a(lib_a-sf_cos.o)
 .debug_frame   0x0000000000000028       0x2c /Users/imac/Develop/stm32f4/arm_gcc/gcc-arm-none-eabi-4_7-2013q3/bin/../lib/gcc/arm-none-eabi/4.7.4/../../../../arm-none-eabi/lib/armv7-m/libm.a(lib_a-sf_lrint.o)
 .debug_frame   0x0000000000000054       0x28 /Users/imac/Develop/stm32f4/arm_gcc/gcc-arm-none-eabi-4_7-2013q3/bin/../lib/gcc/arm-none-eabi/4.7.4/../../../../arm-none-eabi/lib/armv7-m/libm.a(lib_a-sf_sin.o)
 .debug_frame   0x000000000000007c       0x20 /Users/imac/Develop/stm32f4/arm_gcc/gcc-arm-none-eabi-4_7-2013q3/bin/../lib/gcc/arm-none-eabi/4.7.4/../../../../arm-none-eabi/lib/armv7-m/libm.a(lib_a-wf_atan2.o)
 .debug_frame   0x000000000000009c       0x34 /Users/imac/Develop/stm32f4/arm_gcc/gcc-arm-none-eabi-4_7-2013q3/bin/../lib/gcc/arm-none-eabi/4.7.4/../../../../arm-none-eabi/lib/armv7-m/libm.a(lib_a-wf_pow.o)
 .debug_frame   0x00000000000000d0       0x30 /Users/imac/Develop/stm32f4/arm_gcc/gcc-arm-none-eabi-4_7-2013q3/bin/../lib/gcc/arm-none-eabi/4.7.4/../../../../arm-none-eabi/lib/armv7-m/libm.a(lib_a-wf_sqrt.o)
 .debug_frame   0x0000000000000100       0x30 /Users/imac/Develop/stm32f4/arm_gcc/gcc-arm-none-eabi-4_7-2013q3/bin/../lib/gcc/arm-none-eabi/4.7.4/../../../../arm-none-eabi/lib/armv7-m/libm.a(lib_a-ef_atan2.o)
 .debug_frame   0x0000000000000130       0x38 /Users/imac/Develop/stm32f4/arm_gcc/gcc-arm-none-eabi-4_7-2013q3/bin/../lib/gcc/arm-none-eabi/4.7.4/../../../../arm-none-eabi/lib/armv7-m/libm.a(lib_a-ef_pow.o)
 .debug_frame   0x0000000000000168       0x38 /Users/imac/Develop/stm32f4/arm_gcc/gcc-arm-none-eabi-4_7-2013q3/bin/../lib/gcc/arm-none-eabi/4.7.4/../../../../arm-none-eabi/lib/armv7-m/libm.a(lib_a-ef_rem_pio2.o)
 .debug_frame   0x00000000000001a0       0x30 /Users/imac/Develop/stm32f4/arm_gcc/gcc-arm-none-eabi-4_7-2013q3/bin/../lib/gcc/arm-none-eabi/4.7.4/../../../../arm-none-eabi/lib/armv7-m/libm.a(lib_a-ef_sqrt.o)
 .debug_frame   0x00000000000001d0       0x34 /Users/imac/Develop/stm32f4/arm_gcc/gcc-arm-none-eabi-4_7-2013q3/bin/../lib/gcc/arm-none-eabi/4.7.4/../../../../arm-none-eabi/lib/armv7-m/libm.a(lib_a-kf_cos.o)
 .debug_frame   0x0000000000000204       0x3c /Users/imac/Develop/stm32f4/arm_gcc/gcc-arm-none-eabi-4_7-2013q3/bin/../lib/gcc/arm-none-eabi/4.7.4/../../../../arm-none-eabi/lib/armv7-m/libm.a(lib_a-kf_rem_pio2.o)
 .debug_frame   0x0000000000000240       0x34 /Users/imac/Develop/stm32f4/arm_gcc/gcc-arm-none-eabi-4_7-2013q3/bin/../lib/gcc/arm-none-eabi/4.7.4/../../../../arm-none-eabi/lib/armv7-m/libm.a(lib_a-kf_sin.o)
 .debug_frame   0x0000000000000274       0x20 /Users/imac/Develop/stm32f4/arm_gcc/gcc-arm-none-eabi-4_7-2013q3/bin/../lib/gcc/arm-none-eabi/4.7.4/../../../../arm-none-eabi/lib/armv7-m/libm.a(lib_a-s_matherr.o)
 .debug_frame   0x0000000000000294       0x34 /Users/imac/Develop/stm32f4/arm_gcc/gcc-arm-none-eabi-4_7-2013q3/bin/../lib/gcc/arm-none-eabi/4.7.4/../../../../arm-none-eabi/lib/armv7-m/libm.a(lib_a-s_rint.o)
 .debug_frame   0x00000000000002c8       0x30 /Users/imac/Develop/stm32f4/arm_gcc/gcc-arm-none-eabi-4_7-2013q3/bin/../lib/gcc/arm-none-eabi/4.7.4/../../../../arm-none-eabi/lib/armv7-m/libm.a(lib_a-sf_atan.o)
 .debug_frame   0x00000000000002f8       0x20 /Users/imac/Develop/stm32f4/arm_gcc/gcc-arm-none-eabi-4_7-2013q3/bin/../lib/gcc/arm-none-eabi/4.7.4/../../../../arm-none-eabi/lib/armv7-m/libm.a(lib_a-sf_fabs.o)
 .debug_frame   0x0000000000000318       0x20 /Users/imac/Develop/stm32f4/arm_gcc/gcc-arm-none-eabi-4_7-2013q3/bin/../lib/gcc/arm-none-eabi/4.7.4/../../../../arm-none-eabi/lib/armv7-m/libm.a(lib_a-sf_finite.o)
 .debug_frame   0x0000000000000338       0x30 /Users/imac/Develop/stm32f4/arm_gcc/gcc-arm-none-eabi-4_7-2013q3/bin/../lib/gcc/arm-none-eabi/4.7.4/../../../../arm-none-eabi/lib/armv7-m/libm.a(lib_a-sf_floor.o)
 .debug_frame   0x0000000000000368       0x20 /Users/imac/Develop/stm32f4/arm_gcc/gcc-arm-none-eabi-4_7-2013q3/bin/../lib/gcc/arm-none-eabi/4.7.4/../../../../arm-none-eabi/lib/armv7-m/libm.a(lib_a-sf_fpclassify.o)
 .debug_frame   0x0000000000000388       0x20 /Users/imac/Develop/stm32f4/arm_gcc/gcc-arm-none-eabi-4_7-2013q3/bin/../lib/gcc/arm-none-eabi/4.7.4/../../../../arm-none-eabi/lib/armv7-m/libm.a(lib_a-sf_nan.o)
 .debug_frame   0x00000000000003a8       0x2c /Users/imac/Develop/stm32f4/arm_gcc/gcc-arm-none-eabi-4_7-2013q3/bin/../lib/gcc/arm-none-eabi/4.7.4/../../../../arm-none-eabi/lib/armv7-m/libm.a(lib_a-sf_scalbn.o)
 .debug_frame   0x00000000000003d4       0x20 /Users/imac/Develop/stm32f4/arm_gcc/gcc-arm-none-eabi-4_7-2013q3/bin/../lib/gcc/arm-none-eabi/4.7.4/../../../../arm-none-eabi/lib/armv7-m/libm.a(lib_a-sf_copysign.o)
 .debug_frame   0x00000000000003f4       0x34 /Users/imac/Develop/stm32f4/arm_gcc/gcc-arm-none-eabi-4_7-2013q3/bin/../lib/gcc/arm-none-eabi/4.7.4/../../../../arm-none-eabi/lib/armv7-m/libc.a(lib_a-__atexit.o)
 .debug_frame   0x0000000000000428       0x30 /Users/imac/Develop/stm32f4/arm_gcc/gcc-arm-none-eabi-4_7-2013q3/bin/../lib/gcc/arm-none-eabi/4.7.4/../../../../arm-none-eabi/lib/armv7-m/libc.a(lib_a-atoi.o)
 .debug_frame   0x0000000000000458       0x38 /Users/imac/Develop/stm32f4/arm_gcc/gcc-arm-none-eabi-4_7-2013q3/bin/../lib/gcc/arm-none-eabi/4.7.4/../../../../arm-none-eabi/lib/armv7-m/libc.a(lib_a-bsearch.o)
 .debug_frame   0x0000000000000490       0x20 /Users/imac/Develop/stm32f4/arm_gcc/gcc-arm-none-eabi-4_7-2013q3/bin/../lib/gcc/arm-none-eabi/4.7.4/../../../../arm-none-eabi/lib/armv7-m/libc.a(lib_a-errno.o)
 .debug_frame   0x00000000000004b0       0x2c /Users/imac/Develop/stm32f4/arm_gcc/gcc-arm-none-eabi-4_7-2013q3/bin/../lib/gcc/arm-none-eabi/4.7.4/../../../../arm-none-eabi/lib/armv7-m/libc.a(lib_a-fini.o)
 .debug_frame   0x00000000000004dc       0x30 /Users/imac/Develop/stm32f4/arm_gcc/gcc-arm-none-eabi-4_7-2013q3/bin/../lib/gcc/arm-none-eabi/4.7.4/../../../../arm-none-eabi/lib/armv7-m/libc.a(lib_a-init.o)
 .debug_frame   0x000000000000050c       0x30 /Users/imac/Develop/stm32f4/arm_gcc/gcc-arm-none-eabi-4_7-2013q3/bin/../lib/gcc/arm-none-eabi/4.7.4/../../../../arm-none-eabi/lib/armv7-m/libc.a(lib_a-memcpy.o)
 .debug_frame   0x000000000000053c       0x2c /Users/imac/Develop/stm32f4/arm_gcc/gcc-arm-none-eabi-4_7-2013q3/bin/../lib/gcc/arm-none-eabi/4.7.4/../../../../arm-none-eabi/lib/armv7-m/libc.a(lib_a-memset.o)
 .debug_frame   0x0000000000000568       0x2c /Users/imac/Develop/stm32f4/arm_gcc/gcc-arm-none-eabi-4_7-2013q3/bin/../lib/gcc/arm-none-eabi/4.7.4/../../../../arm-none-eabi/lib/armv7-m/libc.a(lib_a-strcat.o)
 .debug_frame   0x0000000000000594       0x2c /Users/imac/Develop/stm32f4/arm_gcc/gcc-arm-none-eabi-4_7-2013q3/bin/../lib/gcc/arm-none-eabi/4.7.4/../../../../arm-none-eabi/lib/armv7-m/libc.a(lib_a-strchr.o)
 .debug_frame   0x00000000000005c0       0x20 /Users/imac/Develop/stm32f4/arm_gcc/gcc-arm-none-eabi-4_7-2013q3/bin/../lib/gcc/arm-none-eabi/4.7.4/../../../../arm-none-eabi/lib/armv7-m/libc.a(lib_a-strcpy.o)
 .debug_frame   0x00000000000005e0       0x20 /Users/imac/Develop/stm32f4/arm_gcc/gcc-arm-none-eabi-4_7-2013q3/bin/../lib/gcc/arm-none-eabi/4.7.4/../../../../arm-none-eabi/lib/armv7-m/libc.a(lib_a-strlen.o)
 .debug_frame   0x0000000000000600       0x2c /Users/imac/Develop/stm32f4/arm_gcc/gcc-arm-none-eabi-4_7-2013q3/bin/../lib/gcc/arm-none-eabi/4.7.4/../../../../arm-none-eabi/lib/armv7-m/libc.a(lib_a-strncasecmp.o)
 .debug_frame   0x000000000000062c       0x2c /Users/imac/Develop/stm32f4/arm_gcc/gcc-arm-none-eabi-4_7-2013q3/bin/../lib/gcc/arm-none-eabi/4.7.4/../../../../arm-none-eabi/lib/armv7-m/libc.a(lib_a-strncpy.o)
 .debug_frame   0x0000000000000658       0x88 /Users/imac/Develop/stm32f4/arm_gcc/gcc-arm-none-eabi-4_7-2013q3/bin/../lib/gcc/arm-none-eabi/4.7.4/../../../../arm-none-eabi/lib/armv7-m/libc.a(lib_a-strstr.o)
 .debug_frame   0x00000000000006e0       0x20 /Users/imac/Develop/stm32f4/arm_gcc/gcc-arm-none-eabi-4_7-2013q3/bin/../lib/gcc/arm-none-eabi/4.7.4/../../../../arm-none-eabi/lib/armv7-m/libc.a(lib_a-strtok.o)
 .debug_frame   0x0000000000000700       0x3c /Users/imac/Develop/stm32f4/arm_gcc/gcc-arm-none-eabi-4_7-2013q3/bin/../lib/gcc/arm-none-eabi/4.7.4/../../../../arm-none-eabi/lib/armv7-m/libc.a(lib_a-strtok_r.o)
 .debug_frame   0x000000000000073c       0x54 /Users/imac/Develop/stm32f4/arm_gcc/gcc-arm-none-eabi-4_7-2013q3/bin/../lib/gcc/arm-none-eabi/4.7.4/../../../../arm-none-eabi/lib/armv7-m/libc.a(lib_a-strtol.o)
 .debug_frame   0x0000000000000790       0x48 /Users/imac/Develop/stm32f4/arm_gcc/gcc-arm-none-eabi-4_7-2013q3/bin/../lib/gcc/arm-none-eabi/4.7.4/../../../../arm-none-eabi/lib/armv7-m/libc.a(lib_a-__call_atexit.o)
 .debug_frame   0x00000000000007d8       0x20 /Users/imac/Develop/stm32f4/arm_gcc/gcc-arm-none-eabi-4_7-2013q3/bin/../lib/gcc/arm-none-eabi/4.7.4/../../../../arm-none-eabi/lib/armv7-m/libc.a(lib_a-atexit.o)
 .debug_frame   0x00000000000007f8       0x2c /Users/imac/Develop/stm32f4/arm_gcc/gcc-arm-none-eabi-4_7-2013q3/bin/../lib/gcc/arm-none-eabi/4.7.4/../../../../arm-none-eabi/lib/armv7-m/libc.a(lib_a-memchr.o)
 .debug_frame   0x0000000000000824       0x2c /Users/imac/Develop/stm32f4/arm_gcc/gcc-arm-none-eabi-4_7-2013q3/bin/../lib/gcc/arm-none-eabi/4.7.4/../../../../arm-none-eabi/lib/armv7-m/libc.a(lib_a-memcmp.o)
