
main.elf:     file format elf32-littlearm

Sections:
Idx Name          Size      VMA       LMA       File off  Algn
  0 .text         0000226c  08000000  08000000  00008000  2**2
                  CONTENTS, ALLOC, LOAD, READONLY, CODE
  1 .data         000000e4  20000000  0800226c  00010000  2**2
                  CONTENTS, ALLOC, LOAD, DATA
  2 .bss          0000112c  20000200  08002600  00010200  2**9
                  ALLOC
  3 ._usrstack    00001000  2000132c  0800372c  00010200  2**0
                  ALLOC
  4 .debug_info   00006b51  00000000  00000000  000100e4  2**0
                  CONTENTS, READONLY, DEBUGGING
  5 .debug_abbrev 000023cd  00000000  00000000  00016c35  2**0
                  CONTENTS, READONLY, DEBUGGING
  6 .debug_loc    00003e00  00000000  00000000  00019002  2**0
                  CONTENTS, READONLY, DEBUGGING
  7 .debug_aranges 00000930  00000000  00000000  0001ce02  2**0
                  CONTENTS, READONLY, DEBUGGING
  8 .debug_ranges 00000918  00000000  00000000  0001d732  2**0
                  CONTENTS, READONLY, DEBUGGING
  9 .debug_line   00002b22  00000000  00000000  0001e04a  2**0
                  CONTENTS, READONLY, DEBUGGING
 10 .debug_str    00002325  00000000  00000000  00020b6c  2**0
                  CONTENTS, READONLY, DEBUGGING
 11 .comment      00000070  00000000  00000000  00022e91  2**0
                  CONTENTS, READONLY
 12 .ARM.attributes 00000033  00000000  00000000  00022f01  2**0
                  CONTENTS, READONLY
 13 .debug_frame  000014e0  00000000  00000000  00022f34  2**2
                  CONTENTS, READONLY, DEBUGGING

Disassembly of section .text:

08000000 <g_pfnVectors>:
 8000000:	00 50 00 20 2d 04 00 08                             .P. -...

08000008 <LED_Tick>:
static void Main_Init( void );



void LED_Tick( void )
{
 8000008:	b510      	push	{r4, lr}
	Hw_Led_Toggle(0);
 800000a:	2000      	movs	r0, #0
 800000c:	4c02      	ldr	r4, [pc, #8]	; (8000018 <LED_Tick+0x10>)
 800000e:	47a0      	blx	r4
	Hw_Led_Toggle(1);	
 8000010:	2001      	movs	r0, #1
 8000012:	47a0      	blx	r4
 8000014:	bd10      	pop	{r4, pc}
 8000016:	bf00      	nop
 8000018:	08000b31 	.word	0x08000b31

0800001c <main>:
     ARG     : 	void
     RET     : 	
     			int
---------------------------------------------------------------------------*/
int main(void)
{
 800001c:	b530      	push	{r4, r5, lr}
     ARG     : void
     RET     : void
---------------------------------------------------------------------------*/
void Main_Init( void )
{
	Hw_Init();
 800001e:	4b20      	ldr	r3, [pc, #128]	; (80000a0 <main+0x84>)
     ARG     : 	void
     RET     : 	
     			int
---------------------------------------------------------------------------*/
int main(void)
{
 8000020:	b085      	sub	sp, #20
     ARG     : void
     RET     : void
---------------------------------------------------------------------------*/
void Main_Init( void )
{
	Hw_Init();
 8000022:	4798      	blx	r3
	Ap_Init();
	
	Hw_Timer_Set  ( HW_TIMER_CH_LED, 1000, LOOP_TIME, LED_Tick, NULL );
 8000024:	2400      	movs	r4, #0
     RET     : void
---------------------------------------------------------------------------*/
void Main_Init( void )
{
	Hw_Init();
	Ap_Init();
 8000026:	481f      	ldr	r0, [pc, #124]	; (80000a4 <main+0x88>)
 8000028:	4780      	blx	r0
	
	Hw_Timer_Set  ( HW_TIMER_CH_LED, 1000, LOOP_TIME, LED_Tick, NULL );
 800002a:	4d1f      	ldr	r5, [pc, #124]	; (80000a8 <main+0x8c>)
 800002c:	2202      	movs	r2, #2
 800002e:	4b1f      	ldr	r3, [pc, #124]	; (80000ac <main+0x90>)
 8000030:	4620      	mov	r0, r4
 8000032:	f44f 717a 	mov.w	r1, #1000	; 0x3e8
 8000036:	9400      	str	r4, [sp, #0]
 8000038:	47a8      	blx	r5
	Hw_Timer_Start( HW_TIMER_CH_LED );	
 800003a:	4620      	mov	r0, r4
 800003c:	491c      	ldr	r1, [pc, #112]	; (80000b0 <main+0x94>)
 800003e:	4788      	blx	r1

	Main_Init();


	
	if( Ap_ST32BL_RunBoot == TRUE )
 8000040:	4a1c      	ldr	r2, [pc, #112]	; (80000b4 <main+0x98>)
 8000042:	7813      	ldrb	r3, [r2, #0]
 8000044:	2b01      	cmp	r3, #1
 8000046:	d125      	bne.n	8000094 <main+0x78>
		//-- 먼저 명령을 보낸 포트로 다운로드 시작 
		//
		#if 1
		while(1)
		{
			if( HW_VCOM_Q_VAILD(0) > 0 )
 8000048:	2000      	movs	r0, #0
 800004a:	4a1b      	ldr	r2, [pc, #108]	; (80000b8 <main+0x9c>)
 800004c:	4790      	blx	r2
 800004e:	b150      	cbz	r0, 8000066 <main+0x4a>
			{
				Hw_VCom_Q_Pop( 0, &Uart_GetData );
 8000050:	2000      	movs	r0, #0
 8000052:	f10d 010f 	add.w	r1, sp, #15
 8000056:	4b19      	ldr	r3, [pc, #100]	; (80000bc <main+0xa0>)
 8000058:	4798      	blx	r3

				if( Uart_GetData == STM32_CMD_INIT )
 800005a:	f89d 000f 	ldrb.w	r0, [sp, #15]
 800005e:	287f      	cmp	r0, #127	; 0x7f
 8000060:	d101      	bne.n	8000066 <main+0x4a>
				{
					Ap_ST32BL_UartPort = HW_UART_VCOM;
 8000062:	2005      	movs	r0, #5
 8000064:	e00e      	b.n	8000084 <main+0x68>
					Ap_ST32BL_SendByte(STM32_COMM_ACK);
					break;
				}
			}

			if( HW_UART_Q_VAILD(HW_UART_COM1) > 0 )
 8000066:	2000      	movs	r0, #0
 8000068:	4915      	ldr	r1, [pc, #84]	; (80000c0 <main+0xa4>)
 800006a:	4788      	blx	r1
 800006c:	2800      	cmp	r0, #0
 800006e:	ddeb      	ble.n	8000048 <main+0x2c>
			{
				Hw_Uart_Q_Pop( HW_UART_COM1, &Uart_GetData );
 8000070:	2000      	movs	r0, #0
 8000072:	f10d 010f 	add.w	r1, sp, #15
 8000076:	4a13      	ldr	r2, [pc, #76]	; (80000c4 <main+0xa8>)
 8000078:	4790      	blx	r2

				if( Uart_GetData == STM32_CMD_INIT )
 800007a:	f89d 300f 	ldrb.w	r3, [sp, #15]
 800007e:	2b7f      	cmp	r3, #127	; 0x7f
 8000080:	d1e2      	bne.n	8000048 <main+0x2c>
				{
					Ap_ST32BL_UartPort = HW_UART_COM1;
 8000082:	2000      	movs	r0, #0
 8000084:	4910      	ldr	r1, [pc, #64]	; (80000c8 <main+0xac>)
					Ap_ST32BL_SendByte(STM32_COMM_ACK);
 8000086:	4a11      	ldr	r2, [pc, #68]	; (80000cc <main+0xb0>)
			{
				Hw_Uart_Q_Pop( HW_UART_COM1, &Uart_GetData );

				if( Uart_GetData == STM32_CMD_INIT )
				{
					Ap_ST32BL_UartPort = HW_UART_COM1;
 8000088:	7008      	strb	r0, [r1, #0]
					Ap_ST32BL_SendByte(STM32_COMM_ACK);
 800008a:	2079      	movs	r0, #121	; 0x79
 800008c:	4790      	blx	r2
					break;
				}
			}	
		}
		#endif
		Ap_ST32BL_Main();
 800008e:	4b10      	ldr	r3, [pc, #64]	; (80000d0 <main+0xb4>)
 8000090:	4798      	blx	r3
 8000092:	e002      	b.n	800009a <main+0x7e>
	}
	else
	{		
		Ap_ST32BL_JumpToApp(0);
 8000094:	4620      	mov	r0, r4
 8000096:	490f      	ldr	r1, [pc, #60]	; (80000d4 <main+0xb8>)
 8000098:	4788      	blx	r1
	}
    
    return 0;
}
 800009a:	2000      	movs	r0, #0
 800009c:	b005      	add	sp, #20
 800009e:	bd30      	pop	{r4, r5, pc}
 80000a0:	08000525 	.word	0x08000525
 80000a4:	080000d9 	.word	0x080000d9
 80000a8:	0800096d 	.word	0x0800096d
 80000ac:	08000009 	.word	0x08000009
 80000b0:	08000989 	.word	0x08000989
 80000b4:	200002ca 	.word	0x200002ca
 80000b8:	08000c09 	.word	0x08000c09
 80000bc:	08000c71 	.word	0x08000c71
 80000c0:	080009fd 	.word	0x080009fd
 80000c4:	08000a61 	.word	0x08000a61
 80000c8:	200002c9 	.word	0x200002c9
 80000cc:	08000139 	.word	0x08000139
 80000d0:	08000309 	.word	0x08000309
 80000d4:	080002cd 	.word	0x080002cd

080000d8 <Ap_Init>:
     WORK    : 
     ARG     : void
     RET     : void
---------------------------------------------------------------------------*/
void Ap_Init( void )
{
 80000d8:	b508      	push	{r3, lr}
	Ap_ST32BL_Init();
 80000da:	4b01      	ldr	r3, [pc, #4]	; (80000e0 <Ap_Init+0x8>)
 80000dc:	4798      	blx	r3
 80000de:	bd08      	pop	{r3, pc}
 80000e0:	080000e5 	.word	0x080000e5

080000e4 <Ap_ST32BL_Init>:
void Ap_ST32BL_Init( void )
{
	u32 i;


	REG_GPIOB_CRL &= ~(0x0F << (0));	// Clear
 80000e4:	4b10      	ldr	r3, [pc, #64]	; (8000128 <Ap_ST32BL_Init+0x44>)
 80000e6:	681a      	ldr	r2, [r3, #0]
 80000e8:	f022 000f 	bic.w	r0, r2, #15
 80000ec:	6018      	str	r0, [r3, #0]
	REG_GPIOB_CRL |=  (0x00 << (0));	// MODE, PB.0 Input Mode
 80000ee:	6819      	ldr	r1, [r3, #0]
 80000f0:	6019      	str	r1, [r3, #0]
	REG_GPIOB_CRL |=  (0x02 << (2));	// CNF,  PB.0 input	pull-up/pull-down
 80000f2:	681a      	ldr	r2, [r3, #0]
 80000f4:	f042 0008 	orr.w	r0, r2, #8
 80000f8:	6018      	str	r0, [r3, #0]
		
	CLR_BIT( REG_GPIOB_ODR, 0 );
 80000fa:	68d9      	ldr	r1, [r3, #12]
 80000fc:	f021 0201 	bic.w	r2, r1, #1
 8000100:	60da      	str	r2, [r3, #12]


	if( IS_SET_BIT(REG_GPIOB_IDR, 0) )
 8000102:	3308      	adds	r3, #8
 8000104:	681b      	ldr	r3, [r3, #0]
 8000106:	4909      	ldr	r1, [pc, #36]	; (800012c <Ap_ST32BL_Init+0x48>)
 8000108:	f013 0001 	ands.w	r0, r3, #1
	{
		Ap_ST32BL_RunBoot = TRUE;
 800010c:	bf18      	it	ne
 800010e:	2001      	movne	r0, #1
	}
	else
	{
		Ap_ST32BL_RunBoot = FALSE;
 8000110:	7008      	strb	r0, [r1, #0]
     WORK    : 
     ARG     : void
     RET     : void   
---------------------------------------------------------------------------*/
void Ap_ST32BL_Init( void )
{
 8000112:	2300      	movs	r3, #0
		Ap_ST32BL_RunBoot = FALSE;
	}

	for( i=0; i<128; i++ )
	{
		Ap_ST32BL_EraseSectorFlag[i] = FALSE;
 8000114:	4806      	ldr	r0, [pc, #24]	; (8000130 <Ap_ST32BL_Init+0x4c>)
 8000116:	2200      	movs	r2, #0
 8000118:	541a      	strb	r2, [r3, r0]
	else
	{
		Ap_ST32BL_RunBoot = FALSE;
	}

	for( i=0; i<128; i++ )
 800011a:	3301      	adds	r3, #1
 800011c:	2b80      	cmp	r3, #128	; 0x80
 800011e:	d1f9      	bne.n	8000114 <Ap_ST32BL_Init+0x30>
	{
		Ap_ST32BL_EraseSectorFlag[i] = FALSE;
	}

	Ap_ST32BL_UartPort = HW_UART_COM1;	
 8000120:	4904      	ldr	r1, [pc, #16]	; (8000134 <Ap_ST32BL_Init+0x50>)
 8000122:	700a      	strb	r2, [r1, #0]
 8000124:	4770      	bx	lr
 8000126:	bf00      	nop
 8000128:	40010c00 	.word	0x40010c00
 800012c:	200002ca 	.word	0x200002ca
 8000130:	200002cb 	.word	0x200002cb
 8000134:	200002c9 	.word	0x200002c9

08000138 <Ap_ST32BL_SendByte>:
     WORK    : 
     ARG     : void
     RET     : void   
---------------------------------------------------------------------------*/
void Ap_ST32BL_SendByte( u8 ByteData )
{
 8000138:	b508      	push	{r3, lr}
	Hw_Uart_Putch( Ap_ST32BL_UartPort, ByteData );
 800013a:	4b03      	ldr	r3, [pc, #12]	; (8000148 <Ap_ST32BL_SendByte+0x10>)
     WORK    : 
     ARG     : void
     RET     : void   
---------------------------------------------------------------------------*/
void Ap_ST32BL_SendByte( u8 ByteData )
{
 800013c:	4601      	mov	r1, r0
	Hw_Uart_Putch( Ap_ST32BL_UartPort, ByteData );
 800013e:	4a03      	ldr	r2, [pc, #12]	; (800014c <Ap_ST32BL_SendByte+0x14>)
 8000140:	7818      	ldrb	r0, [r3, #0]
 8000142:	4790      	blx	r2
 8000144:	bd08      	pop	{r3, pc}
 8000146:	bf00      	nop
 8000148:	200002c9 	.word	0x200002c9
 800014c:	08000775 	.word	0x08000775

08000150 <Ap_ST32BL_ReceiveByte>:
     WORK    : 
     ARG     : void
     RET     : void   
---------------------------------------------------------------------------*/
u8 Ap_ST32BL_ReceiveByte( void )
{
 8000150:	b508      	push	{r3, lr}
	Hw_Uart_Getch( Ap_ST32BL_UartPort );
 8000152:	4b02      	ldr	r3, [pc, #8]	; (800015c <Ap_ST32BL_ReceiveByte+0xc>)
 8000154:	4902      	ldr	r1, [pc, #8]	; (8000160 <Ap_ST32BL_ReceiveByte+0x10>)
 8000156:	7818      	ldrb	r0, [r3, #0]
 8000158:	4788      	blx	r1
}
 800015a:	bd08      	pop	{r3, pc}
 800015c:	200002c9 	.word	0x200002c9
 8000160:	08000739 	.word	0x08000739

08000164 <Ap_ST32BL_WaitCmd>:
     WORK    : 
     ARG     : void
     RET     : void   
---------------------------------------------------------------------------*/
u8 Ap_ST32BL_WaitCmd( void )
{
 8000164:	b538      	push	{r3, r4, r5, lr}
	u8 Ch;
	u8 Cmd = 0xFF;
	u8 CmdC;

	Cmd = Ap_ST32BL_ReceiveByte();
 8000166:	4d13      	ldr	r5, [pc, #76]	; (80001b4 <Ap_ST32BL_WaitCmd+0x50>)
 8000168:	47a8      	blx	r5

	switch( Cmd )
 800016a:	2831      	cmp	r0, #49	; 0x31
 800016c:	462b      	mov	r3, r5
{
	u8 Ch;
	u8 Cmd = 0xFF;
	u8 CmdC;

	Cmd = Ap_ST32BL_ReceiveByte();
 800016e:	4604      	mov	r4, r0
 8000170:	4d11      	ldr	r5, [pc, #68]	; (80001b8 <Ap_ST32BL_WaitCmd+0x54>)

	switch( Cmd )
 8000172:	d015      	beq.n	80001a0 <Ap_ST32BL_WaitCmd+0x3c>
 8000174:	d808      	bhi.n	8000188 <Ap_ST32BL_WaitCmd+0x24>
 8000176:	2802      	cmp	r0, #2
 8000178:	d012      	beq.n	80001a0 <Ap_ST32BL_WaitCmd+0x3c>
 800017a:	d801      	bhi.n	8000180 <Ap_ST32BL_WaitCmd+0x1c>
 800017c:	b180      	cbz	r0, 80001a0 <Ap_ST32BL_WaitCmd+0x3c>
 800017e:	e013      	b.n	80001a8 <Ap_ST32BL_WaitCmd+0x44>
 8000180:	2811      	cmp	r0, #17
 8000182:	d00d      	beq.n	80001a0 <Ap_ST32BL_WaitCmd+0x3c>
 8000184:	2821      	cmp	r0, #33	; 0x21
 8000186:	e00a      	b.n	800019e <Ap_ST32BL_WaitCmd+0x3a>
 8000188:	2873      	cmp	r0, #115	; 0x73
 800018a:	d009      	beq.n	80001a0 <Ap_ST32BL_WaitCmd+0x3c>
 800018c:	d804      	bhi.n	8000198 <Ap_ST32BL_WaitCmd+0x34>
 800018e:	f1a0 0243 	sub.w	r2, r0, #67	; 0x43
 8000192:	2a01      	cmp	r2, #1
 8000194:	d808      	bhi.n	80001a8 <Ap_ST32BL_WaitCmd+0x44>
 8000196:	e003      	b.n	80001a0 <Ap_ST32BL_WaitCmd+0x3c>
 8000198:	287f      	cmp	r0, #127	; 0x7f
 800019a:	d002      	beq.n	80001a2 <Ap_ST32BL_WaitCmd+0x3e>
 800019c:	28ff      	cmp	r0, #255	; 0xff
 800019e:	d103      	bne.n	80001a8 <Ap_ST32BL_WaitCmd+0x44>
		case STM32_CMD_WRITE_FLASH:
		case STM32_CMD_WRITE_UNPROTECT:
		case STM32_CMD_READ_FLASH:
		case STM32_CMD_GO:
		case 0xFF:
			CmdC = Ap_ST32BL_ReceiveByte();
 80001a0:	4798      	blx	r3

			Ap_ST32BL_SendByte(STM32_COMM_ACK);				
 80001a2:	2079      	movs	r0, #121	; 0x79
 80001a4:	47a8      	blx	r5
			break;
 80001a6:	e002      	b.n	80001ae <Ap_ST32BL_WaitCmd+0x4a>

		default:
			Ap_ST32BL_SendByte(STM32_COMM_NACK);
 80001a8:	201f      	movs	r0, #31
 80001aa:	4903      	ldr	r1, [pc, #12]	; (80001b8 <Ap_ST32BL_WaitCmd+0x54>)
 80001ac:	4788      	blx	r1
			break;
	}


	return Cmd;
}
 80001ae:	4620      	mov	r0, r4
 80001b0:	bd38      	pop	{r3, r4, r5, pc}
 80001b2:	bf00      	nop
 80001b4:	08000151 	.word	0x08000151
 80001b8:	08000139 	.word	0x08000139

080001bc <Ap_ST32BL_EraseFlash>:
     WORK    : 
     ARG     : void
     RET     : void   
---------------------------------------------------------------------------*/
u8 Ap_ST32BL_EraseFlash( void )
{
 80001bc:	b537      	push	{r0, r1, r2, r4, r5, lr}
	u32 i;

	
	volatile FLASH_Status FLASHStatus;

	FLASHStatus = FLASH_COMPLETE;
 80001be:	2304      	movs	r3, #4

	FLASH_Unlock();
 80001c0:	480e      	ldr	r0, [pc, #56]	; (80001fc <Ap_ST32BL_EraseFlash+0x40>)
	u32 i;

	
	volatile FLASH_Status FLASHStatus;

	FLASHStatus = FLASH_COMPLETE;
 80001c2:	f88d 3007 	strb.w	r3, [sp, #7]

	FLASH_Unlock();
 80001c6:	4780      	blx	r0
	FLASH_ClearFlag(FLASH_FLAG_BSY | FLASH_FLAG_EOP | FLASH_FLAG_PGERR | FLASH_FLAG_WRPRTERR);
 80001c8:	2035      	movs	r0, #53	; 0x35
 80001ca:	490d      	ldr	r1, [pc, #52]	; (8000200 <Ap_ST32BL_EraseFlash+0x44>)
 80001cc:	4788      	blx	r1


	for( i=0; i<128; i++ )
 80001ce:	2200      	movs	r2, #0
	{
		Ap_ST32BL_EraseSectorFlag[i] = FALSE;
 80001d0:	4d0c      	ldr	r5, [pc, #48]	; (8000204 <Ap_ST32BL_EraseFlash+0x48>)
 80001d2:	2400      	movs	r4, #0
 80001d4:	5554      	strb	r4, [r2, r5]

	FLASH_Unlock();
	FLASH_ClearFlag(FLASH_FLAG_BSY | FLASH_FLAG_EOP | FLASH_FLAG_PGERR | FLASH_FLAG_WRPRTERR);


	for( i=0; i<128; i++ )
 80001d6:	3201      	adds	r2, #1
 80001d8:	2a80      	cmp	r2, #128	; 0x80
 80001da:	d1f9      	bne.n	80001d0 <Ap_ST32BL_EraseFlash+0x14>
	}

	PageCount = 0;


	FLASHStatus = FLASH_ErasePage(HW_ST32BL_FLASH_START_ADDRESS);
 80001dc:	480a      	ldr	r0, [pc, #40]	; (8000208 <Ap_ST32BL_EraseFlash+0x4c>)
 80001de:	4b0b      	ldr	r3, [pc, #44]	; (800020c <Ap_ST32BL_EraseFlash+0x50>)
 80001e0:	4798      	blx	r3
 80001e2:	f88d 0007 	strb.w	r0, [sp, #7]

	Ap_ST32BL_EraseSectorFlag[PageCount] = TRUE;

	if( FLASHStatus != FLASH_COMPLETE )
 80001e6:	f89d 1007 	ldrb.w	r1, [sp, #7]
	PageCount = 0;


	FLASHStatus = FLASH_ErasePage(HW_ST32BL_FLASH_START_ADDRESS);

	Ap_ST32BL_EraseSectorFlag[PageCount] = TRUE;
 80001ea:	2001      	movs	r0, #1

	if( FLASHStatus != FLASH_COMPLETE )
 80001ec:	2904      	cmp	r1, #4
	PageCount = 0;


	FLASHStatus = FLASH_ErasePage(HW_ST32BL_FLASH_START_ADDRESS);

	Ap_ST32BL_EraseSectorFlag[PageCount] = TRUE;
 80001ee:	7028      	strb	r0, [r5, #0]

	if( FLASHStatus != FLASH_COMPLETE )
 80001f0:	d002      	beq.n	80001f8 <Ap_ST32BL_EraseFlash+0x3c>
	{
		FLASH_Lock();
 80001f2:	4807      	ldr	r0, [pc, #28]	; (8000210 <Ap_ST32BL_EraseFlash+0x54>)
 80001f4:	4780      	blx	r0
		Ret = FALSE;
 80001f6:	4620      	mov	r0, r4
	}

	return Ret;
}
 80001f8:	bd3e      	pop	{r1, r2, r3, r4, r5, pc}
 80001fa:	bf00      	nop
 80001fc:	08002095 	.word	0x08002095
 8000200:	080020bd 	.word	0x080020bd
 8000204:	200002cb 	.word	0x200002cb
 8000208:	08003000 	.word	0x08003000
 800020c:	08002175 	.word	0x08002175
 8000210:	080020ad 	.word	0x080020ad

08000214 <Ap_ST32BL_CheckFlashSector>:
     WORK    : 
     ARG     : void
     RET     : void   
---------------------------------------------------------------------------*/
u8 Ap_ST32BL_CheckFlashSector( u32 Address )
{
 8000214:	b573      	push	{r0, r1, r4, r5, r6, lr}
	volatile FLASH_Status FLASHStatus;

	FLASHStatus = FLASH_COMPLETE;


	if( Address < HW_ST32BL_FLASH_START_ADDRESS	) return FALSE;
 8000216:	4911      	ldr	r1, [pc, #68]	; (800025c <Ap_ST32BL_CheckFlashSector+0x48>)
	u8  Ret = TRUE;
	u32 PageCount;

	volatile FLASH_Status FLASHStatus;

	FLASHStatus = FLASH_COMPLETE;
 8000218:	2304      	movs	r3, #4


	if( Address < HW_ST32BL_FLASH_START_ADDRESS	) return FALSE;
 800021a:	4288      	cmp	r0, r1
	u8  Ret = TRUE;
	u32 PageCount;

	volatile FLASH_Status FLASHStatus;

	FLASHStatus = FLASH_COMPLETE;
 800021c:	f88d 3007 	strb.w	r3, [sp, #7]


	if( Address < HW_ST32BL_FLASH_START_ADDRESS	) return FALSE;
 8000220:	d919      	bls.n	8000256 <Ap_ST32BL_CheckFlashSector+0x42>


	PageCount = (Address - HW_ST32BL_FLASH_START_ADDRESS) / HW_ST32BL_FLASH_PAGE_SIZE;
 8000222:	f100 4478 	add.w	r4, r0, #4160749568	; 0xf8000000
 8000226:	f5a4 5040 	sub.w	r0, r4, #12288	; 0x3000


	if( Ap_ST32BL_EraseSectorFlag[PageCount] == FALSE )
 800022a:	4e0d      	ldr	r6, [pc, #52]	; (8000260 <Ap_ST32BL_CheckFlashSector+0x4c>)


	if( Address < HW_ST32BL_FLASH_START_ADDRESS	) return FALSE;


	PageCount = (Address - HW_ST32BL_FLASH_START_ADDRESS) / HW_ST32BL_FLASH_PAGE_SIZE;
 800022c:	0a84      	lsrs	r4, r0, #10


	if( Ap_ST32BL_EraseSectorFlag[PageCount] == FALSE )
 800022e:	5d35      	ldrb	r5, [r6, r4]
 8000230:	b10d      	cbz	r5, 8000236 <Ap_ST32BL_CheckFlashSector+0x22>
     ARG     : void
     RET     : void   
---------------------------------------------------------------------------*/
u8 Ap_ST32BL_CheckFlashSector( u32 Address )
{
	u8  Ret = TRUE;
 8000232:	2001      	movs	r0, #1
 8000234:	e010      	b.n	8000258 <Ap_ST32BL_CheckFlashSector+0x44>
	PageCount = (Address - HW_ST32BL_FLASH_START_ADDRESS) / HW_ST32BL_FLASH_PAGE_SIZE;


	if( Ap_ST32BL_EraseSectorFlag[PageCount] == FALSE )
	{
		FLASHStatus = FLASH_ErasePage(HW_ST32BL_FLASH_START_ADDRESS + (HW_ST32BL_FLASH_PAGE_SIZE * PageCount));
 8000236:	f504 3200 	add.w	r2, r4, #131072	; 0x20000
 800023a:	320c      	adds	r2, #12
 800023c:	0290      	lsls	r0, r2, #10
 800023e:	4b09      	ldr	r3, [pc, #36]	; (8000264 <Ap_ST32BL_CheckFlashSector+0x50>)
 8000240:	4798      	blx	r3
 8000242:	f88d 0007 	strb.w	r0, [sp, #7]

		Ap_ST32BL_EraseSectorFlag[PageCount] = TRUE;

		if( FLASHStatus != FLASH_COMPLETE )
 8000246:	f89d 0007 	ldrb.w	r0, [sp, #7]

	if( Ap_ST32BL_EraseSectorFlag[PageCount] == FALSE )
	{
		FLASHStatus = FLASH_ErasePage(HW_ST32BL_FLASH_START_ADDRESS + (HW_ST32BL_FLASH_PAGE_SIZE * PageCount));

		Ap_ST32BL_EraseSectorFlag[PageCount] = TRUE;
 800024a:	2101      	movs	r1, #1

		if( FLASHStatus != FLASH_COMPLETE )
 800024c:	2804      	cmp	r0, #4

	if( Ap_ST32BL_EraseSectorFlag[PageCount] == FALSE )
	{
		FLASHStatus = FLASH_ErasePage(HW_ST32BL_FLASH_START_ADDRESS + (HW_ST32BL_FLASH_PAGE_SIZE * PageCount));

		Ap_ST32BL_EraseSectorFlag[PageCount] = TRUE;
 800024e:	5531      	strb	r1, [r6, r4]

		if( FLASHStatus != FLASH_COMPLETE )
 8000250:	d0ef      	beq.n	8000232 <Ap_ST32BL_CheckFlashSector+0x1e>
		{
			FLASH_Lock();
 8000252:	4a05      	ldr	r2, [pc, #20]	; (8000268 <Ap_ST32BL_CheckFlashSector+0x54>)
 8000254:	4790      	blx	r2
	volatile FLASH_Status FLASHStatus;

	FLASHStatus = FLASH_COMPLETE;


	if( Address < HW_ST32BL_FLASH_START_ADDRESS	) return FALSE;
 8000256:	2000      	movs	r0, #0
		}
	}


	return Ret;
}
 8000258:	bd7c      	pop	{r2, r3, r4, r5, r6, pc}
 800025a:	bf00      	nop
 800025c:	08002fff 	.word	0x08002fff
 8000260:	200002cb 	.word	0x200002cb
 8000264:	08002175 	.word	0x08002175
 8000268:	080020ad 	.word	0x080020ad

0800026c <Ap_ST32BL_WriteFlash>:
     WORK    : 
     ARG     : void
     RET     : void   
---------------------------------------------------------------------------*/
u8 Ap_ST32BL_WriteFlash( u32 Address, u8 *pData, u32 DataSize )
{
 800026c:	e92d 41f3 	stmdb	sp!, {r0, r1, r4, r5, r6, r7, r8, lr}
	u32 DataIndex;
	u8	Ret = TRUE;
	volatile FLASH_Status FLASHStatus;


	WriteSize = DataSize / 4;	// 32Bit로 변경 
 8000270:	0895      	lsrs	r5, r2, #2

	if( (WriteSize%4) > 0 ) WriteSize++;
 8000272:	07ab      	lsls	r3, r5, #30


	//-- 섹터가 지워졌는지 검사
	//
	if( Ap_ST32BL_CheckFlashSector(Address) == FALSE )
 8000274:	4b13      	ldr	r3, [pc, #76]	; (80002c4 <Ap_ST32BL_WriteFlash+0x58>)
	volatile FLASH_Status FLASHStatus;


	WriteSize = DataSize / 4;	// 32Bit로 변경 

	if( (WriteSize%4) > 0 ) WriteSize++;
 8000276:	bf18      	it	ne
 8000278:	3501      	addne	r5, #1
     WORK    : 
     ARG     : void
     RET     : void   
---------------------------------------------------------------------------*/
u8 Ap_ST32BL_WriteFlash( u32 Address, u8 *pData, u32 DataSize )
{
 800027a:	4607      	mov	r7, r0
 800027c:	4688      	mov	r8, r1
	if( (WriteSize%4) > 0 ) WriteSize++;


	//-- 섹터가 지워졌는지 검사
	//
	if( Ap_ST32BL_CheckFlashSector(Address) == FALSE )
 800027e:	4798      	blx	r3
 8000280:	b110      	cbz	r0, 8000288 <Ap_ST32BL_WriteFlash+0x1c>
 8000282:	4644      	mov	r4, r8
 8000284:	2600      	movs	r6, #0
 8000286:	e018      	b.n	80002ba <Ap_ST32BL_WriteFlash+0x4e>
	{
		return FALSE;
 8000288:	2000      	movs	r0, #0
 800028a:	e019      	b.n	80002c0 <Ap_ST32BL_WriteFlash+0x54>
	DataIndex = 0;

	for( i=0; i<WriteSize; i++ )
	{
		WriteData  = pData[ DataIndex++ ] << 0;
		WriteData |= pData[ DataIndex++ ] << 8;
 800028c:	7860      	ldrb	r0, [r4, #1]
		WriteData |= pData[ DataIndex++ ] << 16;
 800028e:	78a1      	ldrb	r1, [r4, #2]
	DataIndex = 0;

	for( i=0; i<WriteSize; i++ )
	{
		WriteData  = pData[ DataIndex++ ] << 0;
		WriteData |= pData[ DataIndex++ ] << 8;
 8000290:	0203      	lsls	r3, r0, #8

	DataIndex = 0;

	for( i=0; i<WriteSize; i++ )
	{
		WriteData  = pData[ DataIndex++ ] << 0;
 8000292:	7822      	ldrb	r2, [r4, #0]
		WriteData |= pData[ DataIndex++ ] << 8;
 8000294:	ea43 4301 	orr.w	r3, r3, r1, lsl #16
		WriteData |= pData[ DataIndex++ ] << 16;
		WriteData |= pData[ DataIndex++ ] << 24;
 8000298:	78e1      	ldrb	r1, [r4, #3]

	for( i=0; i<WriteSize; i++ )
	{
		WriteData  = pData[ DataIndex++ ] << 0;
		WriteData |= pData[ DataIndex++ ] << 8;
		WriteData |= pData[ DataIndex++ ] << 16;
 800029a:	ea42 6101 	orr.w	r1, r2, r1, lsl #24
     TITLE   : Ap_ST32BL_WriteFlash
     WORK    : 
     ARG     : void
     RET     : void   
---------------------------------------------------------------------------*/
u8 Ap_ST32BL_WriteFlash( u32 Address, u8 *pData, u32 DataSize )
 800029e:	ebc8 0207 	rsb	r2, r8, r7
		WriteData  = pData[ DataIndex++ ] << 0;
		WriteData |= pData[ DataIndex++ ] << 8;
		WriteData |= pData[ DataIndex++ ] << 16;
		WriteData |= pData[ DataIndex++ ] << 24;

		FLASHStatus = FLASH_ProgramWord(StartAddress+i*4, WriteData);
 80002a2:	1910      	adds	r0, r2, r4
 80002a4:	4319      	orrs	r1, r3
 80002a6:	4b08      	ldr	r3, [pc, #32]	; (80002c8 <Ap_ST32BL_WriteFlash+0x5c>)
 80002a8:	4798      	blx	r3
 80002aa:	f88d 0007 	strb.w	r0, [sp, #7]

		if( FLASHStatus != FLASH_COMPLETE )
 80002ae:	f89d 0007 	ldrb.w	r0, [sp, #7]
 80002b2:	3404      	adds	r4, #4
 80002b4:	2804      	cmp	r0, #4
 80002b6:	d1e7      	bne.n	8000288 <Ap_ST32BL_WriteFlash+0x1c>
	}


	DataIndex = 0;

	for( i=0; i<WriteSize; i++ )
 80002b8:	3601      	adds	r6, #1
 80002ba:	42ae      	cmp	r6, r5
 80002bc:	d1e6      	bne.n	800028c <Ap_ST32BL_WriteFlash+0x20>
	u32 StartAddress = Address;
	u32 WriteSize;
	u32 WriteData;
	u32 i;
	u32 DataIndex;
	u8	Ret = TRUE;
 80002be:	2001      	movs	r0, #1
			break;
		}
	}

	return Ret;
}
 80002c0:	e8bd 81fc 	ldmia.w	sp!, {r2, r3, r4, r5, r6, r7, r8, pc}
 80002c4:	08000215 	.word	0x08000215
 80002c8:	08002129 	.word	0x08002129

080002cc <Ap_ST32BL_JumpToApp>:
	u32 	  RegData;

	//JumpToAddress = (pFunction)(HW_ST32BL_FLASH_START_ADDRESS + 4);


	JumpAddress =  *(u32 *)(HW_ST32BL_FLASH_START_ADDRESS + 4);
 80002cc:	4b09      	ldr	r3, [pc, #36]	; (80002f4 <Ap_ST32BL_JumpToApp+0x28>)
     WORK    : 
     ARG     : void
     RET     : void   
---------------------------------------------------------------------------*/
void Ap_ST32BL_JumpToApp( u32 Address )
{
 80002ce:	b510      	push	{r4, lr}

	JumpToApp = (pFunction) JumpAddress;


	//Lb_printf("jump..\n");
	Hw_Timer_Delay_ms(100);
 80002d0:	2064      	movs	r0, #100	; 0x64
 80002d2:	4909      	ldr	r1, [pc, #36]	; (80002f8 <Ap_ST32BL_JumpToApp+0x2c>)


	JumpAddress =  *(u32 *)(HW_ST32BL_FLASH_START_ADDRESS + 4);
	

	JumpToApp = (pFunction) JumpAddress;
 80002d4:	681c      	ldr	r4, [r3, #0]


	//Lb_printf("jump..\n");
	Hw_Timer_Delay_ms(100);
 80002d6:	4788      	blx	r1

	//REG_RCC_AHBENR  = 0x00000014;
	//REG_RCC_APB1ENR = 0x00000000;
	//REG_RCC_APB2ENR = 0x00000000;	

	PowerOff();
 80002d8:	4808      	ldr	r0, [pc, #32]	; (80002fc <Ap_ST32BL_JumpToApp+0x30>)
 80002da:	4780      	blx	r0

    REG_SCB_VTOR = (uint32_t)0x08000000;     /* Vector Table Relocation in Internal FLASH. */
#endif


	REG_RCC_APB1RSTR = 0xFFFFFFFF;
 80002dc:	4908      	ldr	r1, [pc, #32]	; (8000300 <Ap_ST32BL_JumpToApp+0x34>)
	REG_RCC_APB2RSTR = 0xFFFFFFFF;
 80002de:	4b09      	ldr	r3, [pc, #36]	; (8000304 <Ap_ST32BL_JumpToApp+0x38>)

    REG_SCB_VTOR = (uint32_t)0x08000000;     /* Vector Table Relocation in Internal FLASH. */
#endif


	REG_RCC_APB1RSTR = 0xFFFFFFFF;
 80002e0:	f04f 32ff 	mov.w	r2, #4294967295	; 0xffffffff
	REG_RCC_APB2RSTR = 0xFFFFFFFF;
	REG_RCC_APB1RSTR = 0x00000000;
 80002e4:	2000      	movs	r0, #0

    REG_SCB_VTOR = (uint32_t)0x08000000;     /* Vector Table Relocation in Internal FLASH. */
#endif


	REG_RCC_APB1RSTR = 0xFFFFFFFF;
 80002e6:	600a      	str	r2, [r1, #0]
	REG_RCC_APB2RSTR = 0xFFFFFFFF;
 80002e8:	601a      	str	r2, [r3, #0]
	REG_RCC_APB1RSTR = 0x00000000;
 80002ea:	6008      	str	r0, [r1, #0]
	REG_RCC_APB2RSTR = 0x00000000;
 80002ec:	6018      	str	r0, [r3, #0]
    /* Disable all interrupts and clear pending bits  */
    //REG_RCC_CIR = 0x009F0000;



	JumpToApp();
 80002ee:	47a0      	blx	r4
 80002f0:	bd10      	pop	{r4, pc}
 80002f2:	bf00      	nop
 80002f4:	08003004 	.word	0x08003004
 80002f8:	0800099d 	.word	0x0800099d
 80002fc:	080010b5 	.word	0x080010b5
 8000300:	40021010 	.word	0x40021010
 8000304:	4002100c 	.word	0x4002100c

08000308 <Ap_ST32BL_Main>:
     WORK    : 
     ARG     : void
     RET     : void   
---------------------------------------------------------------------------*/
void Ap_ST32BL_Main( void )
{
 8000308:	e92d 43f0 	stmdb	sp!, {r4, r5, r6, r7, r8, r9, lr}
 800030c:	b0cd      	sub	sp, #308	; 0x134
	while(1)
	{
		//Hw_Uart_Printf(HW_UART_VCOM, "ST32BL\n");
		//Hw_Timer_Delay_ms(500);

		Cmd = Ap_ST32BL_WaitCmd();
 800030e:	4b40      	ldr	r3, [pc, #256]	; (8000410 <Ap_ST32BL_Main+0x108>)
 8000310:	4798      	blx	r3
		{

		}


		if( Cmd == STM32_CMD_GET_COMMAND )
 8000312:	b918      	cbnz	r0, 800031c <Ap_ST32BL_Main+0x14>
		{
			Ap_ST32BL_SendByte(0x00);
 8000314:	4f3f      	ldr	r7, [pc, #252]	; (8000414 <Ap_ST32BL_Main+0x10c>)
 8000316:	47b8      	blx	r7
			Ap_ST32BL_SendByte(0x22);
 8000318:	2022      	movs	r0, #34	; 0x22
 800031a:	e007      	b.n	800032c <Ap_ST32BL_Main+0x24>
			Ap_ST32BL_SendByte(STM32_COMM_ACK);
		}


		if( Cmd == STM32_CMD_GET_ID )
 800031c:	2802      	cmp	r0, #2
 800031e:	d109      	bne.n	8000334 <Ap_ST32BL_Main+0x2c>
		{
			Ap_ST32BL_SendByte(0x01);
 8000320:	2001      	movs	r0, #1
 8000322:	4f3c      	ldr	r7, [pc, #240]	; (8000414 <Ap_ST32BL_Main+0x10c>)
 8000324:	47b8      	blx	r7
			Ap_ST32BL_SendByte(0x04);
 8000326:	2004      	movs	r0, #4
 8000328:	47b8      	blx	r7
			Ap_ST32BL_SendByte(0x10);
 800032a:	2010      	movs	r0, #16
 800032c:	47b8      	blx	r7
			Ap_ST32BL_SendByte(STM32_COMM_ACK);			
 800032e:	2079      	movs	r0, #121	; 0x79
 8000330:	47b8      	blx	r7
 8000332:	e7ec      	b.n	800030e <Ap_ST32BL_Main+0x6>
		}


		if( Cmd == STM32_CMD_ERASE_FLASH )
 8000334:	2843      	cmp	r0, #67	; 0x43
 8000336:	d10c      	bne.n	8000352 <Ap_ST32BL_Main+0x4a>
		{
			Resp[0] = Ap_ST32BL_ReceiveByte();
 8000338:	4e37      	ldr	r6, [pc, #220]	; (8000418 <Ap_ST32BL_Main+0x110>)
 800033a:	47b0      	blx	r6
 800033c:	f88d 0004 	strb.w	r0, [sp, #4]
			Resp[1] = Ap_ST32BL_ReceiveByte();
 8000340:	47b0      	blx	r6


			if( Ap_ST32BL_EraseFlash() == TRUE )	Ap_ST32BL_SendByte(STM32_COMM_ACK);
 8000342:	4a36      	ldr	r2, [pc, #216]	; (800041c <Ap_ST32BL_Main+0x114>)


		if( Cmd == STM32_CMD_ERASE_FLASH )
		{
			Resp[0] = Ap_ST32BL_ReceiveByte();
			Resp[1] = Ap_ST32BL_ReceiveByte();
 8000344:	f88d 0005 	strb.w	r0, [sp, #5]


			if( Ap_ST32BL_EraseFlash() == TRUE )	Ap_ST32BL_SendByte(STM32_COMM_ACK);
 8000348:	4790      	blx	r2
 800034a:	2801      	cmp	r0, #1
 800034c:	d13a      	bne.n	80003c4 <Ap_ST32BL_Main+0xbc>
 800034e:	2079      	movs	r0, #121	; 0x79
 8000350:	e039      	b.n	80003c6 <Ap_ST32BL_Main+0xbe>
		}




		if( Cmd == STM32_CMD_WRITE_FLASH )
 8000352:	2831      	cmp	r0, #49	; 0x31
 8000354:	d13c      	bne.n	80003d0 <Ap_ST32BL_Main+0xc8>
 8000356:	2500      	movs	r5, #0
 8000358:	462e      	mov	r6, r5
			//-- Receive Address 
			//
			CheckSumCalc = 0;
			for( i=0; i<4; i++ )
			{
				Resp[i] = Ap_ST32BL_ReceiveByte();
 800035a:	4f2f      	ldr	r7, [pc, #188]	; (8000418 <Ap_ST32BL_Main+0x110>)
 800035c:	47b8      	blx	r7
 800035e:	ac01      	add	r4, sp, #4
 8000360:	5530      	strb	r0, [r6, r4]
		{

			//-- Receive Address 
			//
			CheckSumCalc = 0;
			for( i=0; i<4; i++ )
 8000362:	3601      	adds	r6, #1
 8000364:	2e04      	cmp	r6, #4
			{
				Resp[i] = Ap_ST32BL_ReceiveByte();
				CheckSumCalc ^= Resp[i];	
 8000366:	ea85 0500 	eor.w	r5, r5, r0
		{

			//-- Receive Address 
			//
			CheckSumCalc = 0;
			for( i=0; i<4; i++ )
 800036a:	d1f6      	bne.n	800035a <Ap_ST32BL_Main+0x52>
			{
				Resp[i] = Ap_ST32BL_ReceiveByte();
				CheckSumCalc ^= Resp[i];	
			}
			CheckSum = Ap_ST32BL_ReceiveByte();
 800036c:	47b8      	blx	r7

			Address  = Resp[0] << 24;
 800036e:	f894 9000 	ldrb.w	r9, [r4]
			Address |= Resp[1] << 16;
 8000372:	7863      	ldrb	r3, [r4, #1]
				Resp[i] = Ap_ST32BL_ReceiveByte();
				CheckSumCalc ^= Resp[i];	
			}
			CheckSum = Ap_ST32BL_ReceiveByte();

			Address  = Resp[0] << 24;
 8000374:	ea4f 6209 	mov.w	r2, r9, lsl #24
			Address |= Resp[1] << 16;
			Address |= Resp[2] <<  8;
 8000378:	78a7      	ldrb	r7, [r4, #2]
				CheckSumCalc ^= Resp[i];	
			}
			CheckSum = Ap_ST32BL_ReceiveByte();

			Address  = Resp[0] << 24;
			Address |= Resp[1] << 16;
 800037a:	ea42 4103 	orr.w	r1, r2, r3, lsl #16
			Address |= Resp[2] <<  8;
			Address |= Resp[3] <<  0;
 800037e:	78e4      	ldrb	r4, [r4, #3]
			}
			CheckSum = Ap_ST32BL_ReceiveByte();

			Address  = Resp[0] << 24;
			Address |= Resp[1] << 16;
			Address |= Resp[2] <<  8;
 8000380:	ea41 2607 	orr.w	r6, r1, r7, lsl #8

			#if HW_ST32BL_USE_DEBUG == 1
			Hw_Uart_Printf(HW_UART_COM1, "Addrr %x %x %x %x %x %x\r\n", Resp[0], Resp[1], Resp[2], Resp[3], CheckSum, CheckSumCalc );
			#endif		

			if( CheckSum == CheckSumCalc )
 8000384:	42a8      	cmp	r0, r5
			CheckSum = Ap_ST32BL_ReceiveByte();

			Address  = Resp[0] << 24;
			Address |= Resp[1] << 16;
			Address |= Resp[2] <<  8;
			Address |= Resp[3] <<  0;
 8000386:	ea46 0904 	orr.w	r9, r6, r4
 800038a:	4d22      	ldr	r5, [pc, #136]	; (8000414 <Ap_ST32BL_Main+0x10c>)

			#if HW_ST32BL_USE_DEBUG == 1
			Hw_Uart_Printf(HW_UART_COM1, "Addrr %x %x %x %x %x %x\r\n", Resp[0], Resp[1], Resp[2], Resp[3], CheckSum, CheckSumCalc );
			#endif		

			if( CheckSum == CheckSumCalc )
 800038c:	d11e      	bne.n	80003cc <Ap_ST32BL_Main+0xc4>
			{
				Ap_ST32BL_SendByte(STM32_COMM_ACK);
 800038e:	2079      	movs	r0, #121	; 0x79
				Hw_Uart_Printf(HW_UART_COM1, "ACK\r\n");
				#endif	
			}
			else
			{
				Ap_ST32BL_SendByte(STM32_COMM_NACK);	
 8000390:	47a8      	blx	r5


			//-- Receive Data
			//
			CheckSumCalc = 0;
			Length  = Ap_ST32BL_ReceiveByte();
 8000392:	4821      	ldr	r0, [pc, #132]	; (8000418 <Ap_ST32BL_Main+0x110>)
 8000394:	4780      	blx	r0

			#if HW_ST32BL_USE_DEBUG == 1
			Hw_Uart_Printf(HW_UART_COM1, "Length %d \r\n", Length );
			#endif	

			for( i=0; i<Length; i++ )
 8000396:	2500      	movs	r5, #0


			//-- Receive Data
			//
			CheckSumCalc = 0;
			Length  = Ap_ST32BL_ReceiveByte();
 8000398:	4604      	mov	r4, r0
			CheckSumCalc ^= Length;
			Length++;
 800039a:	1c46      	adds	r6, r0, #1
			Hw_Uart_Printf(HW_UART_COM1, "Length %d \r\n", Length );
			#endif	

			for( i=0; i<Length; i++ )
			{
				Resp[i] = Ap_ST32BL_ReceiveByte();
 800039c:	f8df 8078 	ldr.w	r8, [pc, #120]	; 8000418 <Ap_ST32BL_Main+0x110>
 80003a0:	47c0      	blx	r8
 80003a2:	af01      	add	r7, sp, #4
 80003a4:	55e8      	strb	r0, [r5, r7]

			#if HW_ST32BL_USE_DEBUG == 1
			Hw_Uart_Printf(HW_UART_COM1, "Length %d \r\n", Length );
			#endif	

			for( i=0; i<Length; i++ )
 80003a6:	3501      	adds	r5, #1
			{
				Resp[i] = Ap_ST32BL_ReceiveByte();
				CheckSumCalc ^= Resp[i];					
 80003a8:	4044      	eors	r4, r0

			#if HW_ST32BL_USE_DEBUG == 1
			Hw_Uart_Printf(HW_UART_COM1, "Length %d \r\n", Length );
			#endif	

			for( i=0; i<Length; i++ )
 80003aa:	42b5      	cmp	r5, r6
			{
				Resp[i] = Ap_ST32BL_ReceiveByte();
				CheckSumCalc ^= Resp[i];					
 80003ac:	b2e4      	uxtb	r4, r4

			#if HW_ST32BL_USE_DEBUG == 1
			Hw_Uart_Printf(HW_UART_COM1, "Length %d \r\n", Length );
			#endif	

			for( i=0; i<Length; i++ )
 80003ae:	d3f5      	bcc.n	800039c <Ap_ST32BL_Main+0x94>
			{
				Resp[i] = Ap_ST32BL_ReceiveByte();
				CheckSumCalc ^= Resp[i];					
			}
			CheckSum = Ap_ST32BL_ReceiveByte();
 80003b0:	47c0      	blx	r8


			//-- Flash Write
			//

			Ret = Ap_ST32BL_WriteFlash( Address + HW_ST32BL_FLASH_ADDRESS_OFFSET, Resp, Length );
 80003b2:	4639      	mov	r1, r7
			for( i=0; i<Length; i++ )
			{
				Resp[i] = Ap_ST32BL_ReceiveByte();
				CheckSumCalc ^= Resp[i];					
			}
			CheckSum = Ap_ST32BL_ReceiveByte();
 80003b4:	4605      	mov	r5, r0


			//-- Flash Write
			//

			Ret = Ap_ST32BL_WriteFlash( Address + HW_ST32BL_FLASH_ADDRESS_OFFSET, Resp, Length );
 80003b6:	4632      	mov	r2, r6
 80003b8:	f509 5040 	add.w	r0, r9, #12288	; 0x3000
 80003bc:	4b18      	ldr	r3, [pc, #96]	; (8000420 <Ap_ST32BL_Main+0x118>)
 80003be:	4798      	blx	r3

		
			if( CheckSum == CheckSumCalc && Ret == TRUE ) 	
 80003c0:	42a5      	cmp	r5, r4
 80003c2:	d0c2      	beq.n	800034a <Ap_ST32BL_Main+0x42>
			Resp[0] = Ap_ST32BL_ReceiveByte();
			Resp[1] = Ap_ST32BL_ReceiveByte();


			if( Ap_ST32BL_EraseFlash() == TRUE )	Ap_ST32BL_SendByte(STM32_COMM_ACK);
			else									Ap_ST32BL_SendByte(STM32_COMM_NACK);
 80003c4:	201f      	movs	r0, #31
 80003c6:	4913      	ldr	r1, [pc, #76]	; (8000414 <Ap_ST32BL_Main+0x10c>)
 80003c8:	4788      	blx	r1
 80003ca:	e7a0      	b.n	800030e <Ap_ST32BL_Main+0x6>
				Hw_Uart_Printf(HW_UART_COM1, "ACK\r\n");
				#endif	
			}
			else
			{
				Ap_ST32BL_SendByte(STM32_COMM_NACK);	
 80003cc:	201f      	movs	r0, #31
 80003ce:	e7df      	b.n	8000390 <Ap_ST32BL_Main+0x88>
		}
		

		//-- Go Command
		//
		if( Cmd == STM32_CMD_GO )
 80003d0:	2821      	cmp	r0, #33	; 0x21
 80003d2:	d19c      	bne.n	800030e <Ap_ST32BL_Main+0x6>
 80003d4:	2500      	movs	r5, #0
			//-- Receive Address 
			//
			CheckSumCalc = 0;
			for( i=0; i<4; i++ )
			{
				Resp[i] = Ap_ST32BL_ReceiveByte();
 80003d6:	4e10      	ldr	r6, [pc, #64]	; (8000418 <Ap_ST32BL_Main+0x110>)
 80003d8:	47b0      	blx	r6
 80003da:	ac01      	add	r4, sp, #4
 80003dc:	5560      	strb	r0, [r4, r5]
		if( Cmd == STM32_CMD_GO )
		{
			//-- Receive Address 
			//
			CheckSumCalc = 0;
			for( i=0; i<4; i++ )
 80003de:	3501      	adds	r5, #1
 80003e0:	2d04      	cmp	r5, #4
 80003e2:	d1f8      	bne.n	80003d6 <Ap_ST32BL_Main+0xce>
			{
				Resp[i] = Ap_ST32BL_ReceiveByte();
				CheckSumCalc ^= Resp[i];	
			}
			CheckSum = Ap_ST32BL_ReceiveByte();
 80003e4:	47b0      	blx	r6

			Address  = Resp[0] << 24;
 80003e6:	7822      	ldrb	r2, [r4, #0]
			Address |= Resp[1] << 16;
 80003e8:	7860      	ldrb	r0, [r4, #1]
			Address |= Resp[2] <<  8;
 80003ea:	78a3      	ldrb	r3, [r4, #2]
				Resp[i] = Ap_ST32BL_ReceiveByte();
				CheckSumCalc ^= Resp[i];	
			}
			CheckSum = Ap_ST32BL_ReceiveByte();

			Address  = Resp[0] << 24;
 80003ec:	0617      	lsls	r7, r2, #24
			Address |= Resp[1] << 16;
 80003ee:	ea47 4100 	orr.w	r1, r7, r0, lsl #16
			Address |= Resp[2] <<  8;
			Address |= Resp[3] <<  0;	
 80003f2:	78e4      	ldrb	r4, [r4, #3]
			}
			CheckSum = Ap_ST32BL_ReceiveByte();

			Address  = Resp[0] << 24;
			Address |= Resp[1] << 16;
			Address |= Resp[2] <<  8;
 80003f4:	ea41 2603 	orr.w	r6, r1, r3, lsl #8
			Address |= Resp[3] <<  0;	
			

			Ap_ST32BL_SendByte(STM32_COMM_ACK);	
 80003f8:	2079      	movs	r0, #121	; 0x79
 80003fa:	4a06      	ldr	r2, [pc, #24]	; (8000414 <Ap_ST32BL_Main+0x10c>)
 80003fc:	4790      	blx	r2
			CheckSum = Ap_ST32BL_ReceiveByte();

			Address  = Resp[0] << 24;
			Address |= Resp[1] << 16;
			Address |= Resp[2] <<  8;
			Address |= Resp[3] <<  0;	
 80003fe:	ea46 0504 	orr.w	r5, r6, r4
			

			Ap_ST32BL_SendByte(STM32_COMM_ACK);	

			Hw_Timer_Delay_ms(100);
 8000402:	2064      	movs	r0, #100	; 0x64
 8000404:	4f07      	ldr	r7, [pc, #28]	; (8000424 <Ap_ST32BL_Main+0x11c>)
 8000406:	47b8      	blx	r7

			//-- Go
			//
			Ap_ST32BL_JumpToApp( Address );
 8000408:	4628      	mov	r0, r5
 800040a:	4907      	ldr	r1, [pc, #28]	; (8000428 <Ap_ST32BL_Main+0x120>)
 800040c:	4788      	blx	r1
 800040e:	e77e      	b.n	800030e <Ap_ST32BL_Main+0x6>
 8000410:	08000165 	.word	0x08000165
 8000414:	08000139 	.word	0x08000139
 8000418:	08000151 	.word	0x08000151
 800041c:	080001bd 	.word	0x080001bd
 8000420:	0800026d 	.word	0x0800026d
 8000424:	0800099d 	.word	0x0800099d
 8000428:	080002cd 	.word	0x080002cd

0800042c <Hw_StartUp_Init>:
     			보드 리셋시에 처음 실행되는 함수
     ARG     : 	void
     RET     : 	void
---------------------------------------------------------------------------*/
void Hw_StartUp_Init(void)
{
 800042c:	4668      	mov	r0, sp
 800042e:	f020 0107 	bic.w	r1, r0, #7
 8000432:	468d      	mov	sp, r1
 8000434:	b501      	push	{r0, lr}
	//  
	
	// Copy the data segment initializers from flash to SRAM
	pulSrc = &_sidata;

	for(pulDest = &_sdata; pulDest < &_edata; )
 8000436:	2300      	movs	r3, #0
     WORK    :	 
     			보드 리셋시에 처음 실행되는 함수
     ARG     : 	void
     RET     : 	void
---------------------------------------------------------------------------*/
void Hw_StartUp_Init(void)
 8000438:	4a2d      	ldr	r2, [pc, #180]	; (80004f0 <zero_loop+0x9c>)
	//  
	
	// Copy the data segment initializers from flash to SRAM
	pulSrc = &_sidata;

	for(pulDest = &_sdata; pulDest < &_edata; )
 800043a:	492e      	ldr	r1, [pc, #184]	; (80004f4 <zero_loop+0xa0>)
     WORK    :	 
     			보드 리셋시에 처음 실행되는 함수
     ARG     : 	void
     RET     : 	void
---------------------------------------------------------------------------*/
void Hw_StartUp_Init(void)
 800043c:	1898      	adds	r0, r3, r2
	//  
	
	// Copy the data segment initializers from flash to SRAM
	pulSrc = &_sidata;

	for(pulDest = &_sdata; pulDest < &_edata; )
 800043e:	4288      	cmp	r0, r1
 8000440:	d204      	bcs.n	800044c <Hw_StartUp_Init+0x20>
	{
		*(pulDest++) = *(pulSrc++);
 8000442:	482d      	ldr	r0, [pc, #180]	; (80004f8 <zero_loop+0xa4>)
 8000444:	5819      	ldr	r1, [r3, r0]
 8000446:	5099      	str	r1, [r3, r2]
 8000448:	3304      	adds	r3, #4
 800044a:	e7f5      	b.n	8000438 <Hw_StartUp_Init+0xc>
	}
  
	/* Zero fill the bss segment.  This is done with inline assembly since this
	   will clear the value of pulDest if it is not kept in a register. */
	__asm("  ldr     r0, =_sbss\n"
 800044c:	4833      	ldr	r0, [pc, #204]	; (800051c <zero_loop+0xc8>)
 800044e:	4934      	ldr	r1, [pc, #208]	; (8000520 <zero_loop+0xcc>)
 8000450:	f04f 0200 	mov.w	r2, #0

08000454 <zero_loop>:
 8000454:	4288      	cmp	r0, r1
 8000456:	bfb8      	it	lt
 8000458:	f840 2b04 	strlt.w	r2, [r0], #4
 800045c:	f6ff affa 	blt.w	8000454 <zero_loop>
    

#if 1
    /* Reset the RCC clock configuration to the default reset state(for debug purpose) */
    /* Set HSION bit */
    REG_RCC_CR |= (uint32_t) 0x00000001;
 8000460:	4b26      	ldr	r3, [pc, #152]	; (80004fc <zero_loop+0xa8>)

    /* Reset SW, HPRE, PPRE1, PPRE2, ADCPRE and MCO bits */
    REG_RCC_CFGR &= (uint32_t) 0xF8FF0000;
 8000462:	4927      	ldr	r1, [pc, #156]	; (8000500 <zero_loop+0xac>)
    

#if 1
    /* Reset the RCC clock configuration to the default reset state(for debug purpose) */
    /* Set HSION bit */
    REG_RCC_CR |= (uint32_t) 0x00000001;
 8000464:	681a      	ldr	r2, [r3, #0]
 8000466:	f042 0001 	orr.w	r0, r2, #1

    /* Reset SW, HPRE, PPRE1, PPRE2, ADCPRE and MCO bits */
    REG_RCC_CFGR &= (uint32_t) 0xF8FF0000;
 800046a:	4a26      	ldr	r2, [pc, #152]	; (8000504 <zero_loop+0xb0>)
    

#if 1
    /* Reset the RCC clock configuration to the default reset state(for debug purpose) */
    /* Set HSION bit */
    REG_RCC_CR |= (uint32_t) 0x00000001;
 800046c:	6018      	str	r0, [r3, #0]

    /* Reset SW, HPRE, PPRE1, PPRE2, ADCPRE and MCO bits */
    REG_RCC_CFGR &= (uint32_t) 0xF8FF0000;
 800046e:	6810      	ldr	r0, [r2, #0]
 8000470:	4001      	ands	r1, r0
 8000472:	6011      	str	r1, [r2, #0]

    /* Reset HSEON, CSSON and PLLON bits */
    REG_RCC_CR &= (uint32_t) 0xFEF6FFFF;
 8000474:	6818      	ldr	r0, [r3, #0]
 8000476:	f020 7184 	bic.w	r1, r0, #17301504	; 0x1080000
 800047a:	f421 3080 	bic.w	r0, r1, #65536	; 0x10000
 800047e:	6018      	str	r0, [r3, #0]

    /* Reset HSEBYP bit */
    REG_RCC_CR &= (uint32_t) 0xFFFBFFFF;
 8000480:	6819      	ldr	r1, [r3, #0]
 8000482:	f421 2080 	bic.w	r0, r1, #262144	; 0x40000
 8000486:	6018      	str	r0, [r3, #0]

    /* Reset PLLSRC, PLLXTPRE, PLLMUL and USBPRE/OTGFSPRE bits */
    REG_RCC_CFGR &= (uint32_t) 0xFF80FFFF;
 8000488:	6811      	ldr	r1, [r2, #0]
 800048a:	f421 00fe 	bic.w	r0, r1, #8323072	; 0x7f0000

    /* Disable all interrupts and clear pending bits  */
    REG_RCC_CIR = 0x009F0000;
 800048e:	f44f 011f 	mov.w	r1, #10420224	; 0x9f0000

    /* Reset HSEBYP bit */
    REG_RCC_CR &= (uint32_t) 0xFFFBFFFF;

    /* Reset PLLSRC, PLLXTPRE, PLLMUL and USBPRE/OTGFSPRE bits */
    REG_RCC_CFGR &= (uint32_t) 0xFF80FFFF;
 8000492:	6010      	str	r0, [r2, #0]

    /* Disable all interrupts and clear pending bits  */
    REG_RCC_CIR = 0x009F0000;
 8000494:	6051      	str	r1, [r2, #4]

    REG_SCB_VTOR = (uint32_t)0x08000000;     /* Vector Table Relocation in Internal FLASH. */
 8000496:	4a1c      	ldr	r2, [pc, #112]	; (8000508 <zero_loop+0xb4>)
 8000498:	f04f 6000 	mov.w	r0, #134217728	; 0x8000000
 800049c:	6010      	str	r0, [r2, #0]
#endif


  REG_RCC_APB1RSTR = 0xFFFFFFFF;
 800049e:	481b      	ldr	r0, [pc, #108]	; (800050c <zero_loop+0xb8>)
  REG_RCC_APB2RSTR = 0xFFFFFFFF;
 80004a0:	4a1b      	ldr	r2, [pc, #108]	; (8000510 <zero_loop+0xbc>)

    REG_SCB_VTOR = (uint32_t)0x08000000;     /* Vector Table Relocation in Internal FLASH. */
#endif


  REG_RCC_APB1RSTR = 0xFFFFFFFF;
 80004a2:	f04f 31ff 	mov.w	r1, #4294967295	; 0xffffffff
 80004a6:	6001      	str	r1, [r0, #0]
  REG_RCC_APB2RSTR = 0xFFFFFFFF;
 80004a8:	6011      	str	r1, [r2, #0]
  REG_RCC_APB1RSTR = 0x00000000;
 80004aa:	2100      	movs	r1, #0
 80004ac:	6001      	str	r1, [r0, #0]
  REG_RCC_APB2RSTR = 0x00000000;
 80004ae:	6011      	str	r1, [r2, #0]
	
    // HSI or HSE 선택
            
    //-- CR_HSEON_Set
    //
	REG_RCC_CR  |= (1<<16);	
 80004b0:	6818      	ldr	r0, [r3, #0]
 80004b2:	f440 3280 	orr.w	r2, r0, #65536	; 0x10000
 80004b6:	601a      	str	r2, [r3, #0]
 80004b8:	f642 4310 	movw	r3, #11280	; 0x2c10
		
	//-- 설정된 clock 이 설정 되었는지 확인
	//
	do
	{	
		HSEStatus = REG_RCC_CR & (1<<17);	// HSE 인경우
 80004bc:	490f      	ldr	r1, [pc, #60]	; (80004fc <zero_loop+0xa8>)
 80004be:	6808      	ldr	r0, [r1, #0]
		TimeOutCnt++;		
	} while( (HSEStatus == 0) && (TimeOutCnt < 11280) );
 80004c0:	0382      	lsls	r2, r0, #14
 80004c2:	d401      	bmi.n	80004c8 <zero_loop+0x74>
 80004c4:	3b01      	subs	r3, #1
 80004c6:	d1f9      	bne.n	80004bc <zero_loop+0x68>
  

	//-- FLASH Access 타이밍 설정
	//
	REG_FLASH_ACR |=  (1<<4);	// Prefetch buffer enable
 80004c8:	4912      	ldr	r1, [pc, #72]	; (8000514 <zero_loop+0xc0>)
 80004ca:	680a      	ldr	r2, [r1, #0]
 80004cc:	f042 0010 	orr.w	r0, r2, #16
 80004d0:	6008      	str	r0, [r1, #0]
	REG_FLASH_ACR &= ~(3<<0);	// LATENCY Clear
 80004d2:	680b      	ldr	r3, [r1, #0]
 80004d4:	f023 0203 	bic.w	r2, r3, #3
 80004d8:	600a      	str	r2, [r1, #0]
	REG_FLASH_ACR |=  (2<<0);	// LATENCY = two wait
 80004da:	6808      	ldr	r0, [r1, #0]
 80004dc:	f040 0302 	orr.w	r3, r0, #2
 80004e0:	600b      	str	r3, [r1, #0]


    main();
 80004e2:	490d      	ldr	r1, [pc, #52]	; (8000518 <zero_loop+0xc4>)
 80004e4:	4788      	blx	r1

}
 80004e6:	e8bd 4001 	ldmia.w	sp!, {r0, lr}
 80004ea:	4685      	mov	sp, r0
 80004ec:	4770      	bx	lr
 80004ee:	bf00      	nop
 80004f0:	20000000 	.word	0x20000000
 80004f4:	200000e4 	.word	0x200000e4
 80004f8:	0800226c 	.word	0x0800226c
 80004fc:	40021000 	.word	0x40021000
 8000500:	f8ff0000 	.word	0xf8ff0000
 8000504:	40021004 	.word	0x40021004
 8000508:	e000ed08 	.word	0xe000ed08
 800050c:	40021010 	.word	0x40021010
 8000510:	4002100c 	.word	0x4002100c
 8000514:	40022000 	.word	0x40022000
 8000518:	0800001d 	.word	0x0800001d
 800051c:	20000200 	.word	0x20000200
 8000520:	2000132c 	.word	0x2000132c

08000524 <Hw_Init>:
     WORK    : 
     ARG     : void
     RET     : void
---------------------------------------------------------------------------*/
void Hw_Init( void )
{
 8000524:	b508      	push	{r3, lr}
	u32 i;

	//-- PLL 설정
	//
	Hw_PLL_Init();
 8000526:	4b0d      	ldr	r3, [pc, #52]	; (800055c <Hw_Init+0x38>)
 8000528:	4798      	blx	r3
	
	
	//-- 인터럽트 관련 초기화
	//
	Hw_ISR_Init();
 800052a:	480d      	ldr	r0, [pc, #52]	; (8000560 <Hw_Init+0x3c>)
 800052c:	4780      	blx	r0
	

	//-- GPIO 기본값 설정
	//
	REG_GPIOA_CRL = 0x33333333;	// PA0 - 7
 800052e:	4a0d      	ldr	r2, [pc, #52]	; (8000564 <Hw_Init+0x40>)
	REG_GPIOA_CRH = 0x333334B3;	// PA8 - 15    //PA9,10,11,12는 가각 UART, USB에 할당됨
 8000530:	490d      	ldr	r1, [pc, #52]	; (8000568 <Hw_Init+0x44>)
	Hw_ISR_Init();
	

	//-- GPIO 기본값 설정
	//
	REG_GPIOA_CRL = 0x33333333;	// PA0 - 7
 8000532:	f04f 3333 	mov.w	r3, #858993459	; 0x33333333
 8000536:	6013      	str	r3, [r2, #0]
	REG_GPIOA_CRH = 0x333334B3;	// PA8 - 15    //PA9,10,11,12는 가각 UART, USB에 할당됨
	REG_GPIOB_CRL = 0x33333333;	// PB0 - 7
	REG_GPIOB_CRH = 0x33333333;	// PB8 - 15
	REG_GPIOC_CRH = 0x33444444;	// PC14, 15
 8000538:	480c      	ldr	r0, [pc, #48]	; (800056c <Hw_Init+0x48>)
	

	//-- GPIO 기본값 설정
	//
	REG_GPIOA_CRL = 0x33333333;	// PA0 - 7
	REG_GPIOA_CRH = 0x333334B3;	// PA8 - 15    //PA9,10,11,12는 가각 UART, USB에 할당됨
 800053a:	6051      	str	r1, [r2, #4]
	REG_GPIOB_CRL = 0x33333333;	// PB0 - 7
 800053c:	f8c2 3400 	str.w	r3, [r2, #1024]	; 0x400
	REG_GPIOB_CRH = 0x33333333;	// PB8 - 15
 8000540:	f8c2 3404 	str.w	r3, [r2, #1028]	; 0x404
	REG_GPIOC_CRH = 0x33444444;	// PC14, 15
 8000544:	4b0a      	ldr	r3, [pc, #40]	; (8000570 <Hw_Init+0x4c>)


	//Hw_DMA_Init();
	Hw_Uart_Init();
 8000546:	4a0b      	ldr	r2, [pc, #44]	; (8000574 <Hw_Init+0x50>)
	//
	REG_GPIOA_CRL = 0x33333333;	// PA0 - 7
	REG_GPIOA_CRH = 0x333334B3;	// PA8 - 15    //PA9,10,11,12는 가각 UART, USB에 할당됨
	REG_GPIOB_CRL = 0x33333333;	// PB0 - 7
	REG_GPIOB_CRH = 0x33333333;	// PB8 - 15
	REG_GPIOC_CRH = 0x33444444;	// PC14, 15
 8000548:	6018      	str	r0, [r3, #0]


	//Hw_DMA_Init();
	Hw_Uart_Init();
 800054a:	4790      	blx	r2
	Hw_Timer_Init();
 800054c:	490a      	ldr	r1, [pc, #40]	; (8000578 <Hw_Init+0x54>)
 800054e:	4788      	blx	r1
	Hw_VCom_Init();
 8000550:	480a      	ldr	r0, [pc, #40]	; (800057c <Hw_Init+0x58>)
 8000552:	4780      	blx	r0
	Hw_Led_Init();	
 8000554:	4b0a      	ldr	r3, [pc, #40]	; (8000580 <Hw_Init+0x5c>)
 8000556:	4798      	blx	r3
 8000558:	bd08      	pop	{r3, pc}
 800055a:	bf00      	nop
 800055c:	080007b1 	.word	0x080007b1
 8000560:	08000835 	.word	0x08000835
 8000564:	40010800 	.word	0x40010800
 8000568:	333334b3 	.word	0x333334b3
 800056c:	33444444 	.word	0x33444444
 8000570:	40011004 	.word	0x40011004
 8000574:	080006f9 	.word	0x080006f9
 8000578:	080008b5 	.word	0x080008b5
 800057c:	08000b51 	.word	0x08000b51
 8000580:	08000ad5 	.word	0x08000ad5

08000584 <Hw_ISR_UART2_Handler>:


//-- UART2 ISR
//
void Hw_ISR_UART2_Handler(void)
{
 8000584:	b507      	push	{r0, r1, r2, lr}
	u8 UartData;
				
	UartData = REG_USART2_DR;
 8000586:	4b07      	ldr	r3, [pc, #28]	; (80005a4 <Hw_ISR_UART2_Handler+0x20>)
 8000588:	a902      	add	r1, sp, #8
 800058a:	6818      	ldr	r0, [r3, #0]
	

	Hw_Uart_Q_Push( 1, &UartData );
 800058c:	4a06      	ldr	r2, [pc, #24]	; (80005a8 <Hw_ISR_UART2_Handler+0x24>)
//
void Hw_ISR_UART2_Handler(void)
{
	u8 UartData;
				
	UartData = REG_USART2_DR;
 800058e:	f801 0d01 	strb.w	r0, [r1, #-1]!
	

	Hw_Uart_Q_Push( 1, &UartData );
 8000592:	2001      	movs	r0, #1
 8000594:	4790      	blx	r2

	if( Hw_Uart_Ch[HW_UART_COM2].ISR_FuncPtr != NULL )
 8000596:	4905      	ldr	r1, [pc, #20]	; (80005ac <Hw_ISR_UART2_Handler+0x28>)
 8000598:	694b      	ldr	r3, [r1, #20]
 800059a:	b113      	cbz	r3, 80005a2 <Hw_ISR_UART2_Handler+0x1e>
	{
		(*Hw_Uart_Ch[HW_UART_COM2].ISR_FuncPtr)(UartData);	
 800059c:	f89d 0007 	ldrb.w	r0, [sp, #7]
 80005a0:	4798      	blx	r3
	} 
}
 80005a2:	bd0e      	pop	{r1, r2, r3, pc}
 80005a4:	40004404 	.word	0x40004404
 80005a8:	08000a09 	.word	0x08000a09
 80005ac:	2000034c 	.word	0x2000034c

080005b0 <Hw_ISR_UART1_Handler>:


//-- UART1 ISR
//
void Hw_ISR_UART1_Handler(void)
{
 80005b0:	b507      	push	{r0, r1, r2, lr}
	u8 UartData;
				
	UartData = REG_USART1_DR;
 80005b2:	4b07      	ldr	r3, [pc, #28]	; (80005d0 <Hw_ISR_UART1_Handler+0x20>)
 80005b4:	a902      	add	r1, sp, #8
 80005b6:	6818      	ldr	r0, [r3, #0]
	
	Hw_Uart_Q_Push( 0, &UartData );
 80005b8:	4a06      	ldr	r2, [pc, #24]	; (80005d4 <Hw_ISR_UART1_Handler+0x24>)
//
void Hw_ISR_UART1_Handler(void)
{
	u8 UartData;
				
	UartData = REG_USART1_DR;
 80005ba:	f801 0d01 	strb.w	r0, [r1, #-1]!
	
	Hw_Uart_Q_Push( 0, &UartData );
 80005be:	2000      	movs	r0, #0
 80005c0:	4790      	blx	r2

	if( Hw_Uart_Ch[HW_UART_COM1].ISR_FuncPtr != NULL )
 80005c2:	4905      	ldr	r1, [pc, #20]	; (80005d8 <Hw_ISR_UART1_Handler+0x28>)
 80005c4:	688b      	ldr	r3, [r1, #8]
 80005c6:	b113      	cbz	r3, 80005ce <Hw_ISR_UART1_Handler+0x1e>
	{
		(*Hw_Uart_Ch[HW_UART_COM1].ISR_FuncPtr)(UartData);	
 80005c8:	f89d 0007 	ldrb.w	r0, [sp, #7]
 80005cc:	4798      	blx	r3
	} 
}
 80005ce:	bd0e      	pop	{r1, r2, r3, pc}
 80005d0:	40013804 	.word	0x40013804
 80005d4:	08000a09 	.word	0x08000a09
 80005d8:	2000034c 	.word	0x2000034c

080005dc <Hw_Uart_Putch.part.0>:
void Hw_Uart_Putch( u8 Ch,  char Uart_PutData )
{
	switch( Ch )
	{
		case HW_UART_COM1:
		    while( !(REG_USART1_SR & 0x80) );
 80005dc:	4b03      	ldr	r3, [pc, #12]	; (80005ec <Hw_Uart_Putch.part.0+0x10>)
 80005de:	6819      	ldr	r1, [r3, #0]
 80005e0:	060b      	lsls	r3, r1, #24
 80005e2:	d5fb      	bpl.n	80005dc <Hw_Uart_Putch.part.0>
    		REG_USART1_DR = Uart_PutData;
 80005e4:	4a02      	ldr	r2, [pc, #8]	; (80005f0 <Hw_Uart_Putch.part.0+0x14>)
 80005e6:	6010      	str	r0, [r2, #0]
 80005e8:	4770      	bx	lr
 80005ea:	bf00      	nop
 80005ec:	40013800 	.word	0x40013800
 80005f0:	40013804 	.word	0x40013804

080005f4 <Hw_Uart_Open_COM1>:
     RET     : void
---------------------------------------------------------------------------*/
void Hw_Uart_Open_COM1( u32 BaudData, void (*ISR_FuncPtr)(char Ch) )
{	

	Hw_Uart_Ch[HW_UART_COM1].Baud 		 = BaudData;
 80005f4:	4b12      	ldr	r3, [pc, #72]	; (8000640 <Hw_Uart_Open_COM1+0x4c>)
     WORK    :
     ARG     : void
     RET     : void
---------------------------------------------------------------------------*/
void Hw_Uart_Open_COM1( u32 BaudData, void (*ISR_FuncPtr)(char Ch) )
{	
 80005f6:	b510      	push	{r4, lr}

	Hw_Uart_Ch[HW_UART_COM1].Baud 		 = BaudData;
 80005f8:	6058      	str	r0, [r3, #4]
	Hw_Uart_Ch[HW_UART_COM1].ISR_FuncPtr = ISR_FuncPtr;
	
	
	//-- Clock Enable
	//
	SET_BIT( REG_RCC_APB2ENR, 14 );		// USART1 Clock Enable
 80005fa:	4812      	ldr	r0, [pc, #72]	; (8000644 <Hw_Uart_Open_COM1+0x50>)
---------------------------------------------------------------------------*/
void Hw_Uart_Open_COM1( u32 BaudData, void (*ISR_FuncPtr)(char Ch) )
{	

	Hw_Uart_Ch[HW_UART_COM1].Baud 		 = BaudData;
	Hw_Uart_Ch[HW_UART_COM1].ISR_FuncPtr = ISR_FuncPtr;
 80005fc:	6099      	str	r1, [r3, #8]
	
	
	//-- Clock Enable
	//
	SET_BIT( REG_RCC_APB2ENR, 14 );		// USART1 Clock Enable
 80005fe:	6802      	ldr	r2, [r0, #0]
	//
	
	
	//-- USART1 설정
	//	
	REG_USART1_CR1  = 0 
 8000600:	4c11      	ldr	r4, [pc, #68]	; (8000648 <Hw_Uart_Open_COM1+0x54>)
	Hw_Uart_Ch[HW_UART_COM1].ISR_FuncPtr = ISR_FuncPtr;
	
	
	//-- Clock Enable
	//
	SET_BIT( REG_RCC_APB2ENR, 14 );		// USART1 Clock Enable
 8000602:	f442 4180 	orr.w	r1, r2, #16384	; 0x4000
 8000606:	6001      	str	r1, [r0, #0]
	//
	
	
	//-- USART1 설정
	//	
	REG_USART1_CR1  = 0 
 8000608:	230c      	movs	r3, #12
					| ( 0 << 12 )		// 1 Start bit, 8 Data bits, n Stop bit
					| ( 0 << 10 )		// Parity control disabled
					| ( 1 <<  3 )		// Transmitter Enable
					| ( 1 <<  2 );		// Receiver Enable					
	REG_USART1_CR2  = ( 0 << 12 );		// 1 stop bit	
 800060a:	4810      	ldr	r0, [pc, #64]	; (800064c <Hw_Uart_Open_COM1+0x58>)
	//
	
	
	//-- USART1 설정
	//	
	REG_USART1_CR1  = 0 
 800060c:	6023      	str	r3, [r4, #0]
					| ( 0 << 12 )		// 1 Start bit, 8 Data bits, n Stop bit
					| ( 0 << 10 )		// Parity control disabled
					| ( 1 <<  3 )		// Transmitter Enable
					| ( 1 <<  2 );		// Receiver Enable					
	REG_USART1_CR2  = ( 0 << 12 );		// 1 stop bit	
 800060e:	2200      	movs	r2, #0
					| (  1 << 0 );		// DIV Fraction
	

	//-- 인터럽트 설정
	//
	SET_BIT( REG_NVIC_ISER( 37/32 ), 37%32 );	// NVIC 37번 USART1 인터럽트 활성화
 8000610:	4b0f      	ldr	r3, [pc, #60]	; (8000650 <Hw_Uart_Open_COM1+0x5c>)
	REG_USART1_CR3  = 0;
	
	
	//-- 115200bps로 통신 속도 설정
	//
	REG_USART1_BRR  = 0
 8000612:	f240 2171 	movw	r1, #625	; 0x271
	REG_USART1_CR1  = 0 
					| ( 0 << 12 )		// 1 Start bit, 8 Data bits, n Stop bit
					| ( 0 << 10 )		// Parity control disabled
					| ( 1 <<  3 )		// Transmitter Enable
					| ( 1 <<  2 );		// Receiver Enable					
	REG_USART1_CR2  = ( 0 << 12 );		// 1 stop bit	
 8000616:	6002      	str	r2, [r0, #0]
	REG_USART1_CR3  = 0;
 8000618:	6042      	str	r2, [r0, #4]
	
	
	//-- 115200bps로 통신 속도 설정
	//
	REG_USART1_BRR  = 0
 800061a:	f840 1c08 	str.w	r1, [r0, #-8]
					| (  1 << 0 );		// DIV Fraction
	

	//-- 인터럽트 설정
	//
	SET_BIT( REG_NVIC_ISER( 37/32 ), 37%32 );	// NVIC 37번 USART1 인터럽트 활성화
 800061e:	6818      	ldr	r0, [r3, #0]
 8000620:	f040 0120 	orr.w	r1, r0, #32
 8000624:	6019      	str	r1, [r3, #0]
	SET_BIT( REG_USART1_CR1, 5 );				// RX 인터럽트 활성화
 8000626:	6823      	ldr	r3, [r4, #0]
	
	Hw_ISR_SetIRQFunc( 37, (u32)Hw_ISR_UART1_Handler, 0 );
 8000628:	490a      	ldr	r1, [pc, #40]	; (8000654 <Hw_Uart_Open_COM1+0x60>)
	

	//-- 인터럽트 설정
	//
	SET_BIT( REG_NVIC_ISER( 37/32 ), 37%32 );	// NVIC 37번 USART1 인터럽트 활성화
	SET_BIT( REG_USART1_CR1, 5 );				// RX 인터럽트 활성화
 800062a:	f043 0020 	orr.w	r0, r3, #32
 800062e:	6020      	str	r0, [r4, #0]
	
	Hw_ISR_SetIRQFunc( 37, (u32)Hw_ISR_UART1_Handler, 0 );
 8000630:	4b09      	ldr	r3, [pc, #36]	; (8000658 <Hw_Uart_Open_COM1+0x64>)
 8000632:	2025      	movs	r0, #37	; 0x25
 8000634:	4798      	blx	r3
	
	REG_USART1_CR1 |= ( 1 << 13 );	    // USART Enable
 8000636:	6822      	ldr	r2, [r4, #0]
 8000638:	f442 5100 	orr.w	r1, r2, #8192	; 0x2000
 800063c:	6021      	str	r1, [r4, #0]
 800063e:	bd10      	pop	{r4, pc}
 8000640:	2000034c 	.word	0x2000034c
 8000644:	40021018 	.word	0x40021018
 8000648:	4001380c 	.word	0x4001380c
 800064c:	40013810 	.word	0x40013810
 8000650:	e000e104 	.word	0xe000e104
 8000654:	080005b1 	.word	0x080005b1
 8000658:	08000845 	.word	0x08000845

0800065c <Hw_Uart_Open_COM2>:
     RET     : void
---------------------------------------------------------------------------*/
void Hw_Uart_Open_COM2( u32 BaudData, void (*ISR_FuncPtr)(char Ch) )
{	

	Hw_Uart_Ch[HW_UART_COM2].Baud 		 = BaudData;
 800065c:	4b1e      	ldr	r3, [pc, #120]	; (80006d8 <Hw_Uart_Open_COM2+0x7c>)
     WORK    :
     ARG     : void
     RET     : void
---------------------------------------------------------------------------*/
void Hw_Uart_Open_COM2( u32 BaudData, void (*ISR_FuncPtr)(char Ch) )
{	
 800065e:	b510      	push	{r4, lr}

	Hw_Uart_Ch[HW_UART_COM2].Baud 		 = BaudData;
 8000660:	6118      	str	r0, [r3, #16]
	Hw_Uart_Ch[HW_UART_COM2].ISR_FuncPtr = ISR_FuncPtr;
	
	
	//-- Clock Enable
	//
	SET_BIT( REG_RCC_APB1ENR, 17 );		// USART2 Clock Enable	PCLK2 = 72Mhz
 8000662:	481e      	ldr	r0, [pc, #120]	; (80006dc <Hw_Uart_Open_COM2+0x80>)
	
	//-- I/O Port 설정
	//
	
	// PA2 - TX
	REG_GPIOA_CRL &= ~(0x0F << ( 8));	// Clear
 8000664:	4c1e      	ldr	r4, [pc, #120]	; (80006e0 <Hw_Uart_Open_COM2+0x84>)
	Hw_Uart_Ch[HW_UART_COM2].ISR_FuncPtr = ISR_FuncPtr;
	
	
	//-- Clock Enable
	//
	SET_BIT( REG_RCC_APB1ENR, 17 );		// USART2 Clock Enable	PCLK2 = 72Mhz
 8000666:	6802      	ldr	r2, [r0, #0]
---------------------------------------------------------------------------*/
void Hw_Uart_Open_COM2( u32 BaudData, void (*ISR_FuncPtr)(char Ch) )
{	

	Hw_Uart_Ch[HW_UART_COM2].Baud 		 = BaudData;
	Hw_Uart_Ch[HW_UART_COM2].ISR_FuncPtr = ISR_FuncPtr;
 8000668:	6159      	str	r1, [r3, #20]
	
	
	//-- Clock Enable
	//
	SET_BIT( REG_RCC_APB1ENR, 17 );		// USART2 Clock Enable	PCLK2 = 72Mhz
 800066a:	f442 3100 	orr.w	r1, r2, #131072	; 0x20000
 800066e:	6001      	str	r1, [r0, #0]
	
	//-- I/O Port 설정
	//
	
	// PA2 - TX
	REG_GPIOA_CRL &= ~(0x0F << ( 8));	// Clear
 8000670:	6823      	ldr	r3, [r4, #0]
 8000672:	f423 6070 	bic.w	r0, r3, #3840	; 0xf00
 8000676:	6020      	str	r0, [r4, #0]
	REG_GPIOA_CRL |=  (0x03 << ( 8));	// MODE   - Output mode, max speed 50Mhz
 8000678:	6822      	ldr	r2, [r4, #0]
 800067a:	f442 7140 	orr.w	r1, r2, #768	; 0x300
 800067e:	6021      	str	r1, [r4, #0]
	REG_GPIOA_CRL |=  (0x02 << (10));	// CNF    - Alternate function output Push-pull
 8000680:	6823      	ldr	r3, [r4, #0]
 8000682:	f443 6000 	orr.w	r0, r3, #2048	; 0x800
 8000686:	6020      	str	r0, [r4, #0]
										     	    	
	// PA3 - RX
	REG_GPIOA_CRL &= ~(0x0F << (12));	// Clear
 8000688:	6822      	ldr	r2, [r4, #0]
 800068a:	f422 4170 	bic.w	r1, r2, #61440	; 0xf000
 800068e:	6021      	str	r1, [r4, #0]
	REG_GPIOA_CRL |=  (0x00 << (12));	// MODE   - Input mode
 8000690:	6823      	ldr	r3, [r4, #0]
	REG_GPIOA_CRL |=  (0x01 << (14));	// CNF    - Floating input	
	

	//-- USART2 설정
	//	
	REG_USART2_CR1  = 0 
 8000692:	210c      	movs	r1, #12
	REG_GPIOA_CRL |=  (0x03 << ( 8));	// MODE   - Output mode, max speed 50Mhz
	REG_GPIOA_CRL |=  (0x02 << (10));	// CNF    - Alternate function output Push-pull
										     	    	
	// PA3 - RX
	REG_GPIOA_CRL &= ~(0x0F << (12));	// Clear
	REG_GPIOA_CRL |=  (0x00 << (12));	// MODE   - Input mode
 8000694:	6023      	str	r3, [r4, #0]
	REG_GPIOA_CRL |=  (0x01 << (14));	// CNF    - Floating input	
 8000696:	6820      	ldr	r0, [r4, #0]
	REG_USART2_CR1  = 0 
					| ( 0 << 12 )		// 1 Start bit, 8 Data bits, n Stop bit
					| ( 0 << 10 )		// Parity control disabled
					| ( 1 <<  3 )		// Transmitter Enable
					| ( 1 <<  2 );		// Receiver Enable					
	REG_USART2_CR2  = ( 0 << 12 );		// 1 stop bit	
 8000698:	4b12      	ldr	r3, [pc, #72]	; (80006e4 <Hw_Uart_Open_COM2+0x88>)
	REG_GPIOA_CRL |=  (0x02 << (10));	// CNF    - Alternate function output Push-pull
										     	    	
	// PA3 - RX
	REG_GPIOA_CRL &= ~(0x0F << (12));	// Clear
	REG_GPIOA_CRL |=  (0x00 << (12));	// MODE   - Input mode
	REG_GPIOA_CRL |=  (0x01 << (14));	// CNF    - Floating input	
 800069a:	f440 4280 	orr.w	r2, r0, #16384	; 0x4000
 800069e:	6022      	str	r2, [r4, #0]
	

	//-- USART2 설정
	//	
	REG_USART2_CR1  = 0 
 80006a0:	4c11      	ldr	r4, [pc, #68]	; (80006e8 <Hw_Uart_Open_COM2+0x8c>)
					| ( 0 << 12 )		// 1 Start bit, 8 Data bits, n Stop bit
					| ( 0 << 10 )		// Parity control disabled
					| ( 1 <<  3 )		// Transmitter Enable
					| ( 1 <<  2 );		// Receiver Enable					
	REG_USART2_CR2  = ( 0 << 12 );		// 1 stop bit	
 80006a2:	2200      	movs	r2, #0
	REG_USART2_CR3  = 0;
	
	
	//-- 115200bps로 통신 속도 설정
	//
	REG_USART2_BRR  = 0
 80006a4:	f44f 709c 	mov.w	r0, #312	; 0x138
	REG_GPIOA_CRL |=  (0x01 << (14));	// CNF    - Floating input	
	

	//-- USART2 설정
	//	
	REG_USART2_CR1  = 0 
 80006a8:	6021      	str	r1, [r4, #0]
					| ( 0 << 12 )		// 1 Start bit, 8 Data bits, n Stop bit
					| ( 0 << 10 )		// Parity control disabled
					| ( 1 <<  3 )		// Transmitter Enable
					| ( 1 <<  2 );		// Receiver Enable					
	REG_USART2_CR2  = ( 0 << 12 );		// 1 stop bit	
 80006aa:	601a      	str	r2, [r3, #0]
	REG_USART2_CR3  = 0;
 80006ac:	605a      	str	r2, [r3, #4]
	
	
	//-- 115200bps로 통신 속도 설정
	//
	REG_USART2_BRR  = 0
 80006ae:	f843 0c08 	str.w	r0, [r3, #-8]
					| (  8 << 0 );		// DIV Fraction
	

	//-- 인터럽트 설정
	//
	SET_BIT( REG_NVIC_ISER( 38/32 ), 38%32 );	// NVIC 37번 USART1 인터럽트 활성화
 80006b2:	4b0e      	ldr	r3, [pc, #56]	; (80006ec <Hw_Uart_Open_COM2+0x90>)
 80006b4:	6819      	ldr	r1, [r3, #0]
 80006b6:	f041 0040 	orr.w	r0, r1, #64	; 0x40
 80006ba:	6018      	str	r0, [r3, #0]
	SET_BIT( REG_USART2_CR1, 5 );				// RX 인터럽트 활성화
 80006bc:	6823      	ldr	r3, [r4, #0]
	
	Hw_ISR_SetIRQFunc( 38, (u32)Hw_ISR_UART2_Handler, 0 );
 80006be:	2026      	movs	r0, #38	; 0x26
	

	//-- 인터럽트 설정
	//
	SET_BIT( REG_NVIC_ISER( 38/32 ), 38%32 );	// NVIC 37번 USART1 인터럽트 활성화
	SET_BIT( REG_USART2_CR1, 5 );				// RX 인터럽트 활성화
 80006c0:	f043 0120 	orr.w	r1, r3, #32
 80006c4:	6021      	str	r1, [r4, #0]
	
	Hw_ISR_SetIRQFunc( 38, (u32)Hw_ISR_UART2_Handler, 0 );
 80006c6:	4b0a      	ldr	r3, [pc, #40]	; (80006f0 <Hw_Uart_Open_COM2+0x94>)
 80006c8:	490a      	ldr	r1, [pc, #40]	; (80006f4 <Hw_Uart_Open_COM2+0x98>)
 80006ca:	4798      	blx	r3
	
	REG_USART2_CR1 |= ( 1 << 13 );	    // USART Enable
 80006cc:	6822      	ldr	r2, [r4, #0]
 80006ce:	f442 5000 	orr.w	r0, r2, #8192	; 0x2000
 80006d2:	6020      	str	r0, [r4, #0]
 80006d4:	bd10      	pop	{r4, pc}
 80006d6:	bf00      	nop
 80006d8:	2000034c 	.word	0x2000034c
 80006dc:	4002101c 	.word	0x4002101c
 80006e0:	40010800 	.word	0x40010800
 80006e4:	40004410 	.word	0x40004410
 80006e8:	4000440c 	.word	0x4000440c
 80006ec:	e000e104 	.word	0xe000e104
 80006f0:	08000845 	.word	0x08000845
 80006f4:	08000585 	.word	0x08000585

080006f8 <Hw_Uart_Init>:
     WORK    :
     ARG     : void
     RET     : void
---------------------------------------------------------------------------*/
void Hw_Uart_Init( void )
{
 80006f8:	b510      	push	{r4, lr}
	u32 i;
	
	Hw_Uart_Q_Init();
 80006fa:	4b0b      	ldr	r3, [pc, #44]	; (8000728 <Hw_Uart_Init+0x30>)
 80006fc:	4798      	blx	r3
 80006fe:	2000      	movs	r0, #0
     TITLE   : Hw_Uart_Init
     WORK    :
     ARG     : void
     RET     : void
---------------------------------------------------------------------------*/
void Hw_Uart_Init( void )
 8000700:	4a0a      	ldr	r2, [pc, #40]	; (800072c <Hw_Uart_Init+0x34>)
	Hw_Uart_Q_Init();
	
	
	for( i=0; i<HW_UART_MAX_CH; i++ )
	{
		Hw_Uart_Ch[i].Baud 		  = 0;
 8000702:	2400      	movs	r4, #0
     TITLE   : Hw_Uart_Init
     WORK    :
     ARG     : void
     RET     : void
---------------------------------------------------------------------------*/
void Hw_Uart_Init( void )
 8000704:	1881      	adds	r1, r0, r2
 8000706:	300c      	adds	r0, #12
	u32 i;
	
	Hw_Uart_Q_Init();
	
	
	for( i=0; i<HW_UART_MAX_CH; i++ )
 8000708:	2848      	cmp	r0, #72	; 0x48
	{
		Hw_Uart_Ch[i].Baud 		  = 0;
 800070a:	604c      	str	r4, [r1, #4]
		Hw_Uart_Ch[i].ISR_FuncPtr = NULL;
 800070c:	608c      	str	r4, [r1, #8]
	u32 i;
	
	Hw_Uart_Q_Init();
	
	
	for( i=0; i<HW_UART_MAX_CH; i++ )
 800070e:	d1f7      	bne.n	8000700 <Hw_Uart_Init+0x8>
void Hw_Uart_Open( u8 Ch, u32 BaudData, void (*ISR_FuncPtr)(char Ch) )
{	
	switch( Ch )
	{
		case HW_UART_COM1:
			Hw_Uart_Open_COM1( BaudData, ISR_FuncPtr );
 8000710:	4621      	mov	r1, r4
 8000712:	f44f 30e1 	mov.w	r0, #115200	; 0x1c200
 8000716:	4b06      	ldr	r3, [pc, #24]	; (8000730 <Hw_Uart_Init+0x38>)
 8000718:	4798      	blx	r3
			break;
			
		case HW_UART_COM2:
			Hw_Uart_Open_COM2( BaudData, ISR_FuncPtr );
 800071a:	f44f 30e1 	mov.w	r0, #115200	; 0x1c200
 800071e:	4621      	mov	r1, r4
 8000720:	4a04      	ldr	r2, [pc, #16]	; (8000734 <Hw_Uart_Init+0x3c>)
 8000722:	4790      	blx	r2
 8000724:	bd10      	pop	{r4, pc}
 8000726:	bf00      	nop
 8000728:	080009b1 	.word	0x080009b1
 800072c:	2000034c 	.word	0x2000034c
 8000730:	080005f5 	.word	0x080005f5
 8000734:	0800065d 	.word	0x0800065d

08000738 <Hw_Uart_Getch>:
			: 시리얼 포트에서 문자 1바이트 읽는다.
     ARG
     RET
---------------------------------------------------------------------------*/
u8 Hw_Uart_Getch( u8 Ch )
{
 8000738:	b513      	push	{r0, r1, r4, lr}
	u8 Uart_GetData = 0;
 800073a:	2300      	movs	r3, #0

	if( Ch == HW_UART_VCOM )
 800073c:	2805      	cmp	r0, #5
			: 시리얼 포트에서 문자 1바이트 읽는다.
     ARG
     RET
---------------------------------------------------------------------------*/
u8 Hw_Uart_Getch( u8 Ch )
{
 800073e:	4604      	mov	r4, r0
	u8 Uart_GetData = 0;
 8000740:	f88d 3007 	strb.w	r3, [sp, #7]

	if( Ch == HW_UART_VCOM )
 8000744:	d102      	bne.n	800074c <Hw_Uart_Getch+0x14>
	{
		return Hw_VCom_Getch();
 8000746:	4808      	ldr	r0, [pc, #32]	; (8000768 <Hw_Uart_Getch+0x30>)
 8000748:	4780      	blx	r0
 800074a:	e00b      	b.n	8000764 <Hw_Uart_Getch+0x2c>
	}

	while( 1 )
	{
		// 버퍼에 데이터 들어올때까지 기다린다.
		if( HW_UART_Q_VAILD(Ch) > 0 ) break;
 800074c:	4620      	mov	r0, r4
 800074e:	4907      	ldr	r1, [pc, #28]	; (800076c <Hw_Uart_Getch+0x34>)
 8000750:	4788      	blx	r1
 8000752:	2800      	cmp	r0, #0
 8000754:	d0fa      	beq.n	800074c <Hw_Uart_Getch+0x14>
	}

	Hw_Uart_Q_Pop( Ch, &Uart_GetData );
 8000756:	4620      	mov	r0, r4
 8000758:	f10d 0107 	add.w	r1, sp, #7
 800075c:	4a04      	ldr	r2, [pc, #16]	; (8000770 <Hw_Uart_Getch+0x38>)
 800075e:	4790      	blx	r2

	return Uart_GetData;
 8000760:	f89d 0007 	ldrb.w	r0, [sp, #7]
}
 8000764:	bd1c      	pop	{r2, r3, r4, pc}
 8000766:	bf00      	nop
 8000768:	08000b89 	.word	0x08000b89
 800076c:	080009fd 	.word	0x080009fd
 8000770:	08000a61 	.word	0x08000a61

08000774 <Hw_Uart_Putch>:
     ARG
     RET
---------------------------------------------------------------------------*/
void Hw_Uart_Putch( u8 Ch,  char Uart_PutData )
{
	switch( Ch )
 8000774:	2801      	cmp	r0, #1
			: 시리얼 포트로 문자 1바이트 전송
     ARG
     RET
---------------------------------------------------------------------------*/
void Hw_Uart_Putch( u8 Ch,  char Uart_PutData )
{
 8000776:	b508      	push	{r3, lr}
	switch( Ch )
 8000778:	d00a      	beq.n	8000790 <Hw_Uart_Putch+0x1c>
 800077a:	d305      	bcc.n	8000788 <Hw_Uart_Putch+0x14>
 800077c:	2805      	cmp	r0, #5
 800077e:	d10e      	bne.n	800079e <Hw_Uart_Putch+0x2a>

		case HW_UART_COM5:
			break;		

		case HW_UART_VCOM:
			Hw_VCom_Putch( Uart_PutData );
 8000780:	4608      	mov	r0, r1
 8000782:	4b07      	ldr	r3, [pc, #28]	; (80007a0 <Hw_Uart_Putch+0x2c>)
 8000784:	4798      	blx	r3
			break;	
 8000786:	e00a      	b.n	800079e <Hw_Uart_Putch+0x2a>
 8000788:	4608      	mov	r0, r1
 800078a:	4906      	ldr	r1, [pc, #24]	; (80007a4 <Hw_Uart_Putch+0x30>)
 800078c:	4788      	blx	r1
 800078e:	bd08      	pop	{r3, pc}
		    while( !(REG_USART1_SR & 0x80) );
    		REG_USART1_DR = Uart_PutData;
			break;
			
		case HW_UART_COM2:
		    while( !(REG_USART2_SR & 0x80) );
 8000790:	4805      	ldr	r0, [pc, #20]	; (80007a8 <Hw_Uart_Putch+0x34>)
 8000792:	6802      	ldr	r2, [r0, #0]
 8000794:	0612      	lsls	r2, r2, #24
 8000796:	d5fb      	bpl.n	8000790 <Hw_Uart_Putch+0x1c>
    		REG_USART2_DR = Uart_PutData;
 8000798:	4b04      	ldr	r3, [pc, #16]	; (80007ac <Hw_Uart_Putch+0x38>)
 800079a:	6019      	str	r1, [r3, #0]
			break;
 800079c:	bd08      	pop	{r3, pc}
 800079e:	bd08      	pop	{r3, pc}
 80007a0:	08000bb5 	.word	0x08000bb5
 80007a4:	080005dd 	.word	0x080005dd
 80007a8:	40004400 	.word	0x40004400
 80007ac:	40004404 	.word	0x40004404

080007b0 <Hw_PLL_Init>:
{
	
#if	CLOCK_EXT == 1
	//-- PLL 설정 72Mhz로 설정함
	//
	REG_RCC_CFGR &= ~(0xF<<18 | 0x1<<17 | 0x1<<16 | 0xF<<4);
 80007b0:	4b1d      	ldr	r3, [pc, #116]	; (8000828 <Hw_PLL_Init+0x78>)
 80007b2:	681a      	ldr	r2, [r3, #0]
 80007b4:	f422 107c 	bic.w	r0, r2, #4128768	; 0x3f0000
 80007b8:	f020 01f0 	bic.w	r1, r0, #240	; 0xf0
 80007bc:	6019      	str	r1, [r3, #0]
	REG_RCC_CFGR |=  (0x7<<18 | 0x1<<16);			// 8MHz
 80007be:	681a      	ldr	r2, [r3, #0]
 80007c0:	f442 10e8 	orr.w	r0, r2, #1900544	; 0x1d0000
    REG_RCC_CR   |=  0x01 << 24;                    // PLLON
 80007c4:	4a19      	ldr	r2, [pc, #100]	; (800082c <Hw_PLL_Init+0x7c>)
	
#if	CLOCK_EXT == 1
	//-- PLL 설정 72Mhz로 설정함
	//
	REG_RCC_CFGR &= ~(0xF<<18 | 0x1<<17 | 0x1<<16 | 0xF<<4);
	REG_RCC_CFGR |=  (0x7<<18 | 0x1<<16);			// 8MHz
 80007c6:	6018      	str	r0, [r3, #0]
    REG_RCC_CR   |=  0x01 << 24;                    // PLLON
 80007c8:	6811      	ldr	r1, [r2, #0]
 80007ca:	f041 7080 	orr.w	r0, r1, #16777216	; 0x1000000
 80007ce:	6010      	str	r0, [r2, #0]

	while( (REG_RCC_CR & (1<<25)) == 0 );			// PLLRDY
 80007d0:	6811      	ldr	r1, [r2, #0]
 80007d2:	0189      	lsls	r1, r1, #6
 80007d4:	d5fc      	bpl.n	80007d0 <Hw_PLL_Init+0x20>
    /////Bits 1:0 SW : System clock switch
    //00: HSI selected as system clock
    //01: HSE selected as system clock
    //10: PLL selected as system clock   <----------------- 선택됨
    //11: not allowed
	REG_RCC_CFGR &= ~0x3;
 80007d6:	681a      	ldr	r2, [r3, #0]
 80007d8:	f022 0003 	bic.w	r0, r2, #3
 80007dc:	6018      	str	r0, [r3, #0]
	REG_RCC_CFGR |=  0x2;
 80007de:	6819      	ldr	r1, [r3, #0]
 80007e0:	f041 0202 	orr.w	r2, r1, #2
 80007e4:	601a      	str	r2, [r3, #0]

	// USB 72M * 2 / 3 = 48Mhz
	//
	CLR_BIT( REG_RCC_CFGR, 22 );
 80007e6:	6818      	ldr	r0, [r3, #0]
 80007e8:	f420 0180 	bic.w	r1, r0, #4194304	; 0x400000
 80007ec:	6019      	str	r1, [r3, #0]

	// APB1 - PCLK1 36Mhz
	//
	REG_RCC_CFGR &= ~(0x7<<8);
 80007ee:	681a      	ldr	r2, [r3, #0]
 80007f0:	f422 60e0 	bic.w	r0, r2, #1792	; 0x700
 80007f4:	6018      	str	r0, [r3, #0]
	REG_RCC_CFGR |=  (0x4<<8);
 80007f6:	6819      	ldr	r1, [r3, #0]
 80007f8:	f441 6280 	orr.w	r2, r1, #1024	; 0x400
 80007fc:	601a      	str	r2, [r3, #0]
	
	// APB2 - PCLK2 72Mhz
	//
	REG_RCC_CFGR &= ~(0x7<<11);
 80007fe:	6818      	ldr	r0, [r3, #0]
 8000800:	f420 5160 	bic.w	r1, r0, #14336	; 0x3800
 8000804:	6019      	str	r1, [r3, #0]
	REG_RCC_CFGR |=  (0x0<<11);
 8000806:	681a      	ldr	r2, [r3, #0]
 8000808:	601a      	str	r2, [r3, #0]

    
    while( (REG_RCC_CFGR & 0xC) != 0x08 );
 800080a:	4b07      	ldr	r3, [pc, #28]	; (8000828 <Hw_PLL_Init+0x78>)
 800080c:	6818      	ldr	r0, [r3, #0]
 800080e:	f000 010c 	and.w	r1, r0, #12
 8000812:	2908      	cmp	r1, #8
 8000814:	d1f9      	bne.n	800080a <Hw_PLL_Init+0x5a>
    
    //APB2에 있는 UART 등 주변장치에 Clock 소스 동작제어
    //UART가 동작되기 위해서는 GPIO와 Alternation Function IO가 동작상태에 있어야 함
	REG_RCC_APB2ENR |= 0  |
 8000816:	4b06      	ldr	r3, [pc, #24]	; (8000830 <Hw_PLL_Init+0x80>)
 8000818:	681a      	ldr	r2, [r3, #0]
 800081a:	f442 4080 	orr.w	r0, r2, #16384	; 0x4000
 800081e:	f040 011d 	orr.w	r1, r0, #29
 8000822:	6019      	str	r1, [r3, #0]
 8000824:	4770      	bx	lr
 8000826:	bf00      	nop
 8000828:	40021004 	.word	0x40021004
 800082c:	40021000 	.word	0x40021000
 8000830:	40021018 	.word	0x40021018

08000834 <Hw_ISR_Init>:
     ARG     : void
     RET     : void
---------------------------------------------------------------------------*/
void Hw_ISR_Init( void )
{
	REG_SCB_VTOR = (u32)Hw_ISR_VectorTable;
 8000834:	4b01      	ldr	r3, [pc, #4]	; (800083c <Hw_ISR_Init+0x8>)
 8000836:	4a02      	ldr	r2, [pc, #8]	; (8000840 <Hw_ISR_Init+0xc>)
 8000838:	601a      	str	r2, [r3, #0]
 800083a:	4770      	bx	lr
 800083c:	e000ed08 	.word	0xe000ed08
 8000840:	20000400 	.word	0x20000400

08000844 <Hw_ISR_SetIRQFunc>:
---------------------------------------------------------------------------*/
void Hw_ISR_SetIRQFunc( u8 ISR_Num, u32 FuncAddress, u8 ISR_Priority )
{	
	u32 ISR_StartOffset = 16;
	
	Hw_ISR_VectorTable[ ISR_StartOffset + ISR_Num ] = FuncAddress;	
 8000844:	4b02      	ldr	r3, [pc, #8]	; (8000850 <Hw_ISR_SetIRQFunc+0xc>)
 8000846:	3010      	adds	r0, #16
 8000848:	f843 1020 	str.w	r1, [r3, r0, lsl #2]
 800084c:	4770      	bx	lr
 800084e:	bf00      	nop
 8000850:	20000400 	.word	0x20000400

08000854 <Hw_ISR_SetIRQFuncByAddr>:
---------------------------------------------------------------------------*/
void Hw_ISR_SetIRQFuncByAddr( u32 ISR_Addr, u32 FuncAddress, u8 ISR_Priority )
{	
	u32 ISR_StartOffset = ISR_Addr/4;
	
	Hw_ISR_VectorTable[ ISR_StartOffset ] = FuncAddress;	
 8000854:	4b02      	ldr	r3, [pc, #8]	; (8000860 <Hw_ISR_SetIRQFuncByAddr+0xc>)
     			u8  ISR_Priority : 인터럽트 우선순위(작은값이 우선순위 높음)
     RET     : void
---------------------------------------------------------------------------*/
void Hw_ISR_SetIRQFuncByAddr( u32 ISR_Addr, u32 FuncAddress, u8 ISR_Priority )
{	
	u32 ISR_StartOffset = ISR_Addr/4;
 8000856:	0880      	lsrs	r0, r0, #2
	
	Hw_ISR_VectorTable[ ISR_StartOffset ] = FuncAddress;	
 8000858:	f843 1020 	str.w	r1, [r3, r0, lsl #2]
 800085c:	4770      	bx	lr
 800085e:	bf00      	nop
 8000860:	20000400 	.word	0x20000400

08000864 <Hw_Timer_SetupISR>:
     	 	 	 타이머 H/W 기능을 초기화 한다.
     ARG     : void
     RET     : void
---------------------------------------------------------------------------*/
void Hw_Timer_SetupISR( void )
{	
 8000864:	b508      	push	{r3, lr}
	Hw_ISR_SetIRQFuncByAddr( 0x003C, (u32)Hw_Timer_ISR, 0 );	
 8000866:	203c      	movs	r0, #60	; 0x3c
 8000868:	4902      	ldr	r1, [pc, #8]	; (8000874 <Hw_Timer_SetupISR+0x10>)
 800086a:	2200      	movs	r2, #0
 800086c:	4b02      	ldr	r3, [pc, #8]	; (8000878 <Hw_Timer_SetupISR+0x14>)
 800086e:	4798      	blx	r3
 8000870:	bd08      	pop	{r3, pc}
 8000872:	bf00      	nop
 8000874:	08000961 	.word	0x08000961
 8000878:	08000855 	.word	0x08000855

0800087c <Hw_Timer_Setup>:
     RET     : void
---------------------------------------------------------------------------*/
void Hw_Timer_Setup( void )
{

	REG_STK_LOAD = 72000 - 1;	// 72000000 / 72000 = 1000us = 1ms
 800087c:	4b0b      	ldr	r3, [pc, #44]	; (80008ac <Hw_Timer_Setup+0x30>)
 800087e:	4a0c      	ldr	r2, [pc, #48]	; (80008b0 <Hw_Timer_Setup+0x34>)
	
	REG_STK_VAL  = 0;	
 8000880:	2000      	movs	r0, #0
     RET     : void
---------------------------------------------------------------------------*/
void Hw_Timer_Setup( void )
{

	REG_STK_LOAD = 72000 - 1;	// 72000000 / 72000 = 1000us = 1ms
 8000882:	601a      	str	r2, [r3, #0]
	
	REG_STK_VAL  = 0;	
 8000884:	6058      	str	r0, [r3, #4]
	
	SET_BIT( REG_STK_CTRL, 2 );	// CLKSOURCE = Processor Clock 72Mhz		
 8000886:	f853 1c04 	ldr.w	r1, [r3, #-4]
 800088a:	f041 0204 	orr.w	r2, r1, #4
 800088e:	f843 2c04 	str.w	r2, [r3, #-4]
	SET_BIT( REG_STK_CTRL, 1 );	// 인터럽트 활성화		
 8000892:	f853 0c04 	ldr.w	r0, [r3, #-4]
 8000896:	f040 0102 	orr.w	r1, r0, #2
 800089a:	f843 1c04 	str.w	r1, [r3, #-4]
	SET_BIT( REG_STK_CTRL, 0 );	// Counter Enable
 800089e:	f853 2c04 	ldr.w	r2, [r3, #-4]
 80008a2:	f042 0001 	orr.w	r0, r2, #1
 80008a6:	f843 0c04 	str.w	r0, [r3, #-4]

	REG_STK_LOAD = 72000 - 1;	// 72000000 / 72000 = 1000us = 1ms
	
	REG_STK_VAL  = 0;	
	
	SET_BIT( REG_STK_CTRL, 2 );	// CLKSOURCE = Processor Clock 72Mhz		
 80008aa:	4770      	bx	lr
 80008ac:	e000e014 	.word	0xe000e014
 80008b0:	0001193f 	.word	0x0001193f

080008b4 <Hw_Timer_Init>:
     WORK    :
     ARG     : void
     RET     : void
---------------------------------------------------------------------------*/
void Hw_Timer_Init( void )
{
 80008b4:	b508      	push	{r3, lr}
	u8 i;
	static u8 Excute = 0;

	
	if( Excute == 1 ) return;  // 이미 한번 실행했다면 정지.
 80008b6:	4b0d      	ldr	r3, [pc, #52]	; (80008ec <Hw_Timer_Init+0x38>)
 80008b8:	7818      	ldrb	r0, [r3, #0]
 80008ba:	2801      	cmp	r0, #1
 80008bc:	d014      	beq.n	80008e8 <Hw_Timer_Init+0x34>
 80008be:	4b0c      	ldr	r3, [pc, #48]	; (80008f0 <Hw_Timer_Init+0x3c>)
     TITLE   : Hw_Timer_Init
     WORK    :
     ARG     : void
     RET     : void
---------------------------------------------------------------------------*/
void Hw_Timer_Init( void )
 80008c0:	f103 01a0 	add.w	r1, r3, #160	; 0xa0
	
	
	// 구조체 초기화
	for(i=0; i<TIMER_MAX; i++)
	{
		Timer_Tbl[i].Timer_En   = OFF;
 80008c4:	2200      	movs	r2, #0
 80008c6:	f803 2c08 	strb.w	r2, [r3, #-8]
		Timer_Tbl[i].Timer_Ctn  = 0;
 80008ca:	f823 2c06 	strh.w	r2, [r3, #-6]
		Timer_Tbl[i].Timer_Init = 0;
 80008ce:	f823 2c04 	strh.w	r2, [r3, #-4]
		Timer_Tbl[i].TmrFnct    = NULL;
 80008d2:	f843 2b10 	str.w	r2, [r3], #16
	
	if( Excute == 1 ) return;  // 이미 한번 실행했다면 정지.
	
	
	// 구조체 초기화
	for(i=0; i<TIMER_MAX; i++)
 80008d6:	428b      	cmp	r3, r1
 80008d8:	d1f4      	bne.n	80008c4 <Hw_Timer_Init+0x10>
		Timer_Tbl[i].Timer_Init = 0;
		Timer_Tbl[i].TmrFnct    = NULL;
	}	                   
	
	
	Hw_Timer_SetupISR();
 80008da:	4806      	ldr	r0, [pc, #24]	; (80008f4 <Hw_Timer_Init+0x40>)
 80008dc:	4780      	blx	r0
	Hw_Timer_Setup();	
 80008de:	4b06      	ldr	r3, [pc, #24]	; (80008f8 <Hw_Timer_Init+0x44>)
 80008e0:	4798      	blx	r3

	Excute = 1;
 80008e2:	4a02      	ldr	r2, [pc, #8]	; (80008ec <Hw_Timer_Init+0x38>)
 80008e4:	2101      	movs	r1, #1
 80008e6:	7011      	strb	r1, [r2, #0]
 80008e8:	bd08      	pop	{r3, pc}
 80008ea:	bf00      	nop
 80008ec:	200002a0 	.word	0x200002a0
 80008f0:	20000208 	.word	0x20000208
 80008f4:	08000865 	.word	0x08000865
 80008f8:	0800087d 	.word	0x0800087d

080008fc <Hw_Timer_Tick>:
			타이머인터럽트 발생시에 실행되는 함수(1ms 혹은 10ms 단위로 실행)
     ARG	: void
     RET	: void
---------------------------------------------------------------------------*/
void Hw_Timer_Tick(void)
{
 80008fc:	b538      	push	{r3, r4, r5, lr}
	u8 i;

	
	Hw_Timer_Counter++;
 80008fe:	4b15      	ldr	r3, [pc, #84]	; (8000954 <Hw_Timer_Tick+0x58>)


	if( Tmr_Ctn ) Tmr_Ctn--;
 8000900:	4915      	ldr	r1, [pc, #84]	; (8000958 <Hw_Timer_Tick+0x5c>)
void Hw_Timer_Tick(void)
{
	u8 i;

	
	Hw_Timer_Counter++;
 8000902:	681a      	ldr	r2, [r3, #0]
 8000904:	1c50      	adds	r0, r2, #1
 8000906:	6018      	str	r0, [r3, #0]


	if( Tmr_Ctn ) Tmr_Ctn--;
 8000908:	880c      	ldrh	r4, [r1, #0]
 800090a:	b2a5      	uxth	r5, r4
 800090c:	b11d      	cbz	r5, 8000916 <Hw_Timer_Tick+0x1a>
 800090e:	880b      	ldrh	r3, [r1, #0]
 8000910:	1e5a      	subs	r2, r3, #1
 8000912:	b290      	uxth	r0, r2
 8000914:	8008      	strh	r0, [r1, #0]
 8000916:	4c11      	ldr	r4, [pc, #68]	; (800095c <Hw_Timer_Tick+0x60>)
     WORK	:
			타이머인터럽트 발생시에 실행되는 함수(1ms 혹은 10ms 단위로 실행)
     ARG	: void
     RET	: void
---------------------------------------------------------------------------*/
void Hw_Timer_Tick(void)
 8000918:	f104 05a0 	add.w	r5, r4, #160	; 0xa0
	
	
			   
	for(i=0; i<TIMER_MAX; i++)								// 타이머 갯수만큼
	{
		if( Timer_Tbl[i].Timer_En == ON)   					// 타이머가 활성화 됬니?
 800091c:	f814 1c08 	ldrb.w	r1, [r4, #-8]
 8000920:	2901      	cmp	r1, #1
 8000922:	d112      	bne.n	800094a <Hw_Timer_Tick+0x4e>
		{
			Timer_Tbl[i].Timer_Ctn--;  						// 타이머값 감소
 8000924:	f834 3c06 	ldrh.w	r3, [r4, #-6]
 8000928:	1e5a      	subs	r2, r3, #1
 800092a:	b290      	uxth	r0, r2
 800092c:	f824 0c06 	strh.w	r0, [r4, #-6]

			if(Timer_Tbl[i].Timer_Ctn == 0) 				// 타이머 오버플로어
 8000930:	b958      	cbnz	r0, 800094a <Hw_Timer_Tick+0x4e>
			{
				if(Timer_Tbl[i].Timer_Mode == ONE_TIME)  	// 한번만 실행하는거면
 8000932:	f814 1c07 	ldrb.w	r1, [r4, #-7]

				Timer_Tbl[i].Timer_En = OFF;     			// 타이머 OFF 한다.

				Timer_Tbl[i].Timer_Ctn = Timer_Tbl[i].Timer_Init; // 타이머 초기화
 8000936:	f834 3c04 	ldrh.w	r3, [r4, #-4]
		{
			Timer_Tbl[i].Timer_Ctn--;  						// 타이머값 감소

			if(Timer_Tbl[i].Timer_Ctn == 0) 				// 타이머 오버플로어
			{
				if(Timer_Tbl[i].Timer_Mode == ONE_TIME)  	// 한번만 실행하는거면
 800093a:	2901      	cmp	r1, #1

				Timer_Tbl[i].Timer_En = OFF;     			// 타이머 OFF 한다.
 800093c:	bf08      	it	eq
 800093e:	f804 0c08 	strbeq.w	r0, [r4, #-8]

				Timer_Tbl[i].Timer_Ctn = Timer_Tbl[i].Timer_Init; // 타이머 초기화
 8000942:	f824 3c06 	strh.w	r3, [r4, #-6]

				(*Timer_Tbl[i].TmrFnct)();  				// 전달변수 없이 함수 실행
 8000946:	6822      	ldr	r2, [r4, #0]
 8000948:	4790      	blx	r2
 800094a:	3410      	adds	r4, #16

	if( Tmr_Ctn ) Tmr_Ctn--;
	
	
			   
	for(i=0; i<TIMER_MAX; i++)								// 타이머 갯수만큼
 800094c:	42ac      	cmp	r4, r5
 800094e:	d1e5      	bne.n	800091c <Hw_Timer_Tick+0x20>
				(*Timer_Tbl[i].TmrFnct)();  				// 전달변수 없이 함수 실행
			}
		}
	}
	
}
 8000950:	bd38      	pop	{r3, r4, r5, pc}
 8000952:	bf00      	nop
 8000954:	200002a4 	.word	0x200002a4
 8000958:	200002a8 	.word	0x200002a8
 800095c:	20000208 	.word	0x20000208

08000960 <Hw_Timer_ISR>:
void Hw_Timer_Setup( void );



void Hw_Timer_ISR(void)
{
 8000960:	b508      	push	{r3, lr}

	Hw_Timer_Tick();  
 8000962:	4b01      	ldr	r3, [pc, #4]	; (8000968 <Hw_Timer_ISR+0x8>)
 8000964:	4798      	blx	r3
 8000966:	bd08      	pop	{r3, pc}
 8000968:	080008fd 	.word	0x080008fd

0800096c <Hw_Timer_Set>:
			void (*Fnct)(void),void *arg : 실행할 타이머 함수.
     RET
     	 	void
---------------------------------------------------------------------------*/
void Hw_Timer_Set(u8 TmrNum, u16 TmrData, u8 TmrMode, void (*Fnct)(void),void *arg)
{
 800096c:	b510      	push	{r4, lr}
	Timer_Tbl[TmrNum].Timer_Mode = TmrMode;    // 모트설정
 800096e:	4c05      	ldr	r4, [pc, #20]	; (8000984 <Hw_Timer_Set+0x18>)
 8000970:	eb04 1000 	add.w	r0, r4, r0, lsl #4
	Timer_Tbl[TmrNum].TmrFnct    = Fnct;       // 실행할 함수
 8000974:	6083      	str	r3, [r0, #8]
	Timer_Tbl[TmrNum].TmrFnctArg = arg;        // 매개변수
 8000976:	9b02      	ldr	r3, [sp, #8]
     RET
     	 	void
---------------------------------------------------------------------------*/
void Hw_Timer_Set(u8 TmrNum, u16 TmrData, u8 TmrMode, void (*Fnct)(void),void *arg)
{
	Timer_Tbl[TmrNum].Timer_Mode = TmrMode;    // 모트설정
 8000978:	7042      	strb	r2, [r0, #1]
	Timer_Tbl[TmrNum].TmrFnct    = Fnct;       // 실행할 함수
	Timer_Tbl[TmrNum].TmrFnctArg = arg;        // 매개변수
 800097a:	60c3      	str	r3, [r0, #12]
	Timer_Tbl[TmrNum].Timer_Ctn  = TmrData;
 800097c:	8041      	strh	r1, [r0, #2]
	Timer_Tbl[TmrNum].Timer_Init = TmrData;
 800097e:	8081      	strh	r1, [r0, #4]
 8000980:	bd10      	pop	{r4, pc}
 8000982:	bf00      	nop
 8000984:	20000200 	.word	0x20000200

08000988 <Hw_Timer_Start>:
     ARG
     RET
---------------------------------------------------------------------------*/
void Hw_Timer_Start(u8 TmrNum)
{
	if(TmrNum < TIMER_MAX)
 8000988:	2809      	cmp	r0, #9
 800098a:	d803      	bhi.n	8000994 <Hw_Timer_Start+0xc>
		Timer_Tbl[TmrNum].Timer_En = ON;
 800098c:	4b02      	ldr	r3, [pc, #8]	; (8000998 <Hw_Timer_Start+0x10>)
 800098e:	0100      	lsls	r0, r0, #4
 8000990:	2201      	movs	r2, #1
 8000992:	541a      	strb	r2, [r3, r0]
 8000994:	4770      	bx	lr
 8000996:	bf00      	nop
 8000998:	20000200 	.word	0x20000200

0800099c <Hw_Timer_Delay_ms>:
     ARG
     RET
---------------------------------------------------------------------------*/
void Hw_Timer_Delay_ms( u16 DelayData )
{
	Tmr_Ctn = DelayData;
 800099c:	4b03      	ldr	r3, [pc, #12]	; (80009ac <Hw_Timer_Delay_ms+0x10>)
 800099e:	8018      	strh	r0, [r3, #0]
	
	while( Tmr_Ctn );
 80009a0:	881a      	ldrh	r2, [r3, #0]
 80009a2:	b290      	uxth	r0, r2
 80009a4:	2800      	cmp	r0, #0
 80009a6:	d1fb      	bne.n	80009a0 <Hw_Timer_Delay_ms+0x4>
}
 80009a8:	4770      	bx	lr
 80009aa:	bf00      	nop
 80009ac:	200002a8 	.word	0x200002a8

080009b0 <Hw_Uart_Q_Init>:
     WORK    : 
     ARG     : void
     RET     : void
---------------------------------------------------------------------------*/
void Hw_Uart_Q_Init( void )
{
 80009b0:	2300      	movs	r3, #0
	u8 i;

	for( i=0; i<HW_UART_Q_CH_MAX; i++ )
	{
		Hw_Uart_Q_Start[i] = Hw_Uart_Q_End[i] = 0;
 80009b2:	4904      	ldr	r1, [pc, #16]	; (80009c4 <Hw_Uart_Q_Init+0x14>)
 80009b4:	4804      	ldr	r0, [pc, #16]	; (80009c8 <Hw_Uart_Q_Init+0x18>)
 80009b6:	2200      	movs	r2, #0
 80009b8:	525a      	strh	r2, [r3, r1]
 80009ba:	521a      	strh	r2, [r3, r0]
 80009bc:	3302      	adds	r3, #2
---------------------------------------------------------------------------*/
void Hw_Uart_Q_Init( void )
{
	u8 i;

	for( i=0; i<HW_UART_Q_CH_MAX; i++ )
 80009be:	2b0e      	cmp	r3, #14
 80009c0:	d1f7      	bne.n	80009b2 <Hw_Uart_Q_Init+0x2>
	{
		Hw_Uart_Q_Start[i] = Hw_Uart_Q_End[i] = 0;
	}
}
 80009c2:	4770      	bx	lr
 80009c4:	20000686 	.word	0x20000686
 80009c8:	20000694 	.word	0x20000694

080009cc <HW_UART_Q_SIZE>:
     ARG     : void
     RET     : void
---------------------------------------------------------------------------*/
u32 HW_UART_Q_SIZE( u8 Ch )
{
	return (Hw_Uart_Q_Start[Ch] - Hw_Uart_Q_End[Ch] + HW_UART_Q_BUFFER_MAX) % HW_UART_Q_BUFFER_MAX;
 80009cc:	4b08      	ldr	r3, [pc, #32]	; (80009f0 <HW_UART_Q_SIZE+0x24>)
 80009ce:	4909      	ldr	r1, [pc, #36]	; (80009f4 <HW_UART_Q_SIZE+0x28>)
 80009d0:	f933 2010 	ldrsh.w	r2, [r3, r0, lsl #1]
 80009d4:	f931 0010 	ldrsh.w	r0, [r1, r0, lsl #1]
 80009d8:	1a13      	subs	r3, r2, r0
 80009da:	4807      	ldr	r0, [pc, #28]	; (80009f8 <HW_UART_Q_SIZE+0x2c>)
 80009dc:	3320      	adds	r3, #32
 80009de:	4018      	ands	r0, r3
 80009e0:	2800      	cmp	r0, #0
 80009e2:	da03      	bge.n	80009ec <HW_UART_Q_SIZE+0x20>
 80009e4:	1e42      	subs	r2, r0, #1
 80009e6:	f062 011f 	orn	r1, r2, #31
 80009ea:	1c48      	adds	r0, r1, #1
}
 80009ec:	4770      	bx	lr
 80009ee:	bf00      	nop
 80009f0:	20000694 	.word	0x20000694
 80009f4:	20000686 	.word	0x20000686
 80009f8:	8000001f 	.word	0x8000001f

080009fc <HW_UART_Q_VAILD>:
     WORK    :
     ARG     : void
     RET     : void
---------------------------------------------------------------------------*/
u32 HW_UART_Q_VAILD( u8 Ch )
{
 80009fc:	b508      	push	{r3, lr}
	return HW_UART_Q_SIZE(Ch);
 80009fe:	4b01      	ldr	r3, [pc, #4]	; (8000a04 <HW_UART_Q_VAILD+0x8>)
 8000a00:	4798      	blx	r3
}
 8000a02:	bd08      	pop	{r3, pc}
 8000a04:	080009cd 	.word	0x080009cd

08000a08 <Hw_Uart_Q_Push>:
     WORK    : 
     ARG     : void
     RET     : void
---------------------------------------------------------------------------*/
u8 Hw_Uart_Q_Push( u8 Ch, u8  *PushData )
{
 8000a08:	b538      	push	{r3, r4, r5, lr}

	if (HW_UART_Q_SIZE(Ch) == (HW_UART_Q_BUFFER_MAX-1)) return FALSE;
 8000a0a:	4b11      	ldr	r3, [pc, #68]	; (8000a50 <Hw_Uart_Q_Push+0x48>)
     WORK    : 
     ARG     : void
     RET     : void
---------------------------------------------------------------------------*/
u8 Hw_Uart_Q_Push( u8 Ch, u8  *PushData )
{
 8000a0c:	4604      	mov	r4, r0
 8000a0e:	460d      	mov	r5, r1

	if (HW_UART_Q_SIZE(Ch) == (HW_UART_Q_BUFFER_MAX-1)) return FALSE;
 8000a10:	4798      	blx	r3
 8000a12:	281f      	cmp	r0, #31
 8000a14:	d01a      	beq.n	8000a4c <Hw_Uart_Q_Push+0x44>

	Hw_Uart_Q_Buffer[Ch][Hw_Uart_Q_Start[Ch]++]  = *PushData;
 8000a16:	4a0f      	ldr	r2, [pc, #60]	; (8000a54 <Hw_Uart_Q_Push+0x4c>)
 8000a18:	2021      	movs	r0, #33	; 0x21
 8000a1a:	f832 3014 	ldrh.w	r3, [r2, r4, lsl #1]
 8000a1e:	782d      	ldrb	r5, [r5, #0]
 8000a20:	b219      	sxth	r1, r3
 8000a22:	fb00 1104 	mla	r1, r0, r4, r1
 8000a26:	480c      	ldr	r0, [pc, #48]	; (8000a58 <Hw_Uart_Q_Push+0x50>)
 8000a28:	3301      	adds	r3, #1
 8000a2a:	5445      	strb	r5, [r0, r1]
 8000a2c:	b299      	uxth	r1, r3
	Hw_Uart_Q_Start[Ch] 						%= HW_UART_Q_BUFFER_MAX;
 8000a2e:	4b0b      	ldr	r3, [pc, #44]	; (8000a5c <Hw_Uart_Q_Push+0x54>)
 8000a30:	b208      	sxth	r0, r1
 8000a32:	4003      	ands	r3, r0
 8000a34:	2b00      	cmp	r3, #0
u8 Hw_Uart_Q_Push( u8 Ch, u8  *PushData )
{

	if (HW_UART_Q_SIZE(Ch) == (HW_UART_Q_BUFFER_MAX-1)) return FALSE;

	Hw_Uart_Q_Buffer[Ch][Hw_Uart_Q_Start[Ch]++]  = *PushData;
 8000a36:	f822 1014 	strh.w	r1, [r2, r4, lsl #1]
	Hw_Uart_Q_Start[Ch] 						%= HW_UART_Q_BUFFER_MAX;
 8000a3a:	da03      	bge.n	8000a44 <Hw_Uart_Q_Push+0x3c>
 8000a3c:	3b01      	subs	r3, #1
 8000a3e:	f063 011f 	orn	r1, r3, #31
 8000a42:	1c4b      	adds	r3, r1, #1
 8000a44:	f822 3014 	strh.w	r3, [r2, r4, lsl #1]

	return TRUE;
 8000a48:	2001      	movs	r0, #1
 8000a4a:	bd38      	pop	{r3, r4, r5, pc}
     RET     : void
---------------------------------------------------------------------------*/
u8 Hw_Uart_Q_Push( u8 Ch, u8  *PushData )
{

	if (HW_UART_Q_SIZE(Ch) == (HW_UART_Q_BUFFER_MAX-1)) return FALSE;
 8000a4c:	2000      	movs	r0, #0

	Hw_Uart_Q_Buffer[Ch][Hw_Uart_Q_Start[Ch]++]  = *PushData;
	Hw_Uart_Q_Start[Ch] 						%= HW_UART_Q_BUFFER_MAX;

	return TRUE;
}
 8000a4e:	bd38      	pop	{r3, r4, r5, pc}
 8000a50:	080009cd 	.word	0x080009cd
 8000a54:	20000694 	.word	0x20000694
 8000a58:	20000590 	.word	0x20000590
 8000a5c:	8000001f 	.word	0x8000001f

08000a60 <Hw_Uart_Q_Pop>:
     WORK    :
     ARG     : void
     RET     : void
---------------------------------------------------------------------------*/
u8 Hw_Uart_Q_Pop( u8 Ch, u8 *pData )
{
 8000a60:	b538      	push	{r3, r4, r5, lr}
	if (HW_UART_Q_SIZE(Ch) == 0) return FALSE;
 8000a62:	4b10      	ldr	r3, [pc, #64]	; (8000aa4 <Hw_Uart_Q_Pop+0x44>)
     WORK    :
     ARG     : void
     RET     : void
---------------------------------------------------------------------------*/
u8 Hw_Uart_Q_Pop( u8 Ch, u8 *pData )
{
 8000a64:	4604      	mov	r4, r0
 8000a66:	460d      	mov	r5, r1
	if (HW_UART_Q_SIZE(Ch) == 0) return FALSE;
 8000a68:	4798      	blx	r3
 8000a6a:	b1c8      	cbz	r0, 8000aa0 <Hw_Uart_Q_Pop+0x40>

	*pData = Hw_Uart_Q_Buffer[Ch][Hw_Uart_Q_End[Ch]++];
 8000a6c:	4a0e      	ldr	r2, [pc, #56]	; (8000aa8 <Hw_Uart_Q_Pop+0x48>)
 8000a6e:	2021      	movs	r0, #33	; 0x21
 8000a70:	f832 3014 	ldrh.w	r3, [r2, r4, lsl #1]
 8000a74:	b219      	sxth	r1, r3
 8000a76:	fb00 1104 	mla	r1, r0, r4, r1
 8000a7a:	480c      	ldr	r0, [pc, #48]	; (8000aac <Hw_Uart_Q_Pop+0x4c>)
 8000a7c:	3301      	adds	r3, #1
 8000a7e:	5c41      	ldrb	r1, [r0, r1]
 8000a80:	b298      	uxth	r0, r3

	Hw_Uart_Q_End[Ch] %= HW_UART_Q_BUFFER_MAX;
 8000a82:	4b0b      	ldr	r3, [pc, #44]	; (8000ab0 <Hw_Uart_Q_Pop+0x50>)
---------------------------------------------------------------------------*/
u8 Hw_Uart_Q_Pop( u8 Ch, u8 *pData )
{
	if (HW_UART_Q_SIZE(Ch) == 0) return FALSE;

	*pData = Hw_Uart_Q_Buffer[Ch][Hw_Uart_Q_End[Ch]++];
 8000a84:	7029      	strb	r1, [r5, #0]

	Hw_Uart_Q_End[Ch] %= HW_UART_Q_BUFFER_MAX;
 8000a86:	b201      	sxth	r1, r0
 8000a88:	400b      	ands	r3, r1
 8000a8a:	2b00      	cmp	r3, #0
---------------------------------------------------------------------------*/
u8 Hw_Uart_Q_Pop( u8 Ch, u8 *pData )
{
	if (HW_UART_Q_SIZE(Ch) == 0) return FALSE;

	*pData = Hw_Uart_Q_Buffer[Ch][Hw_Uart_Q_End[Ch]++];
 8000a8c:	f822 0014 	strh.w	r0, [r2, r4, lsl #1]

	Hw_Uart_Q_End[Ch] %= HW_UART_Q_BUFFER_MAX;
 8000a90:	da03      	bge.n	8000a9a <Hw_Uart_Q_Pop+0x3a>
 8000a92:	3b01      	subs	r3, #1
 8000a94:	f063 001f 	orn	r0, r3, #31
 8000a98:	1c43      	adds	r3, r0, #1
 8000a9a:	f822 3014 	strh.w	r3, [r2, r4, lsl #1]

    return TRUE;
 8000a9e:	2001      	movs	r0, #1
}
 8000aa0:	bd38      	pop	{r3, r4, r5, pc}
 8000aa2:	bf00      	nop
 8000aa4:	080009cd 	.word	0x080009cd
 8000aa8:	20000686 	.word	0x20000686
 8000aac:	20000590 	.word	0x20000590
 8000ab0:	8000001f 	.word	0x8000001f

08000ab4 <Hw_Led_Off>:
     ARG     : void
     RET     : void
---------------------------------------------------------------------------*/
void Hw_Led_Off( u8 Ch )
{
	switch( Ch )
 8000ab4:	b130      	cbz	r0, 8000ac4 <Hw_Led_Off+0x10>
 8000ab6:	2801      	cmp	r0, #1
 8000ab8:	d109      	bne.n	8000ace <Hw_Led_Off+0x1a>
		case 0:
			SET_BIT( REG_GPIOB_ODR, 4 );
			break;

		case 1:
			SET_BIT( REG_GPIOB_ODR, 5 );
 8000aba:	4b05      	ldr	r3, [pc, #20]	; (8000ad0 <Hw_Led_Off+0x1c>)
 8000abc:	681a      	ldr	r2, [r3, #0]
 8000abe:	f042 0020 	orr.w	r0, r2, #32
 8000ac2:	e003      	b.n	8000acc <Hw_Led_Off+0x18>
void Hw_Led_Off( u8 Ch )
{
	switch( Ch )
	{
		case 0:
			SET_BIT( REG_GPIOB_ODR, 4 );
 8000ac4:	4b02      	ldr	r3, [pc, #8]	; (8000ad0 <Hw_Led_Off+0x1c>)
 8000ac6:	6819      	ldr	r1, [r3, #0]
 8000ac8:	f041 0010 	orr.w	r0, r1, #16
			break;

		case 1:
			SET_BIT( REG_GPIOB_ODR, 5 );
 8000acc:	6018      	str	r0, [r3, #0]
 8000ace:	4770      	bx	lr
 8000ad0:	40010c0c 	.word	0x40010c0c

08000ad4 <Hw_Led_Init>:
     WORK    : 
     ARG     : void
     RET     : void
---------------------------------------------------------------------------*/
void Hw_Led_Init( void )
{
 8000ad4:	b508      	push	{r3, lr}
	u32 PinNum;

	//-- JTAG 핀을 Disable하고 PB3,4를 GPIO로 사용한다.(핀구성에 따라 사용하지 않을수 있음)
	//
	REG_AFIO_MAPR &= ~(0x07 << 24);
 8000ad6:	4b13      	ldr	r3, [pc, #76]	; (8000b24 <Hw_Led_Init+0x50>)
 8000ad8:	681a      	ldr	r2, [r3, #0]
 8000ada:	f022 60e0 	bic.w	r0, r2, #117440512	; 0x7000000
 8000ade:	6018      	str	r0, [r3, #0]
	REG_AFIO_MAPR |=  (0x04 << 24);
 8000ae0:	6819      	ldr	r1, [r3, #0]
 8000ae2:	f041 6280 	orr.w	r2, r1, #67108864	; 0x4000000
 8000ae6:	601a      	str	r2, [r3, #0]
	
	
	
	PinNum = 4;
	REG_GPIOB_CRL &= ~(0x0F << (PinNum*4+0));	// Clear
 8000ae8:	4b0f      	ldr	r3, [pc, #60]	; (8000b28 <Hw_Led_Init+0x54>)
 8000aea:	6818      	ldr	r0, [r3, #0]
 8000aec:	f420 2170 	bic.w	r1, r0, #983040	; 0xf0000
 8000af0:	6019      	str	r1, [r3, #0]
	REG_GPIOB_CRL |=  (0x03 << (PinNum*4+0));	// MODE, PB.3 Output mode, max speed 50Mhz
 8000af2:	681a      	ldr	r2, [r3, #0]
 8000af4:	f442 3040 	orr.w	r0, r2, #196608	; 0x30000
 8000af8:	6018      	str	r0, [r3, #0]
	REG_GPIOB_CRL |=  (0x00 << (PinNum*4+2));	// CNF,  PB.3 General purpose output push-pul
 8000afa:	6819      	ldr	r1, [r3, #0]
 8000afc:	6019      	str	r1, [r3, #0]
	
	PinNum = 5;
	REG_GPIOB_CRL &= ~(0x0F << (PinNum*5+0));	// Clear
 8000afe:	681a      	ldr	r2, [r3, #0]
 8000b00:	f022 50f0 	bic.w	r0, r2, #503316480	; 0x1e000000
 8000b04:	6018      	str	r0, [r3, #0]
	REG_GPIOB_CRL |=  (0x03 << (PinNum*5+0));	// MODE, PB.3 Output mode, max speed 50Mhz
 8000b06:	6819      	ldr	r1, [r3, #0]
 8000b08:	f041 62c0 	orr.w	r2, r1, #100663296	; 0x6000000
 8000b0c:	601a      	str	r2, [r3, #0]
	REG_GPIOB_CRL |=  (0x00 << (PinNum*5+2));	// CNF,  PB.3 General purpose output push-pul
 8000b0e:	6818      	ldr	r0, [r3, #0]
 8000b10:	6018      	str	r0, [r3, #0]
void Hw_Led_Off( u8 Ch )
{
	switch( Ch )
	{
		case 0:
			SET_BIT( REG_GPIOB_ODR, 4 );
 8000b12:	68d9      	ldr	r1, [r3, #12]
	REG_GPIOB_CRL &= ~(0x0F << (PinNum*5+0));	// Clear
	REG_GPIOB_CRL |=  (0x03 << (PinNum*5+0));	// MODE, PB.3 Output mode, max speed 50Mhz
	REG_GPIOB_CRL |=  (0x00 << (PinNum*5+2));	// CNF,  PB.3 General purpose output push-pul

	Hw_Led_Off(0);
	Hw_Led_Off(1);	
 8000b14:	2001      	movs	r0, #1
void Hw_Led_Off( u8 Ch )
{
	switch( Ch )
	{
		case 0:
			SET_BIT( REG_GPIOB_ODR, 4 );
 8000b16:	f041 0210 	orr.w	r2, r1, #16
 8000b1a:	60da      	str	r2, [r3, #12]
	REG_GPIOB_CRL &= ~(0x0F << (PinNum*5+0));	// Clear
	REG_GPIOB_CRL |=  (0x03 << (PinNum*5+0));	// MODE, PB.3 Output mode, max speed 50Mhz
	REG_GPIOB_CRL |=  (0x00 << (PinNum*5+2));	// CNF,  PB.3 General purpose output push-pul

	Hw_Led_Off(0);
	Hw_Led_Off(1);	
 8000b1c:	4b03      	ldr	r3, [pc, #12]	; (8000b2c <Hw_Led_Init+0x58>)
 8000b1e:	4798      	blx	r3
 8000b20:	bd08      	pop	{r3, pc}
 8000b22:	bf00      	nop
 8000b24:	40010004 	.word	0x40010004
 8000b28:	40010c00 	.word	0x40010c00
 8000b2c:	08000ab5 	.word	0x08000ab5

08000b30 <Hw_Led_Toggle>:
     ARG     : void
     RET     : void
---------------------------------------------------------------------------*/
void Hw_Led_Toggle( u8 Ch )
{
	switch( Ch )
 8000b30:	b130      	cbz	r0, 8000b40 <Hw_Led_Toggle+0x10>
 8000b32:	2801      	cmp	r0, #1
 8000b34:	d109      	bne.n	8000b4a <Hw_Led_Toggle+0x1a>
		case 0:
			TGL_BIT( REG_GPIOB_ODR, 4 );
			break;

		case 1:
			TGL_BIT( REG_GPIOB_ODR, 5 );
 8000b36:	4b05      	ldr	r3, [pc, #20]	; (8000b4c <Hw_Led_Toggle+0x1c>)
 8000b38:	681a      	ldr	r2, [r3, #0]
 8000b3a:	f082 0020 	eor.w	r0, r2, #32
 8000b3e:	e003      	b.n	8000b48 <Hw_Led_Toggle+0x18>
void Hw_Led_Toggle( u8 Ch )
{
	switch( Ch )
	{
		case 0:
			TGL_BIT( REG_GPIOB_ODR, 4 );
 8000b40:	4b02      	ldr	r3, [pc, #8]	; (8000b4c <Hw_Led_Toggle+0x1c>)
 8000b42:	6819      	ldr	r1, [r3, #0]
 8000b44:	f081 0010 	eor.w	r0, r1, #16
			break;

		case 1:
			TGL_BIT( REG_GPIOB_ODR, 5 );
 8000b48:	6018      	str	r0, [r3, #0]
 8000b4a:	4770      	bx	lr
 8000b4c:	40010c0c 	.word	0x40010c0c

08000b50 <Hw_VCom_Init>:
     WORK    :
     ARG     : void
     RET     : void
---------------------------------------------------------------------------*/
void Hw_VCom_Init( void )
{
 8000b50:	b508      	push	{r3, lr}
	Hw_VCom_Q_Init();
 8000b52:	4b07      	ldr	r3, [pc, #28]	; (8000b70 <Hw_VCom_Init+0x20>)
 8000b54:	4798      	blx	r3


	Hw_VCom_RxdFuncPtr = NULL;
 8000b56:	4807      	ldr	r0, [pc, #28]	; (8000b74 <Hw_VCom_Init+0x24>)
 8000b58:	2200      	movs	r2, #0


	//Disable_ISR();
	Set_System();
 8000b5a:	4907      	ldr	r1, [pc, #28]	; (8000b78 <Hw_VCom_Init+0x28>)
void Hw_VCom_Init( void )
{
	Hw_VCom_Q_Init();


	Hw_VCom_RxdFuncPtr = NULL;
 8000b5c:	6002      	str	r2, [r0, #0]


	//Disable_ISR();
	Set_System();
 8000b5e:	4788      	blx	r1

	Set_USBClock();
 8000b60:	4b06      	ldr	r3, [pc, #24]	; (8000b7c <Hw_VCom_Init+0x2c>)
 8000b62:	4798      	blx	r3
	USB_Interrupts_Config();
 8000b64:	4a06      	ldr	r2, [pc, #24]	; (8000b80 <Hw_VCom_Init+0x30>)
 8000b66:	4790      	blx	r2
	USB_Init();	
 8000b68:	4806      	ldr	r0, [pc, #24]	; (8000b84 <Hw_VCom_Init+0x34>)
 8000b6a:	4780      	blx	r0
 8000b6c:	bd08      	pop	{r3, pc}
 8000b6e:	bf00      	nop
 8000b70:	08000bc1 	.word	0x08000bc1
 8000b74:	200006a4 	.word	0x200006a4
 8000b78:	08001125 	.word	0x08001125
 8000b7c:	08001141 	.word	0x08001141
 8000b80:	08001159 	.word	0x08001159
 8000b84:	08001be1 	.word	0x08001be1

08000b88 <Hw_VCom_Getch>:
			: 시리얼 포트에서 문자 1바이트 읽는다.
     ARG
     RET
---------------------------------------------------------------------------*/
u8 Hw_VCom_Getch( void )
{
 8000b88:	b507      	push	{r0, r1, r2, lr}
	u8 Uart_GetData = 0;
 8000b8a:	2300      	movs	r3, #0
 8000b8c:	f88d 3007 	strb.w	r3, [sp, #7]

	while( 1 )
	{
		// 버퍼에 데이터 들어올때까지 기다린다.
		if( HW_VCOM_Q_VAILD(0) > 0 ) break;
 8000b90:	2000      	movs	r0, #0
 8000b92:	4906      	ldr	r1, [pc, #24]	; (8000bac <Hw_VCom_Getch+0x24>)
 8000b94:	4788      	blx	r1
 8000b96:	2800      	cmp	r0, #0
 8000b98:	d0fa      	beq.n	8000b90 <Hw_VCom_Getch+0x8>
	}

	Hw_VCom_Q_Pop( 0, &Uart_GetData );
 8000b9a:	2000      	movs	r0, #0
 8000b9c:	f10d 0107 	add.w	r1, sp, #7
 8000ba0:	4a03      	ldr	r2, [pc, #12]	; (8000bb0 <Hw_VCom_Getch+0x28>)
 8000ba2:	4790      	blx	r2

	return Uart_GetData;
}
 8000ba4:	f89d 0007 	ldrb.w	r0, [sp, #7]
 8000ba8:	bd0e      	pop	{r1, r2, r3, pc}
 8000baa:	bf00      	nop
 8000bac:	08000c09 	.word	0x08000c09
 8000bb0:	08000c71 	.word	0x08000c71

08000bb4 <Hw_VCom_Putch>:
			: 시리얼 포트로 문자 1바이트 전송
     ARG
     RET
---------------------------------------------------------------------------*/
void Hw_VCom_Putch( char Uart_PutData )
{
 8000bb4:	b508      	push	{r3, lr}
	USB_Send_Data( Uart_PutData );
 8000bb6:	4b01      	ldr	r3, [pc, #4]	; (8000bbc <Hw_VCom_Putch+0x8>)
 8000bb8:	4798      	blx	r3
 8000bba:	bd08      	pop	{r3, pc}
 8000bbc:	080012d1 	.word	0x080012d1

08000bc0 <Hw_VCom_Q_Init>:
{
	u8 i;

	for( i=0; i<HW_VCOM_Q_CH_MAX; i++ )
	{
		Hw_VCom_Q_Start[i] = Hw_VCom_Q_End[i] = 0;
 8000bc0:	4a02      	ldr	r2, [pc, #8]	; (8000bcc <Hw_VCom_Q_Init+0xc>)
 8000bc2:	4803      	ldr	r0, [pc, #12]	; (8000bd0 <Hw_VCom_Q_Init+0x10>)
 8000bc4:	2300      	movs	r3, #0
 8000bc6:	8013      	strh	r3, [r2, #0]
 8000bc8:	8003      	strh	r3, [r0, #0]
 8000bca:	4770      	bx	lr
 8000bcc:	20000aaa 	.word	0x20000aaa
 8000bd0:	20000aac 	.word	0x20000aac

08000bd4 <HW_VCOM_Q_SIZE>:
     ARG     : void
     RET     : void
---------------------------------------------------------------------------*/
u32 HW_VCOM_Q_SIZE( u8 Ch )
{
	return (Hw_VCom_Q_Start[Ch] - Hw_VCom_Q_End[Ch] + HW_VCOM_Q_BUFFER_MAX) % HW_VCOM_Q_BUFFER_MAX;
 8000bd4:	4b09      	ldr	r3, [pc, #36]	; (8000bfc <HW_VCOM_Q_SIZE+0x28>)
 8000bd6:	490a      	ldr	r1, [pc, #40]	; (8000c00 <HW_VCOM_Q_SIZE+0x2c>)
 8000bd8:	f933 2010 	ldrsh.w	r2, [r3, r0, lsl #1]
 8000bdc:	f931 0010 	ldrsh.w	r0, [r1, r0, lsl #1]
 8000be0:	1a13      	subs	r3, r2, r0
 8000be2:	4808      	ldr	r0, [pc, #32]	; (8000c04 <HW_VCOM_Q_SIZE+0x30>)
 8000be4:	f503 6280 	add.w	r2, r3, #1024	; 0x400
 8000be8:	4010      	ands	r0, r2
 8000bea:	2800      	cmp	r0, #0
 8000bec:	da05      	bge.n	8000bfa <HW_VCOM_Q_SIZE+0x26>
 8000bee:	1e41      	subs	r1, r0, #1
 8000bf0:	ea6f 5081 	mvn.w	r0, r1, lsl #22
 8000bf4:	ea6f 5390 	mvn.w	r3, r0, lsr #22
 8000bf8:	1c58      	adds	r0, r3, #1
}
 8000bfa:	4770      	bx	lr
 8000bfc:	20000aac 	.word	0x20000aac
 8000c00:	20000aaa 	.word	0x20000aaa
 8000c04:	800003ff 	.word	0x800003ff

08000c08 <HW_VCOM_Q_VAILD>:
     WORK    :
     ARG     : void
     RET     : void
---------------------------------------------------------------------------*/
u32 HW_VCOM_Q_VAILD( u8 Ch )
{
 8000c08:	b508      	push	{r3, lr}
	return HW_VCOM_Q_SIZE(Ch);
 8000c0a:	4b01      	ldr	r3, [pc, #4]	; (8000c10 <HW_VCOM_Q_VAILD+0x8>)
 8000c0c:	4798      	blx	r3
}
 8000c0e:	bd08      	pop	{r3, pc}
 8000c10:	08000bd5 	.word	0x08000bd5

08000c14 <Hw_VCom_Q_Push>:
     WORK    : 
     ARG     : void
     RET     : void
---------------------------------------------------------------------------*/
u8 Hw_VCom_Q_Push( u8 Ch, u8  *PushData )
{
 8000c14:	b538      	push	{r3, r4, r5, lr}

	if (HW_VCOM_Q_SIZE(Ch) == (HW_VCOM_Q_BUFFER_MAX-1)) return FALSE;
 8000c16:	4b12      	ldr	r3, [pc, #72]	; (8000c60 <Hw_VCom_Q_Push+0x4c>)
     WORK    : 
     ARG     : void
     RET     : void
---------------------------------------------------------------------------*/
u8 Hw_VCom_Q_Push( u8 Ch, u8  *PushData )
{
 8000c18:	460d      	mov	r5, r1
 8000c1a:	4604      	mov	r4, r0

	if (HW_VCOM_Q_SIZE(Ch) == (HW_VCOM_Q_BUFFER_MAX-1)) return FALSE;
 8000c1c:	4798      	blx	r3
 8000c1e:	f240 31ff 	movw	r1, #1023	; 0x3ff
 8000c22:	4288      	cmp	r0, r1
 8000c24:	d019      	beq.n	8000c5a <Hw_VCom_Q_Push+0x46>

	Hw_VCom_Q_Buffer[Ch][Hw_VCom_Q_Start[Ch]++]  = *PushData;
 8000c26:	4a0f      	ldr	r2, [pc, #60]	; (8000c64 <Hw_VCom_Q_Push+0x50>)
 8000c28:	eb04 2084 	add.w	r0, r4, r4, lsl #10
 8000c2c:	f832 3014 	ldrh.w	r3, [r2, r4, lsl #1]
 8000c30:	782d      	ldrb	r5, [r5, #0]
 8000c32:	b219      	sxth	r1, r3
 8000c34:	1841      	adds	r1, r0, r1
 8000c36:	480c      	ldr	r0, [pc, #48]	; (8000c68 <Hw_VCom_Q_Push+0x54>)
 8000c38:	3301      	adds	r3, #1
 8000c3a:	5445      	strb	r5, [r0, r1]
	Hw_VCom_Q_Start[Ch] 						%= HW_VCOM_Q_BUFFER_MAX;
 8000c3c:	480b      	ldr	r0, [pc, #44]	; (8000c6c <Hw_VCom_Q_Push+0x58>)
 8000c3e:	b219      	sxth	r1, r3
 8000c40:	4008      	ands	r0, r1
 8000c42:	2800      	cmp	r0, #0
 8000c44:	da05      	bge.n	8000c52 <Hw_VCom_Q_Push+0x3e>
 8000c46:	3801      	subs	r0, #1
 8000c48:	ea6f 5380 	mvn.w	r3, r0, lsl #22
 8000c4c:	ea6f 5193 	mvn.w	r1, r3, lsr #22
 8000c50:	1c48      	adds	r0, r1, #1
 8000c52:	f822 0014 	strh.w	r0, [r2, r4, lsl #1]

	return TRUE;
 8000c56:	2001      	movs	r0, #1
 8000c58:	bd38      	pop	{r3, r4, r5, pc}
     RET     : void
---------------------------------------------------------------------------*/
u8 Hw_VCom_Q_Push( u8 Ch, u8  *PushData )
{

	if (HW_VCOM_Q_SIZE(Ch) == (HW_VCOM_Q_BUFFER_MAX-1)) return FALSE;
 8000c5a:	2000      	movs	r0, #0

	Hw_VCom_Q_Buffer[Ch][Hw_VCom_Q_Start[Ch]++]  = *PushData;
	Hw_VCom_Q_Start[Ch] 						%= HW_VCOM_Q_BUFFER_MAX;

	return TRUE;
}
 8000c5c:	bd38      	pop	{r3, r4, r5, pc}
 8000c5e:	bf00      	nop
 8000c60:	08000bd5 	.word	0x08000bd5
 8000c64:	20000aac 	.word	0x20000aac
 8000c68:	200006a8 	.word	0x200006a8
 8000c6c:	800003ff 	.word	0x800003ff

08000c70 <Hw_VCom_Q_Pop>:
     WORK    :
     ARG     : void
     RET     : void
---------------------------------------------------------------------------*/
u8 Hw_VCom_Q_Pop( u8 Ch, u8 *pData )
{
 8000c70:	b538      	push	{r3, r4, r5, lr}
	if (HW_VCOM_Q_SIZE(Ch) == 0) return FALSE;
 8000c72:	4b0f      	ldr	r3, [pc, #60]	; (8000cb0 <Hw_VCom_Q_Pop+0x40>)
     WORK    :
     ARG     : void
     RET     : void
---------------------------------------------------------------------------*/
u8 Hw_VCom_Q_Pop( u8 Ch, u8 *pData )
{
 8000c74:	4604      	mov	r4, r0
 8000c76:	460d      	mov	r5, r1
	if (HW_VCOM_Q_SIZE(Ch) == 0) return FALSE;
 8000c78:	4798      	blx	r3
 8000c7a:	b1c0      	cbz	r0, 8000cae <Hw_VCom_Q_Pop+0x3e>

	*pData = Hw_VCom_Q_Buffer[Ch][Hw_VCom_Q_End[Ch]++];
 8000c7c:	4a0d      	ldr	r2, [pc, #52]	; (8000cb4 <Hw_VCom_Q_Pop+0x44>)
 8000c7e:	eb04 2084 	add.w	r0, r4, r4, lsl #10
 8000c82:	f832 3014 	ldrh.w	r3, [r2, r4, lsl #1]
 8000c86:	b219      	sxth	r1, r3
 8000c88:	1841      	adds	r1, r0, r1
 8000c8a:	480b      	ldr	r0, [pc, #44]	; (8000cb8 <Hw_VCom_Q_Pop+0x48>)
 8000c8c:	3301      	adds	r3, #1
 8000c8e:	5c41      	ldrb	r1, [r0, r1]

	Hw_VCom_Q_End[Ch] %= HW_VCOM_Q_BUFFER_MAX;
 8000c90:	b218      	sxth	r0, r3
---------------------------------------------------------------------------*/
u8 Hw_VCom_Q_Pop( u8 Ch, u8 *pData )
{
	if (HW_VCOM_Q_SIZE(Ch) == 0) return FALSE;

	*pData = Hw_VCom_Q_Buffer[Ch][Hw_VCom_Q_End[Ch]++];
 8000c92:	7029      	strb	r1, [r5, #0]

	Hw_VCom_Q_End[Ch] %= HW_VCOM_Q_BUFFER_MAX;
 8000c94:	4909      	ldr	r1, [pc, #36]	; (8000cbc <Hw_VCom_Q_Pop+0x4c>)
 8000c96:	4001      	ands	r1, r0
 8000c98:	2900      	cmp	r1, #0
 8000c9a:	da05      	bge.n	8000ca8 <Hw_VCom_Q_Pop+0x38>
 8000c9c:	3901      	subs	r1, #1
 8000c9e:	ea6f 5381 	mvn.w	r3, r1, lsl #22
 8000ca2:	ea6f 5093 	mvn.w	r0, r3, lsr #22
 8000ca6:	1c41      	adds	r1, r0, #1
 8000ca8:	f822 1014 	strh.w	r1, [r2, r4, lsl #1]

    return TRUE;
 8000cac:	2001      	movs	r0, #1
}
 8000cae:	bd38      	pop	{r3, r4, r5, pc}
 8000cb0:	08000bd5 	.word	0x08000bd5
 8000cb4:	20000aaa 	.word	0x20000aaa
 8000cb8:	200006a8 	.word	0x200006a8
 8000cbc:	800003ff 	.word	0x800003ff

08000cc0 <EP1_IN_Callback>:
* Input          : None.
* Output         : None.
* Return         : None.
*******************************************************************************/
void EP1_IN_Callback (void)
{
 8000cc0:	b538      	push	{r3, r4, r5, lr}
  uint16_t USB_Tx_ptr;
  uint16_t USB_Tx_length;
  
  if (USB_Tx_State == 1)
 8000cc2:	4913      	ldr	r1, [pc, #76]	; (8000d10 <EP1_IN_Callback+0x50>)
 8000cc4:	780b      	ldrb	r3, [r1, #0]
 8000cc6:	2b01      	cmp	r3, #1
 8000cc8:	d121      	bne.n	8000d0e <EP1_IN_Callback+0x4e>
  {
    if (USART_Rx_length == 0) 
 8000cca:	4a12      	ldr	r2, [pc, #72]	; (8000d14 <EP1_IN_Callback+0x54>)
 8000ccc:	6813      	ldr	r3, [r2, #0]
 8000cce:	b90b      	cbnz	r3, 8000cd4 <EP1_IN_Callback+0x14>
    {
      USB_Tx_State = 0;
 8000cd0:	700b      	strb	r3, [r1, #0]
 8000cd2:	bd38      	pop	{r3, r4, r5, pc}
 8000cd4:	4c10      	ldr	r4, [pc, #64]	; (8000d18 <EP1_IN_Callback+0x58>)
    }
    else 
    {
      if (USART_Rx_length > VIRTUAL_COM_PORT_DATA_SIZE){
 8000cd6:	2b40      	cmp	r3, #64	; 0x40
        USB_Tx_ptr = USART_Rx_ptr_out;
 8000cd8:	6820      	ldr	r0, [r4, #0]
 8000cda:	b281      	uxth	r1, r0
    {
      USB_Tx_State = 0;
    }
    else 
    {
      if (USART_Rx_length > VIRTUAL_COM_PORT_DATA_SIZE){
 8000cdc:	d905      	bls.n	8000cea <EP1_IN_Callback+0x2a>
        USB_Tx_ptr = USART_Rx_ptr_out;
        USB_Tx_length = VIRTUAL_COM_PORT_DATA_SIZE;
        
        USART_Rx_ptr_out += VIRTUAL_COM_PORT_DATA_SIZE;
 8000cde:	3040      	adds	r0, #64	; 0x40
        USART_Rx_length -= VIRTUAL_COM_PORT_DATA_SIZE;    
 8000ce0:	3b40      	subs	r3, #64	; 0x40
    {
      if (USART_Rx_length > VIRTUAL_COM_PORT_DATA_SIZE){
        USB_Tx_ptr = USART_Rx_ptr_out;
        USB_Tx_length = VIRTUAL_COM_PORT_DATA_SIZE;
        
        USART_Rx_ptr_out += VIRTUAL_COM_PORT_DATA_SIZE;
 8000ce2:	6020      	str	r0, [r4, #0]
        USART_Rx_length -= VIRTUAL_COM_PORT_DATA_SIZE;    
 8000ce4:	6013      	str	r3, [r2, #0]
    }
    else 
    {
      if (USART_Rx_length > VIRTUAL_COM_PORT_DATA_SIZE){
        USB_Tx_ptr = USART_Rx_ptr_out;
        USB_Tx_length = VIRTUAL_COM_PORT_DATA_SIZE;
 8000ce6:	2540      	movs	r5, #64	; 0x40
 8000ce8:	e004      	b.n	8000cf4 <EP1_IN_Callback+0x34>
        USART_Rx_length -= VIRTUAL_COM_PORT_DATA_SIZE;    
      }
      else 
      {
        USB_Tx_ptr = USART_Rx_ptr_out;
        USB_Tx_length = USART_Rx_length;
 8000cea:	b29d      	uxth	r5, r3
        
        USART_Rx_ptr_out += USART_Rx_length;
 8000cec:	18c3      	adds	r3, r0, r3
        USART_Rx_length = 0;
 8000cee:	2000      	movs	r0, #0
      else 
      {
        USB_Tx_ptr = USART_Rx_ptr_out;
        USB_Tx_length = USART_Rx_length;
        
        USART_Rx_ptr_out += USART_Rx_length;
 8000cf0:	6023      	str	r3, [r4, #0]
        USART_Rx_length = 0;
 8000cf2:	6010      	str	r0, [r2, #0]
      }
      UserToPMABufferCopy(&USART_Rx_Buffer[USB_Tx_ptr], ENDP1_TXADDR, USB_Tx_length);
 8000cf4:	4a09      	ldr	r2, [pc, #36]	; (8000d1c <EP1_IN_Callback+0x5c>)
 8000cf6:	4b0a      	ldr	r3, [pc, #40]	; (8000d20 <EP1_IN_Callback+0x60>)
 8000cf8:	1850      	adds	r0, r2, r1
 8000cfa:	21c0      	movs	r1, #192	; 0xc0
 8000cfc:	462a      	mov	r2, r5
 8000cfe:	4798      	blx	r3
      SetEPTxCount(ENDP1, USB_Tx_length);
 8000d00:	2001      	movs	r0, #1
 8000d02:	4629      	mov	r1, r5
 8000d04:	4a07      	ldr	r2, [pc, #28]	; (8000d24 <EP1_IN_Callback+0x64>)
 8000d06:	4790      	blx	r2
      SetEPTxValid(ENDP1); 
 8000d08:	2001      	movs	r0, #1
 8000d0a:	4907      	ldr	r1, [pc, #28]	; (8000d28 <EP1_IN_Callback+0x68>)
 8000d0c:	4788      	blx	r1
 8000d0e:	bd38      	pop	{r3, r4, r5, pc}
 8000d10:	200002b8 	.word	0x200002b8
 8000d14:	200002c4 	.word	0x200002c4
 8000d18:	200002c0 	.word	0x200002c0
 8000d1c:	20000af2 	.word	0x20000af2
 8000d20:	08001c19 	.word	0x08001c19
 8000d24:	08001e2d 	.word	0x08001e2d
 8000d28:	08001d09 	.word	0x08001d09

08000d2c <EP3_OUT_Callback>:
* Input          : None.
* Output         : None.
* Return         : None.
*******************************************************************************/
void EP3_OUT_Callback(void)
{
 8000d2c:	b510      	push	{r4, lr}
  uint16_t USB_Rx_Cnt;
  
  /* Get the received data buffer and update the counter */
  USB_Rx_Cnt = USB_SIL_Read(EP3_OUT, USB_Rx_Buffer);
 8000d2e:	4c06      	ldr	r4, [pc, #24]	; (8000d48 <EP3_OUT_Callback+0x1c>)
 8000d30:	4b06      	ldr	r3, [pc, #24]	; (8000d4c <EP3_OUT_Callback+0x20>)
 8000d32:	4621      	mov	r1, r4
 8000d34:	2003      	movs	r0, #3
 8000d36:	4798      	blx	r3
  
  /* USB data will be immediately processed, this allow next USB traffic being 
  NAKed till the end of the USART Xfer */
  
  USB_To_USART_Send_Data(USB_Rx_Buffer, USB_Rx_Cnt);
 8000d38:	4a05      	ldr	r2, [pc, #20]	; (8000d50 <EP3_OUT_Callback+0x24>)
 8000d3a:	b2c1      	uxtb	r1, r0
 8000d3c:	4620      	mov	r0, r4
 8000d3e:	4790      	blx	r2


  /* Enable the receive of data on EP3 */
  SetEPRxValid(ENDP3);
 8000d40:	2003      	movs	r0, #3
 8000d42:	4904      	ldr	r1, [pc, #16]	; (8000d54 <EP3_OUT_Callback+0x28>)
 8000d44:	4788      	blx	r1
 8000d46:	bd10      	pop	{r4, pc}
 8000d48:	20000ab0 	.word	0x20000ab0
 8000d4c:	08001ed1 	.word	0x08001ed1
 8000d50:	08001201 	.word	0x08001201
 8000d54:	08001d2b 	.word	0x08001d2b

08000d58 <SOF_Callback>:
* Input          : None.
* Output         : None.
* Return         : None.
*******************************************************************************/
void SOF_Callback(void)
{
 8000d58:	b508      	push	{r3, lr}
  static uint32_t FrameCount = 0;
  
  if(bDeviceState == CONFIGURED)
 8000d5a:	4b07      	ldr	r3, [pc, #28]	; (8000d78 <SOF_Callback+0x20>)
 8000d5c:	6818      	ldr	r0, [r3, #0]
 8000d5e:	2805      	cmp	r0, #5
 8000d60:	d109      	bne.n	8000d76 <SOF_Callback+0x1e>
  {
    if (FrameCount++ == VCOMPORT_IN_FRAME_INTERVAL)
 8000d62:	4b06      	ldr	r3, [pc, #24]	; (8000d7c <SOF_Callback+0x24>)
 8000d64:	681a      	ldr	r2, [r3, #0]
 8000d66:	1c51      	adds	r1, r2, #1
 8000d68:	2a05      	cmp	r2, #5
 8000d6a:	6019      	str	r1, [r3, #0]
 8000d6c:	d103      	bne.n	8000d76 <SOF_Callback+0x1e>
    {
      /* Reset the frame counter */
      FrameCount = 0;
 8000d6e:	2000      	movs	r0, #0
 8000d70:	6018      	str	r0, [r3, #0]
      
      /* Check the data to be sent through IN pipe */
      Handle_USBAsynchXfer();
 8000d72:	4b03      	ldr	r3, [pc, #12]	; (8000d80 <SOF_Callback+0x28>)
 8000d74:	4798      	blx	r3
 8000d76:	bd08      	pop	{r3, pc}
 8000d78:	200002b4 	.word	0x200002b4
 8000d7c:	200002ac 	.word	0x200002ac
 8000d80:	08001235 	.word	0x08001235

08000d84 <USB_Istr>:
* Input          : None.
* Output         : None.
* Return         : None.
*******************************************************************************/
void USB_Istr(void)
{
 8000d84:	b538      	push	{r3, r4, r5, lr}
    uint32_t i=0;
 __IO uint32_t EP[8];
  
  wIstr = _GetISTR();
 8000d86:	4b19      	ldr	r3, [pc, #100]	; (8000dec <USB_Istr+0x68>)
 8000d88:	4a19      	ldr	r2, [pc, #100]	; (8000df0 <USB_Istr+0x6c>)
 8000d8a:	6819      	ldr	r1, [r3, #0]

  //Lb_printf("%x %x %x %x  \r\n", wIstr >> 16, wIstr & 0x0000FFFF, wInterrupt_Mask >> 16, wInterrupt_Mask&0x0000FFFF);

#if (IMR_MSK & ISTR_SOF)
  if (wIstr & ISTR_SOF & wInterrupt_Mask)
 8000d8c:	4d19      	ldr	r5, [pc, #100]	; (8000df4 <USB_Istr+0x70>)
void USB_Istr(void)
{
    uint32_t i=0;
 __IO uint32_t EP[8];
  
  wIstr = _GetISTR();
 8000d8e:	b288      	uxth	r0, r1
 8000d90:	8010      	strh	r0, [r2, #0]

  //Lb_printf("%x %x %x %x  \r\n", wIstr >> 16, wIstr & 0x0000FFFF, wInterrupt_Mask >> 16, wInterrupt_Mask&0x0000FFFF);

#if (IMR_MSK & ISTR_SOF)
  if (wIstr & ISTR_SOF & wInterrupt_Mask)
 8000d92:	8814      	ldrh	r4, [r2, #0]
 8000d94:	8829      	ldrh	r1, [r5, #0]
 8000d96:	4021      	ands	r1, r4
 8000d98:	f401 7000 	and.w	r0, r1, #512	; 0x200
 8000d9c:	b282      	uxth	r2, r0
 8000d9e:	b14a      	cbz	r2, 8000db4 <USB_Istr+0x30>
  {
	//Lb_printf(" ISTR_SOF ");

    _SetISTR((uint16_t)CLR_SOF);
 8000da0:	f64f 54ff 	movw	r4, #65023	; 0xfdff
 8000da4:	601c      	str	r4, [r3, #0]
    bIntPackSOF++;
 8000da6:	4b14      	ldr	r3, [pc, #80]	; (8000df8 <USB_Istr+0x74>)

#ifdef SOF_CALLBACK
    SOF_Callback();
 8000da8:	4a14      	ldr	r2, [pc, #80]	; (8000dfc <USB_Istr+0x78>)
  if (wIstr & ISTR_SOF & wInterrupt_Mask)
  {
	//Lb_printf(" ISTR_SOF ");

    _SetISTR((uint16_t)CLR_SOF);
    bIntPackSOF++;
 8000daa:	781d      	ldrb	r5, [r3, #0]
 8000dac:	1c69      	adds	r1, r5, #1
 8000dae:	b2c8      	uxtb	r0, r1
 8000db0:	7018      	strb	r0, [r3, #0]

#ifdef SOF_CALLBACK
    SOF_Callback();
 8000db2:	4790      	blx	r2
  }
#endif
  /*-*-*-*-*-*-*-*-*-*-*-*-*-*-*-*-*-*-*-*-*-*-*-*-*-*-*-*-*-*-*-*-*-*-*/  
  
#if (IMR_MSK & ISTR_CTR)
  if (wIstr & ISTR_CTR & wInterrupt_Mask)
 8000db4:	4c0e      	ldr	r4, [pc, #56]	; (8000df0 <USB_Istr+0x6c>)
 8000db6:	4b0f      	ldr	r3, [pc, #60]	; (8000df4 <USB_Istr+0x70>)
 8000db8:	8825      	ldrh	r5, [r4, #0]
 8000dba:	8819      	ldrh	r1, [r3, #0]
 8000dbc:	4029      	ands	r1, r5
 8000dbe:	f401 4000 	and.w	r0, r1, #32768	; 0x8000
 8000dc2:	b282      	uxth	r2, r0
 8000dc4:	4625      	mov	r5, r4
 8000dc6:	461c      	mov	r4, r3
 8000dc8:	b10a      	cbz	r2, 8000dce <USB_Istr+0x4a>
  {
    /* servicing of the endpoint correct transfer interrupt */
    /* clear of the CTR flag into the sub */
    CTR_LP();
 8000dca:	4b0d      	ldr	r3, [pc, #52]	; (8000e00 <USB_Istr+0x7c>)
 8000dcc:	4798      	blx	r3
#endif
  }
#endif
  /*-*-*-*-*-*-*-*-*-*-*-*-*-*-*-*-*-*-*-*-*-*-*-*-*-*-*-*-*-*-*-*-*-*-*/  
#if (IMR_MSK & ISTR_RESET)
  if (wIstr & ISTR_RESET & wInterrupt_Mask)
 8000dce:	8829      	ldrh	r1, [r5, #0]
 8000dd0:	8820      	ldrh	r0, [r4, #0]
 8000dd2:	4008      	ands	r0, r1
 8000dd4:	f400 6280 	and.w	r2, r0, #1024	; 0x400
 8000dd8:	b293      	uxth	r3, r2
 8000dda:	b133      	cbz	r3, 8000dea <USB_Istr+0x66>
  {
  	//Lb_printf(" ISTR_RESET ");
  	
    _SetISTR((uint16_t)CLR_RESET);
 8000ddc:	4803      	ldr	r0, [pc, #12]	; (8000dec <USB_Istr+0x68>)
    Device_Property.Reset();
 8000dde:	4a09      	ldr	r2, [pc, #36]	; (8000e04 <USB_Istr+0x80>)
#if (IMR_MSK & ISTR_RESET)
  if (wIstr & ISTR_RESET & wInterrupt_Mask)
  {
  	//Lb_printf(" ISTR_RESET ");
  	
    _SetISTR((uint16_t)CLR_RESET);
 8000de0:	f64f 31ff 	movw	r1, #64511	; 0xfbff
 8000de4:	6001      	str	r1, [r0, #0]
    Device_Property.Reset();
 8000de6:	6853      	ldr	r3, [r2, #4]
 8000de8:	4798      	blx	r3
 8000dea:	bd38      	pop	{r3, r4, r5, pc}
 8000dec:	40005c44 	.word	0x40005c44
 8000df0:	20000af0 	.word	0x20000af0
 8000df4:	20001324 	.word	0x20001324
 8000df8:	200002b0 	.word	0x200002b0
 8000dfc:	08000d59 	.word	0x08000d59
 8000e00:	08001f01 	.word	0x08001f01
 8000e04:	2000005c 	.word	0x2000005c

08000e08 <Virtual_Com_Port_SetConfiguration>:
*******************************************************************************/
void Virtual_Com_Port_SetConfiguration(void)
{
  DEVICE_INFO *pInfo = &Device_Info;

  if (pInfo->Current_Configuration != 0)
 8000e08:	4b03      	ldr	r3, [pc, #12]	; (8000e18 <Virtual_Com_Port_SetConfiguration+0x10>)
 8000e0a:	7a98      	ldrb	r0, [r3, #10]
 8000e0c:	b110      	cbz	r0, 8000e14 <Virtual_Com_Port_SetConfiguration+0xc>
  {
    /* Device configured */
    bDeviceState = CONFIGURED;
 8000e0e:	4903      	ldr	r1, [pc, #12]	; (8000e1c <Virtual_Com_Port_SetConfiguration+0x14>)
 8000e10:	2205      	movs	r2, #5
 8000e12:	600a      	str	r2, [r1, #0]
 8000e14:	4770      	bx	lr
 8000e16:	bf00      	nop
 8000e18:	20001300 	.word	0x20001300
 8000e1c:	200002b4 	.word	0x200002b4

08000e20 <Virtual_Com_Port_SetDeviceAddress>:
* Output         : None.
* Return         : None.
*******************************************************************************/
void Virtual_Com_Port_SetDeviceAddress (void)
{
  bDeviceState = ADDRESSED;
 8000e20:	4b01      	ldr	r3, [pc, #4]	; (8000e28 <Virtual_Com_Port_SetDeviceAddress+0x8>)
 8000e22:	2204      	movs	r2, #4
 8000e24:	601a      	str	r2, [r3, #0]
 8000e26:	4770      	bx	lr
 8000e28:	200002b4 	.word	0x200002b4

08000e2c <Virtual_Com_Port_Status_In>:
* Output         : None.
* Return         : None.
*******************************************************************************/
void Virtual_Com_Port_Status_In(void)
{
  if (Request == SET_LINE_CODING)
 8000e2c:	4b03      	ldr	r3, [pc, #12]	; (8000e3c <Virtual_Com_Port_Status_In+0x10>)
 8000e2e:	781a      	ldrb	r2, [r3, #0]
 8000e30:	2a20      	cmp	r2, #32
 8000e32:	d101      	bne.n	8000e38 <Virtual_Com_Port_Status_In+0xc>
  {
    //USART_Config();
    Request = 0;
 8000e34:	2000      	movs	r0, #0
 8000e36:	7018      	strb	r0, [r3, #0]
 8000e38:	4770      	bx	lr
 8000e3a:	bf00      	nop
 8000e3c:	200002b1 	.word	0x200002b1

08000e40 <Virtual_Com_Port_Status_Out>:
* Input          : None.
* Output         : None.
* Return         : None.
*******************************************************************************/
void Virtual_Com_Port_Status_Out(void)
{}
 8000e40:	4770      	bx	lr
	...

08000e44 <Virtual_Com_Port_Data_Setup>:
{
  uint8_t    *(*CopyRoutine)(uint16_t);

  CopyRoutine = NULL;

  if (RequestNo == GET_LINE_CODING)
 8000e44:	2821      	cmp	r0, #33	; 0x21
* Input          : Request Nb.
* Output         : None.
* Return         : USB_UNSUPPORT or USB_SUCCESS.
*******************************************************************************/
RESULT Virtual_Com_Port_Data_Setup(uint8_t RequestNo)
{
 8000e46:	b510      	push	{r4, lr}
  uint8_t    *(*CopyRoutine)(uint16_t);

  CopyRoutine = NULL;

  if (RequestNo == GET_LINE_CODING)
 8000e48:	d108      	bne.n	8000e5c <Virtual_Com_Port_Data_Setup+0x18>
  {
    if (Type_Recipient == (CLASS_REQUEST | INTERFACE_RECIPIENT))
 8000e4a:	4811      	ldr	r0, [pc, #68]	; (8000e90 <Virtual_Com_Port_Data_Setup+0x4c>)
 8000e4c:	6803      	ldr	r3, [r0, #0]
 8000e4e:	7819      	ldrb	r1, [r3, #0]
 8000e50:	f001 027f 	and.w	r2, r1, #127	; 0x7f
 8000e54:	2a21      	cmp	r2, #33	; 0x21
 8000e56:	d011      	beq.n	8000e7c <Virtual_Com_Port_Data_Setup+0x38>
    Request = SET_LINE_CODING;
  }

  if (CopyRoutine == NULL)
  {
    return USB_UNSUPPORT;
 8000e58:	2002      	movs	r0, #2
 8000e5a:	bd10      	pop	{r4, pc}
    if (Type_Recipient == (CLASS_REQUEST | INTERFACE_RECIPIENT))
    {
      CopyRoutine = Virtual_Com_Port_GetLineCoding;
    }
  }
  else if (RequestNo == SET_LINE_CODING)
 8000e5c:	2820      	cmp	r0, #32
 8000e5e:	d1fb      	bne.n	8000e58 <Virtual_Com_Port_Data_Setup+0x14>
  {
    if (Type_Recipient == (CLASS_REQUEST | INTERFACE_RECIPIENT))
 8000e60:	4b0b      	ldr	r3, [pc, #44]	; (8000e90 <Virtual_Com_Port_Data_Setup+0x4c>)
 8000e62:	6819      	ldr	r1, [r3, #0]
 8000e64:	780a      	ldrb	r2, [r1, #0]
*******************************************************************************/
RESULT Virtual_Com_Port_Data_Setup(uint8_t RequestNo)
{
  uint8_t    *(*CopyRoutine)(uint16_t);

  CopyRoutine = NULL;
 8000e66:	490b      	ldr	r1, [pc, #44]	; (8000e94 <Virtual_Com_Port_Data_Setup+0x50>)
      CopyRoutine = Virtual_Com_Port_GetLineCoding;
    }
  }
  else if (RequestNo == SET_LINE_CODING)
  {
    if (Type_Recipient == (CLASS_REQUEST | INTERFACE_RECIPIENT))
 8000e68:	f002 037f 	and.w	r3, r2, #127	; 0x7f
    {
      CopyRoutine = Virtual_Com_Port_SetLineCoding;
    }
    Request = SET_LINE_CODING;
 8000e6c:	4a0a      	ldr	r2, [pc, #40]	; (8000e98 <Virtual_Com_Port_Data_Setup+0x54>)
*******************************************************************************/
RESULT Virtual_Com_Port_Data_Setup(uint8_t RequestNo)
{
  uint8_t    *(*CopyRoutine)(uint16_t);

  CopyRoutine = NULL;
 8000e6e:	2b21      	cmp	r3, #33	; 0x21
 8000e70:	bf0c      	ite	eq
 8000e72:	460b      	moveq	r3, r1
 8000e74:	2300      	movne	r3, #0
  {
    if (Type_Recipient == (CLASS_REQUEST | INTERFACE_RECIPIENT))
    {
      CopyRoutine = Virtual_Com_Port_SetLineCoding;
    }
    Request = SET_LINE_CODING;
 8000e76:	7010      	strb	r0, [r2, #0]
  }

  if (CopyRoutine == NULL)
 8000e78:	b90b      	cbnz	r3, 8000e7e <Virtual_Com_Port_Data_Setup+0x3a>
 8000e7a:	e7ed      	b.n	8000e58 <Virtual_Com_Port_Data_Setup+0x14>

  if (RequestNo == GET_LINE_CODING)
  {
    if (Type_Recipient == (CLASS_REQUEST | INTERFACE_RECIPIENT))
    {
      CopyRoutine = Virtual_Com_Port_GetLineCoding;
 8000e7c:	4b07      	ldr	r3, [pc, #28]	; (8000e9c <Virtual_Com_Port_Data_Setup+0x58>)
  if (CopyRoutine == NULL)
  {
    return USB_UNSUPPORT;
  }

  pInformation->Ctrl_Info.CopyData = CopyRoutine;
 8000e7e:	4c04      	ldr	r4, [pc, #16]	; (8000e90 <Virtual_Com_Port_Data_Setup+0x4c>)
 8000e80:	6820      	ldr	r0, [r4, #0]
  pInformation->Ctrl_Info.Usb_wOffset = 0;
 8000e82:	2400      	movs	r4, #0
  if (CopyRoutine == NULL)
  {
    return USB_UNSUPPORT;
  }

  pInformation->Ctrl_Info.CopyData = CopyRoutine;
 8000e84:	6183      	str	r3, [r0, #24]
  pInformation->Ctrl_Info.Usb_wOffset = 0;
 8000e86:	8244      	strh	r4, [r0, #18]
  (*CopyRoutine)(0);
 8000e88:	4620      	mov	r0, r4
 8000e8a:	4798      	blx	r3
  return USB_SUCCESS;
 8000e8c:	4620      	mov	r0, r4
}
 8000e8e:	bd10      	pop	{r4, pc}
 8000e90:	20001320 	.word	0x20001320
 8000e94:	08000eed 	.word	0x08000eed
 8000e98:	200002b1 	.word	0x200002b1
 8000e9c:	08000ed5 	.word	0x08000ed5

08000ea0 <Virtual_Com_Port_NoData_Setup>:
* Return         : USB_UNSUPPORT or USB_SUCCESS.
*******************************************************************************/
RESULT Virtual_Com_Port_NoData_Setup(uint8_t RequestNo)
{

  if (Type_Recipient == (CLASS_REQUEST | INTERFACE_RECIPIENT))
 8000ea0:	4b07      	ldr	r3, [pc, #28]	; (8000ec0 <Virtual_Com_Port_NoData_Setup+0x20>)
 8000ea2:	6819      	ldr	r1, [r3, #0]
 8000ea4:	780a      	ldrb	r2, [r1, #0]
 8000ea6:	f002 037f 	and.w	r3, r2, #127	; 0x7f
 8000eaa:	2b21      	cmp	r3, #33	; 0x21
 8000eac:	d105      	bne.n	8000eba <Virtual_Com_Port_NoData_Setup+0x1a>
  {
    if (RequestNo == SET_COMM_FEATURE)
 8000eae:	2802      	cmp	r0, #2
 8000eb0:	d101      	bne.n	8000eb6 <Virtual_Com_Port_NoData_Setup+0x16>
    {
      return USB_SUCCESS;
 8000eb2:	2000      	movs	r0, #0
 8000eb4:	4770      	bx	lr
    }
    else if (RequestNo == SET_CONTROL_LINE_STATE)
 8000eb6:	2822      	cmp	r0, #34	; 0x22
 8000eb8:	d0fb      	beq.n	8000eb2 <Virtual_Com_Port_NoData_Setup+0x12>
    {
      return USB_SUCCESS;
    }
  }

  return USB_UNSUPPORT;
 8000eba:	2002      	movs	r0, #2
}
 8000ebc:	4770      	bx	lr
 8000ebe:	bf00      	nop
 8000ec0:	20001320 	.word	0x20001320

08000ec4 <Virtual_Com_Port_Get_Interface_Setting>:
* Output         : None.
* Return         : The address of the string descriptors.
*******************************************************************************/
RESULT Virtual_Com_Port_Get_Interface_Setting(uint8_t Interface, uint8_t AlternateSetting)
{
  if (AlternateSetting > 0)
 8000ec4:	b109      	cbz	r1, 8000eca <Virtual_Com_Port_Get_Interface_Setting+0x6>
  {
    return USB_UNSUPPORT;
 8000ec6:	2002      	movs	r0, #2
 8000ec8:	4770      	bx	lr
  }
  else if (Interface > 1)
 8000eca:	2801      	cmp	r0, #1
 8000ecc:	d8fb      	bhi.n	8000ec6 <Virtual_Com_Port_Get_Interface_Setting+0x2>
  {
    return USB_UNSUPPORT;
  }
  return USB_SUCCESS;
 8000ece:	4608      	mov	r0, r1
}
 8000ed0:	4770      	bx	lr
	...

08000ed4 <Virtual_Com_Port_GetLineCoding>:
* Output         : None.
* Return         : Linecoding structure base address.
*******************************************************************************/
uint8_t *Virtual_Com_Port_GetLineCoding(uint16_t Length)
{
  if (Length == 0)
 8000ed4:	b920      	cbnz	r0, 8000ee0 <Virtual_Com_Port_GetLineCoding+0xc>
  {
    pInformation->Ctrl_Info.Usb_wLength = sizeof(linecoding);
 8000ed6:	4b03      	ldr	r3, [pc, #12]	; (8000ee4 <Virtual_Com_Port_GetLineCoding+0x10>)
 8000ed8:	2208      	movs	r2, #8
 8000eda:	6819      	ldr	r1, [r3, #0]
 8000edc:	820a      	strh	r2, [r1, #16]
    return NULL;
 8000ede:	4770      	bx	lr
  }
  return(uint8_t *)&linecoding;
 8000ee0:	4801      	ldr	r0, [pc, #4]	; (8000ee8 <Virtual_Com_Port_GetLineCoding+0x14>)
}
 8000ee2:	4770      	bx	lr
 8000ee4:	20001320 	.word	0x20001320
 8000ee8:	200000d8 	.word	0x200000d8

08000eec <Virtual_Com_Port_SetLineCoding>:
* Output         : None.
* Return         : Linecoding structure base address.
*******************************************************************************/
uint8_t *Virtual_Com_Port_SetLineCoding(uint16_t Length)
{
  if (Length == 0)
 8000eec:	b920      	cbnz	r0, 8000ef8 <Virtual_Com_Port_SetLineCoding+0xc>
  {
    pInformation->Ctrl_Info.Usb_wLength = sizeof(linecoding);
 8000eee:	4b03      	ldr	r3, [pc, #12]	; (8000efc <Virtual_Com_Port_SetLineCoding+0x10>)
 8000ef0:	2208      	movs	r2, #8
 8000ef2:	6819      	ldr	r1, [r3, #0]
 8000ef4:	820a      	strh	r2, [r1, #16]
    return NULL;
 8000ef6:	4770      	bx	lr
  }
  return(uint8_t *)&linecoding;
 8000ef8:	4801      	ldr	r0, [pc, #4]	; (8000f00 <Virtual_Com_Port_SetLineCoding+0x14>)
}
 8000efa:	4770      	bx	lr
 8000efc:	20001320 	.word	0x20001320
 8000f00:	200000d8 	.word	0x200000d8

08000f04 <Virtual_Com_Port_GetStringDescriptor>:
* Input          : Length.
* Output         : None.
* Return         : The address of the string descriptors.
*******************************************************************************/
uint8_t *Virtual_Com_Port_GetStringDescriptor(uint16_t Length)
{
 8000f04:	b508      	push	{r3, lr}
  uint8_t wValue0 = pInformation->USBwValue0;
 8000f06:	4b06      	ldr	r3, [pc, #24]	; (8000f20 <Virtual_Com_Port_GetStringDescriptor+0x1c>)
 8000f08:	6819      	ldr	r1, [r3, #0]
 8000f0a:	78ca      	ldrb	r2, [r1, #3]
  if (wValue0 > 4)
 8000f0c:	2a04      	cmp	r2, #4
 8000f0e:	d805      	bhi.n	8000f1c <Virtual_Com_Port_GetStringDescriptor+0x18>
  {
    return NULL;
  }
  else
  {
    return Standard_GetDescriptorData(Length, &String_Descriptor[wValue0]);
 8000f10:	4b04      	ldr	r3, [pc, #16]	; (8000f24 <Virtual_Com_Port_GetStringDescriptor+0x20>)
 8000f12:	eb03 01c2 	add.w	r1, r3, r2, lsl #3
 8000f16:	4a04      	ldr	r2, [pc, #16]	; (8000f28 <Virtual_Com_Port_GetStringDescriptor+0x24>)
 8000f18:	4790      	blx	r2
 8000f1a:	bd08      	pop	{r3, pc}
uint8_t *Virtual_Com_Port_GetStringDescriptor(uint16_t Length)
{
  uint8_t wValue0 = pInformation->USBwValue0;
  if (wValue0 > 4)
  {
    return NULL;
 8000f1c:	2000      	movs	r0, #0
  }
  else
  {
    return Standard_GetDescriptorData(Length, &String_Descriptor[wValue0]);
  }
}
 8000f1e:	bd08      	pop	{r3, pc}
 8000f20:	20001320 	.word	0x20001320
 8000f24:	200000b8 	.word	0x200000b8
 8000f28:	080016e5 	.word	0x080016e5

08000f2c <Virtual_Com_Port_GetConfigDescriptor>:
* Input          : Length.
* Output         : None.
* Return         : The address of the configuration descriptor.
*******************************************************************************/
uint8_t *Virtual_Com_Port_GetConfigDescriptor(uint16_t Length)
{
 8000f2c:	b508      	push	{r3, lr}
  return Standard_GetDescriptorData(Length, &Config_Descriptor);
 8000f2e:	4902      	ldr	r1, [pc, #8]	; (8000f38 <Virtual_Com_Port_GetConfigDescriptor+0xc>)
 8000f30:	4b02      	ldr	r3, [pc, #8]	; (8000f3c <Virtual_Com_Port_GetConfigDescriptor+0x10>)
 8000f32:	4798      	blx	r3
}
 8000f34:	bd08      	pop	{r3, pc}
 8000f36:	bf00      	nop
 8000f38:	20000054 	.word	0x20000054
 8000f3c:	080016e5 	.word	0x080016e5

08000f40 <Virtual_Com_Port_GetDeviceDescriptor>:
* Input          : Length.
* Output         : None.
* Return         : The address of the device descriptor.
*******************************************************************************/
uint8_t *Virtual_Com_Port_GetDeviceDescriptor(uint16_t Length)
{
 8000f40:	b508      	push	{r3, lr}
  return Standard_GetDescriptorData(Length, &Device_Descriptor);
 8000f42:	4902      	ldr	r1, [pc, #8]	; (8000f4c <Virtual_Com_Port_GetDeviceDescriptor+0xc>)
 8000f44:	4b02      	ldr	r3, [pc, #8]	; (8000f50 <Virtual_Com_Port_GetDeviceDescriptor+0x10>)
 8000f46:	4798      	blx	r3
}
 8000f48:	bd08      	pop	{r3, pc}
 8000f4a:	bf00      	nop
 8000f4c:	200000b0 	.word	0x200000b0
 8000f50:	080016e5 	.word	0x080016e5

08000f54 <Virtual_Com_Port_Reset>:
{
  /* Set Virtual_Com_Port DEVICE as not configured */
  pInformation->Current_Configuration = 0;

  /* Current Feature initialization */
  pInformation->Current_Feature = Virtual_Com_Port_ConfigDescriptor[7];
 8000f54:	4a30      	ldr	r2, [pc, #192]	; (8001018 <Virtual_Com_Port_Reset+0xc4>)
* Return         : None.
*******************************************************************************/
void Virtual_Com_Port_Reset(void)
{
  /* Set Virtual_Com_Port DEVICE as not configured */
  pInformation->Current_Configuration = 0;
 8000f56:	4b31      	ldr	r3, [pc, #196]	; (800101c <Virtual_Com_Port_Reset+0xc8>)

  /* Current Feature initialization */
  pInformation->Current_Feature = Virtual_Com_Port_ConfigDescriptor[7];
 8000f58:	79d1      	ldrb	r1, [r2, #7]
* Return         : None.
*******************************************************************************/
void Virtual_Com_Port_Reset(void)
{
  /* Set Virtual_Com_Port DEVICE as not configured */
  pInformation->Current_Configuration = 0;
 8000f5a:	6818      	ldr	r0, [r3, #0]
* Input          : None.
* Output         : None.
* Return         : None.
*******************************************************************************/
void Virtual_Com_Port_Reset(void)
{
 8000f5c:	e92d 47f0 	stmdb	sp!, {r4, r5, r6, r7, r8, r9, sl, lr}
  /* Set Virtual_Com_Port DEVICE as not configured */
  pInformation->Current_Configuration = 0;
 8000f60:	2400      	movs	r4, #0

  /* Current Feature initialization */
  pInformation->Current_Feature = Virtual_Com_Port_ConfigDescriptor[7];
 8000f62:	7241      	strb	r1, [r0, #9]
* Return         : None.
*******************************************************************************/
void Virtual_Com_Port_Reset(void)
{
  /* Set Virtual_Com_Port DEVICE as not configured */
  pInformation->Current_Configuration = 0;
 8000f64:	7284      	strb	r4, [r0, #10]

  /* Current Feature initialization */
  pInformation->Current_Feature = Virtual_Com_Port_ConfigDescriptor[7];

  /* Set Virtual_Com_Port DEVICE with the default Interface*/
  pInformation->Current_Interface = 0;
 8000f66:	72c4      	strb	r4, [r0, #11]

  SetBTABLE(BTABLE_ADDRESS);
 8000f68:	4d2d      	ldr	r5, [pc, #180]	; (8001020 <Virtual_Com_Port_Reset+0xcc>)
 8000f6a:	4620      	mov	r0, r4
 8000f6c:	47a8      	blx	r5

  /* Initialize Endpoint 0 */
  SetEPType(ENDP0, EP_CONTROL);
 8000f6e:	4e2d      	ldr	r6, [pc, #180]	; (8001024 <Virtual_Com_Port_Reset+0xd0>)
 8000f70:	4620      	mov	r0, r4
 8000f72:	f44f 7100 	mov.w	r1, #512	; 0x200
 8000f76:	47b0      	blx	r6
  SetEPTxStatus(ENDP0, EP_TX_STALL);
 8000f78:	4d2b      	ldr	r5, [pc, #172]	; (8001028 <Virtual_Com_Port_Reset+0xd4>)
 8000f7a:	2110      	movs	r1, #16
 8000f7c:	4620      	mov	r0, r4
 8000f7e:	47a8      	blx	r5
  SetEPRxAddr(ENDP0, ENDP0_RXADDR);
 8000f80:	f8df a0c0 	ldr.w	sl, [pc, #192]	; 8001044 <Virtual_Com_Port_Reset+0xf0>
 8000f84:	2140      	movs	r1, #64	; 0x40
 8000f86:	4620      	mov	r0, r4
 8000f88:	47d0      	blx	sl
  SetEPTxAddr(ENDP0, ENDP0_TXADDR);
 8000f8a:	f8df 80bc 	ldr.w	r8, [pc, #188]	; 8001048 <Virtual_Com_Port_Reset+0xf4>
 8000f8e:	2180      	movs	r1, #128	; 0x80
 8000f90:	4620      	mov	r0, r4
 8000f92:	47c0      	blx	r8
  Clear_Status_Out(ENDP0);
 8000f94:	4f25      	ldr	r7, [pc, #148]	; (800102c <Virtual_Com_Port_Reset+0xd8>)
 8000f96:	4620      	mov	r0, r4
 8000f98:	47b8      	blx	r7
  SetEPRxCount(ENDP0, Device_Property.MaxPacketSize);
 8000f9a:	4b25      	ldr	r3, [pc, #148]	; (8001030 <Virtual_Com_Port_Reset+0xdc>)
 8000f9c:	4620      	mov	r0, r4
 8000f9e:	f893 102c 	ldrb.w	r1, [r3, #44]	; 0x2c
 8000fa2:	f8df 90a8 	ldr.w	r9, [pc, #168]	; 800104c <Virtual_Com_Port_Reset+0xf8>
 8000fa6:	47c8      	blx	r9
  SetEPRxValid(ENDP0);
 8000fa8:	4a22      	ldr	r2, [pc, #136]	; (8001034 <Virtual_Com_Port_Reset+0xe0>)
 8000faa:	4620      	mov	r0, r4
 8000fac:	4790      	blx	r2

  /* Initialize Endpoint 1 */
  SetEPType(ENDP1, EP_BULK);
 8000fae:	2001      	movs	r0, #1
 8000fb0:	4621      	mov	r1, r4
 8000fb2:	47b0      	blx	r6
  SetEPTxAddr(ENDP1, ENDP1_TXADDR);
 8000fb4:	2001      	movs	r0, #1
 8000fb6:	21c0      	movs	r1, #192	; 0xc0
 8000fb8:	47c0      	blx	r8
  SetEPTxStatus(ENDP1, EP_TX_NAK);
 8000fba:	2001      	movs	r0, #1
 8000fbc:	2120      	movs	r1, #32
 8000fbe:	47a8      	blx	r5
  SetEPRxStatus(ENDP1, EP_RX_DIS);
 8000fc0:	4f1d      	ldr	r7, [pc, #116]	; (8001038 <Virtual_Com_Port_Reset+0xe4>)
 8000fc2:	2001      	movs	r0, #1
 8000fc4:	4621      	mov	r1, r4
 8000fc6:	47b8      	blx	r7

  /* Initialize Endpoint 2 */
  SetEPType(ENDP2, EP_INTERRUPT);
 8000fc8:	2002      	movs	r0, #2
 8000fca:	f44f 61c0 	mov.w	r1, #1536	; 0x600
 8000fce:	47b0      	blx	r6
  SetEPTxAddr(ENDP2, ENDP2_TXADDR);
 8000fd0:	2002      	movs	r0, #2
 8000fd2:	f44f 7180 	mov.w	r1, #256	; 0x100
 8000fd6:	47c0      	blx	r8
  SetEPRxStatus(ENDP2, EP_RX_DIS);
 8000fd8:	2002      	movs	r0, #2
 8000fda:	4621      	mov	r1, r4
 8000fdc:	47b8      	blx	r7
  SetEPTxStatus(ENDP2, EP_TX_NAK);
 8000fde:	2002      	movs	r0, #2
 8000fe0:	2120      	movs	r1, #32
 8000fe2:	47a8      	blx	r5

  /* Initialize Endpoint 3 */
  SetEPType(ENDP3, EP_BULK);
 8000fe4:	2003      	movs	r0, #3
 8000fe6:	4621      	mov	r1, r4
 8000fe8:	47b0      	blx	r6
  SetEPRxAddr(ENDP3, ENDP3_RXADDR);
 8000fea:	2003      	movs	r0, #3
 8000fec:	f44f 7188 	mov.w	r1, #272	; 0x110
 8000ff0:	47d0      	blx	sl
  SetEPRxCount(ENDP3, VIRTUAL_COM_PORT_DATA_SIZE);
 8000ff2:	2003      	movs	r0, #3
 8000ff4:	2140      	movs	r1, #64	; 0x40
 8000ff6:	47c8      	blx	r9
  SetEPRxStatus(ENDP3, EP_RX_VALID);
 8000ff8:	2003      	movs	r0, #3
 8000ffa:	f44f 5140 	mov.w	r1, #12288	; 0x3000
 8000ffe:	47b8      	blx	r7
  SetEPTxStatus(ENDP3, EP_TX_DIS);
 8001000:	2003      	movs	r0, #3
 8001002:	4621      	mov	r1, r4
 8001004:	47a8      	blx	r5

  /* Set this device to response on default address */
  SetDeviceAddress(0);
 8001006:	4620      	mov	r0, r4
 8001008:	490c      	ldr	r1, [pc, #48]	; (800103c <Virtual_Com_Port_Reset+0xe8>)
 800100a:	4788      	blx	r1
  
  bDeviceState = ATTACHED;
 800100c:	4b0c      	ldr	r3, [pc, #48]	; (8001040 <Virtual_Com_Port_Reset+0xec>)
 800100e:	2001      	movs	r0, #1
 8001010:	6018      	str	r0, [r3, #0]
 8001012:	e8bd 87f0 	ldmia.w	sp!, {r4, r5, r6, r7, r8, r9, sl, pc}
 8001016:	bf00      	nop
 8001018:	08002226 	.word	0x08002226
 800101c:	20001320 	.word	0x20001320
 8001020:	08001c6d 	.word	0x08001c6d
 8001024:	08001c7d 	.word	0x08001c7d
 8001028:	08001c95 	.word	0x08001c95
 800102c:	08001d4d 	.word	0x08001d4d
 8001030:	2000005c 	.word	0x2000005c
 8001034:	08001d2b 	.word	0x08001d2b
 8001038:	08001ccf 	.word	0x08001ccf
 800103c:	08001b35 	.word	0x08001b35
 8001040:	200002b4 	.word	0x200002b4
 8001044:	08001dd5 	.word	0x08001dd5
 8001048:	08001db5 	.word	0x08001db5
 800104c:	08001e49 	.word	0x08001e49

08001050 <Virtual_Com_Port_init>:
* Input          : None.
* Output         : None.
* Return         : None.
*******************************************************************************/
void Virtual_Com_Port_init(void)
{
 8001050:	b510      	push	{r4, lr}

  /* Update the serial number string descriptor with the data from the unique
  ID*/
  Get_SerialNum();
 8001052:	4b06      	ldr	r3, [pc, #24]	; (800106c <Virtual_Com_Port_init+0x1c>)
 8001054:	4798      	blx	r3

  pInformation->Current_Configuration = 0;
 8001056:	4806      	ldr	r0, [pc, #24]	; (8001070 <Virtual_Com_Port_init+0x20>)
 8001058:	2400      	movs	r4, #0
 800105a:	6801      	ldr	r1, [r0, #0]

  //Lb_printf("a");
  /* Connect the device */
  PowerOn();
 800105c:	4a05      	ldr	r2, [pc, #20]	; (8001074 <Virtual_Com_Port_init+0x24>)

  /* Update the serial number string descriptor with the data from the unique
  ID*/
  Get_SerialNum();

  pInformation->Current_Configuration = 0;
 800105e:	728c      	strb	r4, [r1, #10]

  //Lb_printf("a");
  /* Connect the device */
  PowerOn();
 8001060:	4790      	blx	r2

  /* Perform basic device initialization operations */
  USB_SIL_Init();
 8001062:	4b05      	ldr	r3, [pc, #20]	; (8001078 <Virtual_Com_Port_init+0x28>)
 8001064:	4798      	blx	r3

  /* configure the USART to the default settings */
  //USART_Config_Default();

  bDeviceState = UNCONNECTED;
 8001066:	4805      	ldr	r0, [pc, #20]	; (800107c <Virtual_Com_Port_init+0x2c>)
 8001068:	6004      	str	r4, [r0, #0]
 800106a:	bd10      	pop	{r4, pc}
 800106c:	08001301 	.word	0x08001301
 8001070:	20001320 	.word	0x20001320
 8001074:	08001081 	.word	0x08001081
 8001078:	08001eb1 	.word	0x08001eb1
 800107c:	200002b4 	.word	0x200002b4

08001080 <PowerOn>:
* Input          : None.
* Output         : None.
* Return         : USB_SUCCESS.
*******************************************************************************/
RESULT PowerOn(void)
{
 8001080:	b508      	push	{r3, lr}
  uint16_t wRegVal;

  /*** cable plugged-in ? ***/
  USB_Cable_Config(ENABLE);
 8001082:	2001      	movs	r0, #1
 8001084:	4b07      	ldr	r3, [pc, #28]	; (80010a4 <PowerOn+0x24>)
 8001086:	4798      	blx	r3

  /*** CNTR_PWDN = 0 ***/
  wRegVal = CNTR_FRES;
  _SetCNTR(wRegVal);
 8001088:	4b07      	ldr	r3, [pc, #28]	; (80010a8 <PowerOn+0x28>)

  /*** CNTR_FRES = 0 ***/
  wInterrupt_Mask = 0;
  _SetCNTR(wInterrupt_Mask);
  /*** Clear pending interrupts ***/
  _SetISTR(0);
 800108a:	4908      	ldr	r1, [pc, #32]	; (80010ac <PowerOn+0x2c>)
  /*** cable plugged-in ? ***/
  USB_Cable_Config(ENABLE);

  /*** CNTR_PWDN = 0 ***/
  wRegVal = CNTR_FRES;
  _SetCNTR(wRegVal);
 800108c:	2201      	movs	r2, #1

  /*** CNTR_FRES = 0 ***/
  wInterrupt_Mask = 0;
  _SetCNTR(wInterrupt_Mask);
 800108e:	2000      	movs	r0, #0
  /*** cable plugged-in ? ***/
  USB_Cable_Config(ENABLE);

  /*** CNTR_PWDN = 0 ***/
  wRegVal = CNTR_FRES;
  _SetCNTR(wRegVal);
 8001090:	601a      	str	r2, [r3, #0]

  /*** CNTR_FRES = 0 ***/
  wInterrupt_Mask = 0;
  _SetCNTR(wInterrupt_Mask);
 8001092:	6018      	str	r0, [r3, #0]
  /*** Clear pending interrupts ***/
  _SetISTR(0);
 8001094:	6008      	str	r0, [r1, #0]
  /*** Set interrupt mask ***/
  wInterrupt_Mask = CNTR_RESETM | CNTR_SUSPM | CNTR_WKUPM;
 8001096:	4906      	ldr	r1, [pc, #24]	; (80010b0 <PowerOn+0x30>)
 8001098:	f44f 52e0 	mov.w	r2, #7168	; 0x1c00
 800109c:	800a      	strh	r2, [r1, #0]
  _SetCNTR(wInterrupt_Mask);
 800109e:	601a      	str	r2, [r3, #0]
  
  return USB_SUCCESS;
}
 80010a0:	bd08      	pop	{r3, pc}
 80010a2:	bf00      	nop
 80010a4:	080011e9 	.word	0x080011e9
 80010a8:	40005c40 	.word	0x40005c40
 80010ac:	40005c44 	.word	0x40005c44
 80010b0:	20001324 	.word	0x20001324

080010b4 <PowerOff>:
* Input          : None.
* Output         : None.
* Return         : USB_SUCCESS.
*******************************************************************************/
RESULT PowerOff()
{
 80010b4:	b538      	push	{r3, r4, r5, lr}
  /* disable all interrupts and force USB reset */
  _SetCNTR(CNTR_FRES);
  /* clear interrupt status register */
  _SetISTR(0);
 80010b6:	4806      	ldr	r0, [pc, #24]	; (80010d0 <PowerOff+0x1c>)
* Return         : USB_SUCCESS.
*******************************************************************************/
RESULT PowerOff()
{
  /* disable all interrupts and force USB reset */
  _SetCNTR(CNTR_FRES);
 80010b8:	4d06      	ldr	r5, [pc, #24]	; (80010d4 <PowerOff+0x20>)
  /* clear interrupt status register */
  _SetISTR(0);
 80010ba:	2400      	movs	r4, #0
* Return         : USB_SUCCESS.
*******************************************************************************/
RESULT PowerOff()
{
  /* disable all interrupts and force USB reset */
  _SetCNTR(CNTR_FRES);
 80010bc:	2301      	movs	r3, #1
 80010be:	602b      	str	r3, [r5, #0]
  /* clear interrupt status register */
  _SetISTR(0);
  /* Disable the Pull-Up*/
  USB_Cable_Config(DISABLE);
 80010c0:	4905      	ldr	r1, [pc, #20]	; (80010d8 <PowerOff+0x24>)
RESULT PowerOff()
{
  /* disable all interrupts and force USB reset */
  _SetCNTR(CNTR_FRES);
  /* clear interrupt status register */
  _SetISTR(0);
 80010c2:	6004      	str	r4, [r0, #0]
  /* Disable the Pull-Up*/
  USB_Cable_Config(DISABLE);
 80010c4:	4620      	mov	r0, r4
 80010c6:	4788      	blx	r1
  /* switch-off device */
  _SetCNTR(CNTR_FRES + CNTR_PDWN);
 80010c8:	2203      	movs	r2, #3
 80010ca:	602a      	str	r2, [r5, #0]
  /* sw variables reset */
  /* ... */

  return USB_SUCCESS;
}
 80010cc:	4620      	mov	r0, r4
 80010ce:	bd38      	pop	{r3, r4, r5, pc}
 80010d0:	40005c44 	.word	0x40005c44
 80010d4:	40005c40 	.word	0x40005c40
 80010d8:	080011e9 	.word	0x080011e9

080010dc <USBWakeUp_IRQHandler>:


void USBWakeUp_IRQHandler(void)
{
	//EXTI_ClearITPendingBit(EXTI_Line18);
	REG_EXTI_PR = (1 << 18 );
 80010dc:	4b02      	ldr	r3, [pc, #8]	; (80010e8 <USBWakeUp_IRQHandler+0xc>)
 80010de:	f44f 2280 	mov.w	r2, #262144	; 0x40000
 80010e2:	601a      	str	r2, [r3, #0]
 80010e4:	4770      	bx	lr
 80010e6:	bf00      	nop
 80010e8:	40010414 	.word	0x40010414

080010ec <IntToUnicode>:
* Input          : None.
* Output         : None.
* Return         : None.
*******************************************************************************/
static void IntToUnicode (uint32_t value , uint8_t *pbuf , uint8_t len)
{
 80010ec:	b510      	push	{r4, lr}
* Description    : Convert Hex 32Bits value into char.
* Input          : None.
* Output         : None.
* Return         : None.
*******************************************************************************/
static void IntToUnicode (uint32_t value , uint8_t *pbuf , uint8_t len)
 80010ee:	3101      	adds	r1, #1
{
  uint8_t idx = 0;
  
  for( idx = 0 ; idx < len ; idx ++)
 80010f0:	2300      	movs	r3, #0
 80010f2:	4293      	cmp	r3, r2
 80010f4:	d00e      	beq.n	8001114 <IntToUnicode+0x28>
  {
    if( ((value >> 28)) < 0xA )
 80010f6:	0f04      	lsrs	r4, r0, #28
 80010f8:	2c09      	cmp	r4, #9
 80010fa:	d801      	bhi.n	8001100 <IntToUnicode+0x14>
    {
      pbuf[ 2* idx] = (value >> 28) + '0';
 80010fc:	3430      	adds	r4, #48	; 0x30
 80010fe:	e000      	b.n	8001102 <IntToUnicode+0x16>
    }
    else
    {
      pbuf[2* idx] = (value >> 28) + 'A' - 10; 
 8001100:	3437      	adds	r4, #55	; 0x37
 8001102:	f801 4c01 	strb.w	r4, [r1, #-1]
*******************************************************************************/
static void IntToUnicode (uint32_t value , uint8_t *pbuf , uint8_t len)
{
  uint8_t idx = 0;
  
  for( idx = 0 ; idx < len ; idx ++)
 8001106:	3301      	adds	r3, #1
      pbuf[2* idx] = (value >> 28) + 'A' - 10; 
    }
    
    value = value << 4;
    
    pbuf[ 2* idx + 1] = 0;
 8001108:	2400      	movs	r4, #0
    else
    {
      pbuf[2* idx] = (value >> 28) + 'A' - 10; 
    }
    
    value = value << 4;
 800110a:	0100      	lsls	r0, r0, #4
    
    pbuf[ 2* idx + 1] = 0;
 800110c:	f801 4b02 	strb.w	r4, [r1], #2
*******************************************************************************/
static void IntToUnicode (uint32_t value , uint8_t *pbuf , uint8_t len)
{
  uint8_t idx = 0;
  
  for( idx = 0 ; idx < len ; idx ++)
 8001110:	b2db      	uxtb	r3, r3
 8001112:	e7ee      	b.n	80010f2 <IntToUnicode+0x6>
    
    value = value << 4;
    
    pbuf[ 2* idx + 1] = 0;
  }
}
 8001114:	bd10      	pop	{r4, pc}
	...

08001118 <USB_LP_IRQHandler>:
* Input          : None
* Output         : None
* Return         : None
*******************************************************************************/
void USB_LP_IRQHandler(void)
{
 8001118:	b508      	push	{r3, lr}
	//printf("USB\n");	
	USB_Istr();
 800111a:	4b01      	ldr	r3, [pc, #4]	; (8001120 <USB_LP_IRQHandler+0x8>)
 800111c:	4798      	blx	r3
 800111e:	bd08      	pop	{r3, pc}
 8001120:	08000d85 	.word	0x08000d85

08001124 <Set_System>:
{  	


  
	//-- PC.13
	REG_GPIOC_CRH &= ~(0x0F << (20));	// Clear
 8001124:	4b05      	ldr	r3, [pc, #20]	; (800113c <Set_System+0x18>)
 8001126:	681a      	ldr	r2, [r3, #0]
 8001128:	f422 0070 	bic.w	r0, r2, #15728640	; 0xf00000
 800112c:	6018      	str	r0, [r3, #0]
	REG_GPIOC_CRH |=  (0x02 << (20));	// MODE, PC.13 Output mode, max speed 2Mhz
 800112e:	6819      	ldr	r1, [r3, #0]
 8001130:	f441 1200 	orr.w	r2, r1, #2097152	; 0x200000
 8001134:	601a      	str	r2, [r3, #0]
	REG_GPIOC_CRH |=  (0x00 << (22));	// CNF,  PC.13 General purpose output push-pul
 8001136:	6818      	ldr	r0, [r3, #0]
 8001138:	6018      	str	r0, [r3, #0]
 800113a:	4770      	bx	lr
 800113c:	40011004 	.word	0x40011004

08001140 <Set_USBClock>:
*******************************************************************************/
void Set_USBClock(void)
{
	//-- USB 72M * 2 / 3 = 48Mhz
	//
	CLR_BIT( REG_RCC_CFGR, 22 );	
 8001140:	4b04      	ldr	r3, [pc, #16]	; (8001154 <Set_USBClock+0x14>)
 8001142:	681a      	ldr	r2, [r3, #0]
 8001144:	f422 0080 	bic.w	r0, r2, #4194304	; 0x400000
 8001148:	6018      	str	r0, [r3, #0]
	
	//-- USB Clock Enable 
	//
	SET_BIT( REG_RCC_APB1ENR, 23 );
 800114a:	6999      	ldr	r1, [r3, #24]
 800114c:	f441 0200 	orr.w	r2, r1, #8388608	; 0x800000
 8001150:	619a      	str	r2, [r3, #24]
 8001152:	4770      	bx	lr
 8001154:	40021004 	.word	0x40021004

08001158 <USB_Interrupts_Config>:
void USB_Interrupts_Config(void)
{

	//-- EXTI Line 18 Interrupt Enabled
	//
	REG_EXTI_PR = (1 << 18 );		// EXTI line 18 Clear Pending Bit connected internally to the USB IP
 8001158:	4b1b      	ldr	r3, [pc, #108]	; (80011c8 <USB_Interrupts_Config+0x70>)
 800115a:	f44f 2280 	mov.w	r2, #262144	; 0x40000
* Description    : Configures the USB interrupts
* Input          : None.
* Return         : None.
*******************************************************************************/
void USB_Interrupts_Config(void)
{
 800115e:	b510      	push	{r4, lr}

	//-- EXTI Line 18 Interrupt Enabled
	//
	REG_EXTI_PR = (1 << 18 );		// EXTI line 18 Clear Pending Bit connected internally to the USB IP
 8001160:	601a      	str	r2, [r3, #0]
	
	CLR_BIT( REG_EXTI_IMR,  18 );
 8001162:	f853 0c14 	ldr.w	r0, [r3, #-20]
	CLR_BIT( REG_EXTI_EMR,  18 );
 8001166:	4c19      	ldr	r4, [pc, #100]	; (80011cc <USB_Interrupts_Config+0x74>)

	//-- EXTI Line 18 Interrupt Enabled
	//
	REG_EXTI_PR = (1 << 18 );		// EXTI line 18 Clear Pending Bit connected internally to the USB IP
	
	CLR_BIT( REG_EXTI_IMR,  18 );
 8001168:	f420 2180 	bic.w	r1, r0, #262144	; 0x40000
 800116c:	f843 1c14 	str.w	r1, [r3, #-20]
	CLR_BIT( REG_EXTI_EMR,  18 );
 8001170:	6822      	ldr	r2, [r4, #0]
 8001172:	f422 2080 	bic.w	r0, r2, #262144	; 0x40000
 8001176:	6020      	str	r0, [r4, #0]
	SET_BIT( REG_EXTI_RTSR, 18 );	// Rising Edge
 8001178:	6861      	ldr	r1, [r4, #4]
 800117a:	f441 2280 	orr.w	r2, r1, #262144	; 0x40000
 800117e:	6062      	str	r2, [r4, #4]
	CLR_BIT( REG_EXTI_FTSR, 18 );
 8001180:	68a0      	ldr	r0, [r4, #8]
 8001182:	f420 2180 	bic.w	r1, r0, #262144	; 0x40000
 8001186:	60a1      	str	r1, [r4, #8]
	SET_BIT( REG_EXTI_IMR,  18 );	// Enable
 8001188:	f853 4c14 	ldr.w	r4, [r3, #-20]

  
	Hw_ISR_SetIRQFuncByAddr( 0x0090, (u32)USB_LP_IRQHandler, 0 );
 800118c:	2090      	movs	r0, #144	; 0x90
	
	CLR_BIT( REG_EXTI_IMR,  18 );
	CLR_BIT( REG_EXTI_EMR,  18 );
	SET_BIT( REG_EXTI_RTSR, 18 );	// Rising Edge
	CLR_BIT( REG_EXTI_FTSR, 18 );
	SET_BIT( REG_EXTI_IMR,  18 );	// Enable
 800118e:	f444 2280 	orr.w	r2, r4, #262144	; 0x40000
 8001192:	f843 2c14 	str.w	r2, [r3, #-20]

  
	Hw_ISR_SetIRQFuncByAddr( 0x0090, (u32)USB_LP_IRQHandler, 0 );
 8001196:	490e      	ldr	r1, [pc, #56]	; (80011d0 <USB_Interrupts_Config+0x78>)
 8001198:	2200      	movs	r2, #0
 800119a:	4c0e      	ldr	r4, [pc, #56]	; (80011d4 <USB_Interrupts_Config+0x7c>)
 800119c:	47a0      	blx	r4
	SET_BIT( REG_NVIC_ISER( 20/32 ), 20%32 );	// NVIC 20번 USB_LP 인터럽트 활성화 
 800119e:	4b0e      	ldr	r3, [pc, #56]	; (80011d8 <USB_Interrupts_Config+0x80>)
	
	Hw_ISR_SetIRQFuncByAddr( 0x00E8, (u32)USBWakeUp_IRQHandler, 0 );
 80011a0:	2200      	movs	r2, #0
	CLR_BIT( REG_EXTI_FTSR, 18 );
	SET_BIT( REG_EXTI_IMR,  18 );	// Enable

  
	Hw_ISR_SetIRQFuncByAddr( 0x0090, (u32)USB_LP_IRQHandler, 0 );
	SET_BIT( REG_NVIC_ISER( 20/32 ), 20%32 );	// NVIC 20번 USB_LP 인터럽트 활성화 
 80011a2:	6818      	ldr	r0, [r3, #0]
 80011a4:	f440 1180 	orr.w	r1, r0, #1048576	; 0x100000
 80011a8:	6019      	str	r1, [r3, #0]
	
	Hw_ISR_SetIRQFuncByAddr( 0x00E8, (u32)USBWakeUp_IRQHandler, 0 );
 80011aa:	20e8      	movs	r0, #232	; 0xe8
 80011ac:	490b      	ldr	r1, [pc, #44]	; (80011dc <USB_Interrupts_Config+0x84>)
 80011ae:	47a0      	blx	r4
	SET_BIT( REG_NVIC_ISER( 42/32 ), 42%32 );	// NVIC 42번 USB Wake Up 인터럽트 활성화 
 80011b0:	4b0b      	ldr	r3, [pc, #44]	; (80011e0 <USB_Interrupts_Config+0x88>)

	SET_BIT( REG_EXTI_SWIER, 18 );
 80011b2:	490c      	ldr	r1, [pc, #48]	; (80011e4 <USB_Interrupts_Config+0x8c>)
  
	Hw_ISR_SetIRQFuncByAddr( 0x0090, (u32)USB_LP_IRQHandler, 0 );
	SET_BIT( REG_NVIC_ISER( 20/32 ), 20%32 );	// NVIC 20번 USB_LP 인터럽트 활성화 
	
	Hw_ISR_SetIRQFuncByAddr( 0x00E8, (u32)USBWakeUp_IRQHandler, 0 );
	SET_BIT( REG_NVIC_ISER( 42/32 ), 42%32 );	// NVIC 42번 USB Wake Up 인터럽트 활성화 
 80011b4:	681a      	ldr	r2, [r3, #0]
 80011b6:	f442 6080 	orr.w	r0, r2, #1024	; 0x400
 80011ba:	6018      	str	r0, [r3, #0]

	SET_BIT( REG_EXTI_SWIER, 18 );
 80011bc:	680b      	ldr	r3, [r1, #0]
 80011be:	f443 2280 	orr.w	r2, r3, #262144	; 0x40000
 80011c2:	600a      	str	r2, [r1, #0]
 80011c4:	bd10      	pop	{r4, pc}
 80011c6:	bf00      	nop
 80011c8:	40010414 	.word	0x40010414
 80011cc:	40010404 	.word	0x40010404
 80011d0:	08001119 	.word	0x08001119
 80011d4:	08000855 	.word	0x08000855
 80011d8:	e000e100 	.word	0xe000e100
 80011dc:	080010dd 	.word	0x080010dd
 80011e0:	e000e104 	.word	0xe000e104
 80011e4:	40010410 	.word	0x40010410

080011e8 <USB_Cable_Config>:
* Description    : Software Connection/Disconnection of USB Cable
* Input          : None.
* Return         : Status
*******************************************************************************/
void USB_Cable_Config (char NewState)
{
 80011e8:	4b04      	ldr	r3, [pc, #16]	; (80011fc <USB_Cable_Config+0x14>)
  if (NewState != DISABLE)
  {
  	#if HW_USE_USB_SMARTROBOT_BD == 1
	CLR_BIT( REG_GPIOC_ODR, 13 );
 80011ea:	681a      	ldr	r2, [r3, #0]
* Input          : None.
* Return         : Status
*******************************************************************************/
void USB_Cable_Config (char NewState)
{
  if (NewState != DISABLE)
 80011ec:	b110      	cbz	r0, 80011f4 <USB_Cable_Config+0xc>
  {
  	#if HW_USE_USB_SMARTROBOT_BD == 1
	CLR_BIT( REG_GPIOC_ODR, 13 );
 80011ee:	f422 5000 	bic.w	r0, r2, #8192	; 0x2000
 80011f2:	e001      	b.n	80011f8 <USB_Cable_Config+0x10>
	#endif
  }
  else
  {
  	#if HW_USE_USB_SMARTROBOT_BD == 1
	SET_BIT( REG_GPIOC_ODR, 13 );    
 80011f4:	f442 5000 	orr.w	r0, r2, #8192	; 0x2000
 80011f8:	6018      	str	r0, [r3, #0]
 80011fa:	4770      	bx	lr
 80011fc:	4001100c 	.word	0x4001100c

08001200 <USB_To_USART_Send_Data>:
* Input          : data_buffer: data address.
                   Nb_bytes: number of bytes to send.
* Return         : none.
*******************************************************************************/
void USB_To_USART_Send_Data(uint8_t* data_buffer, uint8_t Nb_bytes)
{
 8001200:	b573      	push	{r0, r1, r4, r5, r6, lr}
 8001202:	4606      	mov	r6, r0
 8001204:	460d      	mov	r5, r1
  
  uint32_t i;
  u8 UartData;
  
  for (i = 0; i < Nb_bytes; i++)
 8001206:	2400      	movs	r4, #0
 8001208:	42ac      	cmp	r4, r5
 800120a:	d20e      	bcs.n	800122a <USB_To_USART_Send_Data+0x2a>
    //USART_SendData(EVAL_COM1, *(data_buffer + i));
    //while(USART_GetFlagStatus(EVAL_COM1, USART_FLAG_TXE) == RESET); 
    
    //-- PC로부터 받은 데이터 처리
    //
    UartData = *(data_buffer + i);
 800120c:	5d32      	ldrb	r2, [r6, r4]
 800120e:	a902      	add	r1, sp, #8
 8001210:	f801 2d01 	strb.w	r2, [r1, #-1]!
    Hw_VCom_Q_Push( 0, &UartData );	//
 8001214:	2000      	movs	r0, #0
 8001216:	4b05      	ldr	r3, [pc, #20]	; (800122c <USB_To_USART_Send_Data+0x2c>)
 8001218:	4798      	blx	r3

    if( Hw_VCom_RxdFuncPtr != NULL )
 800121a:	4805      	ldr	r0, [pc, #20]	; (8001230 <USB_To_USART_Send_Data+0x30>)
 800121c:	6801      	ldr	r1, [r0, #0]
 800121e:	b111      	cbz	r1, 8001226 <USB_To_USART_Send_Data+0x26>
    {
      Hw_VCom_RxdFuncPtr( UartData );      
 8001220:	f89d 0007 	ldrb.w	r0, [sp, #7]
 8001224:	4788      	blx	r1
{
  
  uint32_t i;
  u8 UartData;
  
  for (i = 0; i < Nb_bytes; i++)
 8001226:	3401      	adds	r4, #1
 8001228:	e7ee      	b.n	8001208 <USB_To_USART_Send_Data+0x8>
    if( Hw_VCom_RxdFuncPtr != NULL )
    {
      Hw_VCom_RxdFuncPtr( UartData );      
    }
  }  
}
 800122a:	bd7c      	pop	{r2, r3, r4, r5, r6, pc}
 800122c:	08000c15 	.word	0x08000c15
 8001230:	200006a4 	.word	0x200006a4

08001234 <Handle_USBAsynchXfer>:
* Description    : send data to USB.
* Input          : None.
* Return         : none.
*******************************************************************************/
void Handle_USBAsynchXfer (void)
{
 8001234:	b538      	push	{r3, r4, r5, lr}
  
  uint16_t USB_Tx_ptr;
  uint16_t USB_Tx_length;
  
  if(USB_Tx_State != 1)
 8001236:	4b1e      	ldr	r3, [pc, #120]	; (80012b0 <Handle_USBAsynchXfer+0x7c>)
 8001238:	7818      	ldrb	r0, [r3, #0]
 800123a:	2801      	cmp	r0, #1
 800123c:	d037      	beq.n	80012ae <Handle_USBAsynchXfer+0x7a>
  {
    if (USART_Rx_ptr_out == USART_RX_DATA_SIZE)
 800123e:	491d      	ldr	r1, [pc, #116]	; (80012b4 <Handle_USBAsynchXfer+0x80>)
 8001240:	680a      	ldr	r2, [r1, #0]
 8001242:	f5b2 6f00 	cmp.w	r2, #2048	; 0x800
 8001246:	d101      	bne.n	800124c <Handle_USBAsynchXfer+0x18>
    {
      USART_Rx_ptr_out = 0;
 8001248:	2300      	movs	r3, #0
 800124a:	600b      	str	r3, [r1, #0]
    }
    
    if(USART_Rx_ptr_out == USART_Rx_ptr_in) 
 800124c:	481a      	ldr	r0, [pc, #104]	; (80012b8 <Handle_USBAsynchXfer+0x84>)
 800124e:	680b      	ldr	r3, [r1, #0]
 8001250:	6801      	ldr	r1, [r0, #0]
 8001252:	428b      	cmp	r3, r1
 8001254:	d103      	bne.n	800125e <Handle_USBAsynchXfer+0x2a>
    {
      USB_Tx_State = 0; 
 8001256:	4b16      	ldr	r3, [pc, #88]	; (80012b0 <Handle_USBAsynchXfer+0x7c>)
 8001258:	2000      	movs	r0, #0
 800125a:	7018      	strb	r0, [r3, #0]
      return;
 800125c:	bd38      	pop	{r3, r4, r5, pc}
 800125e:	4c17      	ldr	r4, [pc, #92]	; (80012bc <Handle_USBAsynchXfer+0x88>)
    }
    
    if(USART_Rx_ptr_out > USART_Rx_ptr_in) /* rollback */
    { 
      USART_Rx_length = USART_RX_DATA_SIZE - USART_Rx_ptr_out;
 8001260:	bf8c      	ite	hi
 8001262:	f5c3 6100 	rsbhi	r1, r3, #2048	; 0x800
    }
    else 
    {
      USART_Rx_length = USART_Rx_ptr_in - USART_Rx_ptr_out;
 8001266:	ebc3 0101 	rsbls	r1, r3, r1
 800126a:	6021      	str	r1, [r4, #0]
    }
    
    if (USART_Rx_length > VIRTUAL_COM_PORT_DATA_SIZE)
 800126c:	6824      	ldr	r4, [r4, #0]
 800126e:	4913      	ldr	r1, [pc, #76]	; (80012bc <Handle_USBAsynchXfer+0x88>)
 8001270:	2c40      	cmp	r4, #64	; 0x40
 8001272:	4a10      	ldr	r2, [pc, #64]	; (80012b4 <Handle_USBAsynchXfer+0x80>)
 8001274:	b298      	uxth	r0, r3
 8001276:	d905      	bls.n	8001284 <Handle_USBAsynchXfer+0x50>
    {
      USB_Tx_ptr = USART_Rx_ptr_out;
      USB_Tx_length = VIRTUAL_COM_PORT_DATA_SIZE;
      
      USART_Rx_ptr_out += VIRTUAL_COM_PORT_DATA_SIZE;	
 8001278:	3340      	adds	r3, #64	; 0x40
      USART_Rx_length -= VIRTUAL_COM_PORT_DATA_SIZE;	
 800127a:	3c40      	subs	r4, #64	; 0x40
    if (USART_Rx_length > VIRTUAL_COM_PORT_DATA_SIZE)
    {
      USB_Tx_ptr = USART_Rx_ptr_out;
      USB_Tx_length = VIRTUAL_COM_PORT_DATA_SIZE;
      
      USART_Rx_ptr_out += VIRTUAL_COM_PORT_DATA_SIZE;	
 800127c:	6013      	str	r3, [r2, #0]
      USART_Rx_length -= VIRTUAL_COM_PORT_DATA_SIZE;	
 800127e:	600c      	str	r4, [r1, #0]
    }
    
    if (USART_Rx_length > VIRTUAL_COM_PORT_DATA_SIZE)
    {
      USB_Tx_ptr = USART_Rx_ptr_out;
      USB_Tx_length = VIRTUAL_COM_PORT_DATA_SIZE;
 8001280:	2540      	movs	r5, #64	; 0x40
 8001282:	e004      	b.n	800128e <Handle_USBAsynchXfer+0x5a>
    else
    {
      USB_Tx_ptr = USART_Rx_ptr_out;
      USB_Tx_length = USART_Rx_length;
      
      USART_Rx_ptr_out += USART_Rx_length;
 8001284:	18e3      	adds	r3, r4, r3
      USART_Rx_length -= VIRTUAL_COM_PORT_DATA_SIZE;	
    }
    else
    {
      USB_Tx_ptr = USART_Rx_ptr_out;
      USB_Tx_length = USART_Rx_length;
 8001286:	b2a5      	uxth	r5, r4
      
      USART_Rx_ptr_out += USART_Rx_length;
      USART_Rx_length = 0;
 8001288:	2400      	movs	r4, #0
    else
    {
      USB_Tx_ptr = USART_Rx_ptr_out;
      USB_Tx_length = USART_Rx_length;
      
      USART_Rx_ptr_out += USART_Rx_length;
 800128a:	6013      	str	r3, [r2, #0]
      USART_Rx_length = 0;
 800128c:	600c      	str	r4, [r1, #0]
    }
    USB_Tx_State = 1; 
 800128e:	4908      	ldr	r1, [pc, #32]	; (80012b0 <Handle_USBAsynchXfer+0x7c>)
    UserToPMABufferCopy(&USART_Rx_Buffer[USB_Tx_ptr], ENDP1_TXADDR, USB_Tx_length);
 8001290:	4a0b      	ldr	r2, [pc, #44]	; (80012c0 <Handle_USBAsynchXfer+0x8c>)
      USB_Tx_length = USART_Rx_length;
      
      USART_Rx_ptr_out += USART_Rx_length;
      USART_Rx_length = 0;
    }
    USB_Tx_State = 1; 
 8001292:	2401      	movs	r4, #1
    UserToPMABufferCopy(&USART_Rx_Buffer[USB_Tx_ptr], ENDP1_TXADDR, USB_Tx_length);
 8001294:	1810      	adds	r0, r2, r0
      USB_Tx_length = USART_Rx_length;
      
      USART_Rx_ptr_out += USART_Rx_length;
      USART_Rx_length = 0;
    }
    USB_Tx_State = 1; 
 8001296:	700c      	strb	r4, [r1, #0]
    UserToPMABufferCopy(&USART_Rx_Buffer[USB_Tx_ptr], ENDP1_TXADDR, USB_Tx_length);
 8001298:	462a      	mov	r2, r5
 800129a:	21c0      	movs	r1, #192	; 0xc0
 800129c:	4b09      	ldr	r3, [pc, #36]	; (80012c4 <Handle_USBAsynchXfer+0x90>)
 800129e:	4798      	blx	r3
    SetEPTxCount(ENDP1, USB_Tx_length);
 80012a0:	4620      	mov	r0, r4
 80012a2:	4629      	mov	r1, r5
 80012a4:	4a08      	ldr	r2, [pc, #32]	; (80012c8 <Handle_USBAsynchXfer+0x94>)
 80012a6:	4790      	blx	r2
    SetEPTxValid(ENDP1); 
 80012a8:	4620      	mov	r0, r4
 80012aa:	4908      	ldr	r1, [pc, #32]	; (80012cc <Handle_USBAsynchXfer+0x98>)
 80012ac:	4788      	blx	r1
 80012ae:	bd38      	pop	{r3, r4, r5, pc}
 80012b0:	200002b8 	.word	0x200002b8
 80012b4:	200002c0 	.word	0x200002c0
 80012b8:	200002bc 	.word	0x200002bc
 80012bc:	200002c4 	.word	0x200002c4
 80012c0:	20000af2 	.word	0x20000af2
 80012c4:	08001c19 	.word	0x08001c19
 80012c8:	08001e2d 	.word	0x08001e2d
 80012cc:	08001d09 	.word	0x08001d09

080012d0 <USB_Send_Data>:
	
	//-- 전송 버퍼가 꽉 차면 기다린다.
	//
	while(1)
	{
		if( (USART_Rx_length + 1) < USART_RX_DATA_SIZE ) break;
 80012d0:	4b08      	ldr	r3, [pc, #32]	; (80012f4 <USB_Send_Data+0x24>)
 80012d2:	6819      	ldr	r1, [r3, #0]
 80012d4:	1c4a      	adds	r2, r1, #1
 80012d6:	f5b2 6f00 	cmp.w	r2, #2048	; 0x800
 80012da:	d20a      	bcs.n	80012f2 <USB_Send_Data+0x22>
	}
	
	
	USART_Rx_Buffer[USART_Rx_ptr_in] = SendData;
 80012dc:	4b06      	ldr	r3, [pc, #24]	; (80012f8 <USB_Send_Data+0x28>)
 80012de:	4907      	ldr	r1, [pc, #28]	; (80012fc <USB_Send_Data+0x2c>)
 80012e0:	681a      	ldr	r2, [r3, #0]
 80012e2:	5488      	strb	r0, [r1, r2]
	USART_Rx_ptr_in++;
 80012e4:	1c50      	adds	r0, r2, #1
  
	/* To avoid buffer overflow */
	if(USART_Rx_ptr_in == USART_RX_DATA_SIZE)
 80012e6:	f5b0 6f00 	cmp.w	r0, #2048	; 0x800
	{
		USART_Rx_ptr_in = 0;
 80012ea:	bf08      	it	eq
 80012ec:	2000      	moveq	r0, #0
 80012ee:	6018      	str	r0, [r3, #0]
 80012f0:	4770      	bx	lr
 80012f2:	e7fe      	b.n	80012f2 <USB_Send_Data+0x22>
 80012f4:	200002c4 	.word	0x200002c4
 80012f8:	200002bc 	.word	0x200002bc
 80012fc:	20000af2 	.word	0x20000af2

08001300 <Get_SerialNum>:
* Input          : None.
* Output         : None.
* Return         : None.
*******************************************************************************/
void Get_SerialNum(void)
{
 8001300:	b538      	push	{r3, r4, r5, lr}
  uint32_t Device_Serial0, Device_Serial1, Device_Serial2;

  Device_Serial0 = *(uint32_t*)ID1;
 8001302:	4b08      	ldr	r3, [pc, #32]	; (8001324 <Get_SerialNum+0x24>)
  Device_Serial1 = *(uint32_t*)ID2;
 8001304:	e893 0024 	ldmia.w	r3, {r2, r5}
  Device_Serial2 = *(uint32_t*)ID3;  
 8001308:	3308      	adds	r3, #8

  Device_Serial0 += Device_Serial2;
 800130a:	6818      	ldr	r0, [r3, #0]

  if (Device_Serial0 != 0)
 800130c:	1810      	adds	r0, r2, r0
 800130e:	d007      	beq.n	8001320 <Get_SerialNum+0x20>
  {
    IntToUnicode (Device_Serial0, &Virtual_Com_Port_StringSerial[2] , 8);
 8001310:	4905      	ldr	r1, [pc, #20]	; (8001328 <Get_SerialNum+0x28>)
 8001312:	2208      	movs	r2, #8
 8001314:	4c05      	ldr	r4, [pc, #20]	; (800132c <Get_SerialNum+0x2c>)
 8001316:	47a0      	blx	r4
    IntToUnicode (Device_Serial1, &Virtual_Com_Port_StringSerial[18], 4);
 8001318:	4628      	mov	r0, r5
 800131a:	4905      	ldr	r1, [pc, #20]	; (8001330 <Get_SerialNum+0x30>)
 800131c:	2204      	movs	r2, #4
 800131e:	47a0      	blx	r4
 8001320:	bd38      	pop	{r3, r4, r5, pc}
 8001322:	bf00      	nop
 8001324:	1ffff7e8 	.word	0x1ffff7e8
 8001328:	20000002 	.word	0x20000002
 800132c:	080010ed 	.word	0x080010ed
 8001330:	20000012 	.word	0x20000012

08001334 <Standard_GetConfiguration>:
* Output         : None.
* Return         : Return 1 , if the request is invalid when "Length" is 0.
*                  Return "Buffer" if the "Length" is not 0.
*******************************************************************************/
uint8_t *Standard_GetConfiguration(uint16_t Length)
{
 8001334:	b510      	push	{r4, lr}
 8001336:	4c06      	ldr	r4, [pc, #24]	; (8001350 <Standard_GetConfiguration+0x1c>)
  if (Length == 0)
 8001338:	b918      	cbnz	r0, 8001342 <Standard_GetConfiguration+0xe>
  {
    pInformation->Ctrl_Info.Usb_wLength =
 800133a:	6823      	ldr	r3, [r4, #0]
 800133c:	2201      	movs	r2, #1
 800133e:	821a      	strh	r2, [r3, #16]
      sizeof(pInformation->Current_Configuration);
    return 0;
 8001340:	bd10      	pop	{r4, pc}
  }
  pUser_Standard_Requests->User_GetConfiguration();
 8001342:	4b04      	ldr	r3, [pc, #16]	; (8001354 <Standard_GetConfiguration+0x20>)
 8001344:	6818      	ldr	r0, [r3, #0]
 8001346:	6801      	ldr	r1, [r0, #0]
 8001348:	4788      	blx	r1
  return (uint8_t *)&pInformation->Current_Configuration;
 800134a:	6820      	ldr	r0, [r4, #0]
 800134c:	300a      	adds	r0, #10
}
 800134e:	bd10      	pop	{r4, pc}
 8001350:	20001320 	.word	0x20001320
 8001354:	2000131c 	.word	0x2000131c

08001358 <Standard_GetInterface>:
* Output         : None.
* Return         : Return 0, if the request is invalid when "Length" is 0.
*                  Return "Buffer" if the "Length" is not 0.
*******************************************************************************/
uint8_t *Standard_GetInterface(uint16_t Length)
{
 8001358:	b510      	push	{r4, lr}
 800135a:	4c06      	ldr	r4, [pc, #24]	; (8001374 <Standard_GetInterface+0x1c>)
  if (Length == 0)
 800135c:	b918      	cbnz	r0, 8001366 <Standard_GetInterface+0xe>
  {
    pInformation->Ctrl_Info.Usb_wLength =
 800135e:	6823      	ldr	r3, [r4, #0]
 8001360:	2201      	movs	r2, #1
 8001362:	821a      	strh	r2, [r3, #16]
      sizeof(pInformation->Current_AlternateSetting);
    return 0;
 8001364:	bd10      	pop	{r4, pc}
  }
  pUser_Standard_Requests->User_GetInterface();
 8001366:	4b04      	ldr	r3, [pc, #16]	; (8001378 <Standard_GetInterface+0x20>)
 8001368:	6818      	ldr	r0, [r3, #0]
 800136a:	6881      	ldr	r1, [r0, #8]
 800136c:	4788      	blx	r1
  return (uint8_t *)&pInformation->Current_AlternateSetting;
 800136e:	6820      	ldr	r0, [r4, #0]
 8001370:	300c      	adds	r0, #12
}
 8001372:	bd10      	pop	{r4, pc}
 8001374:	20001320 	.word	0x20001320
 8001378:	2000131c 	.word	0x2000131c

0800137c <Standard_GetStatus>:
* Output         : None.
* Return         : Return 0, if the request is at end of data block,
*                  or is invalid when "Length" is 0.
*******************************************************************************/
uint8_t *Standard_GetStatus(uint16_t Length)
{
 800137c:	b508      	push	{r3, lr}
 800137e:	4a23      	ldr	r2, [pc, #140]	; (800140c <Standard_GetStatus+0x90>)
  if (Length == 0)
 8001380:	b918      	cbnz	r0, 800138a <Standard_GetStatus+0xe>
  {
    pInformation->Ctrl_Info.Usb_wLength = 2;
 8001382:	6813      	ldr	r3, [r2, #0]
 8001384:	2202      	movs	r2, #2
 8001386:	821a      	strh	r2, [r3, #16]
    return 0;
 8001388:	bd08      	pop	{r3, pc}
  }

  /* Reset Status Information */
  StatusInfo.w = 0;
 800138a:	4b21      	ldr	r3, [pc, #132]	; (8001410 <Standard_GetStatus+0x94>)
 800138c:	2000      	movs	r0, #0

  if (Type_Recipient == (STANDARD_REQUEST | DEVICE_RECIPIENT))
 800138e:	6812      	ldr	r2, [r2, #0]
    pInformation->Ctrl_Info.Usb_wLength = 2;
    return 0;
  }

  /* Reset Status Information */
  StatusInfo.w = 0;
 8001390:	8018      	strh	r0, [r3, #0]

  if (Type_Recipient == (STANDARD_REQUEST | DEVICE_RECIPIENT))
 8001392:	7811      	ldrb	r1, [r2, #0]
 8001394:	f011 017f 	ands.w	r1, r1, #127	; 0x7f
 8001398:	d113      	bne.n	80013c2 <Standard_GetStatus+0x46>
  {
    /*Get Device Status */
    uint8_t Feature = pInformation->Current_Feature;
 800139a:	7a50      	ldrb	r0, [r2, #9]

    /* Remote Wakeup enabled */
    if (ValBit(Feature, 5))
 800139c:	f000 0220 	and.w	r2, r0, #32
 80013a0:	b2d1      	uxtb	r1, r2
 80013a2:	b109      	cbz	r1, 80013a8 <Standard_GetStatus+0x2c>
    {
      SetBit(StatusInfo0, 1);
 80013a4:	2202      	movs	r2, #2
 80013a6:	701a      	strb	r2, [r3, #0]
    {
      ClrBit(StatusInfo0, 1);
    }      

    /* Bus-powered */
    if (ValBit(Feature, 6))
 80013a8:	f000 0340 	and.w	r3, r0, #64	; 0x40
 80013ac:	b2d8      	uxtb	r0, r3
 80013ae:	4b18      	ldr	r3, [pc, #96]	; (8001410 <Standard_GetStatus+0x94>)
 80013b0:	b118      	cbz	r0, 80013ba <Standard_GetStatus+0x3e>
    {
      SetBit(StatusInfo0, 0);
 80013b2:	781a      	ldrb	r2, [r3, #0]
 80013b4:	f042 0101 	orr.w	r1, r2, #1
 80013b8:	e01e      	b.n	80013f8 <Standard_GetStatus+0x7c>
    }
    else /* Self-powered */
    {
      ClrBit(StatusInfo0, 0);
 80013ba:	7819      	ldrb	r1, [r3, #0]
 80013bc:	f021 0101 	bic.w	r1, r1, #1
 80013c0:	e01a      	b.n	80013f8 <Standard_GetStatus+0x7c>
    }
  }
  /*Interface Status*/
  else if (Type_Recipient == (STANDARD_REQUEST | INTERFACE_RECIPIENT))
 80013c2:	2901      	cmp	r1, #1
 80013c4:	d01f      	beq.n	8001406 <Standard_GetStatus+0x8a>
  {
    return (uint8_t *)&StatusInfo;
  }
  /*Get EndPoint Status*/
  else if (Type_Recipient == (STANDARD_REQUEST | ENDPOINT_RECIPIENT))
 80013c6:	2902      	cmp	r1, #2
 80013c8:	d11e      	bne.n	8001408 <Standard_GetStatus+0x8c>
  {
    uint8_t Related_Endpoint;
    uint8_t wIndex0 = pInformation->USBwIndex0;
 80013ca:	7950      	ldrb	r0, [r2, #5]

    Related_Endpoint = (wIndex0 & 0x0f);
 80013cc:	f000 020f 	and.w	r2, r0, #15
 80013d0:	ea4f 0182 	mov.w	r1, r2, lsl #2
    if (ValBit(wIndex0, 7))
 80013d4:	f010 0f80 	tst.w	r0, #128	; 0x80
    {
      /* IN endpoint */
      if (_GetTxStallStatus(Related_Endpoint))
 80013d8:	f101 4080 	add.w	r0, r1, #1073741824	; 0x40000000
 80013dc:	f500 42b8 	add.w	r2, r0, #23552	; 0x5c00
 80013e0:	6811      	ldr	r1, [r2, #0]
  {
    uint8_t Related_Endpoint;
    uint8_t wIndex0 = pInformation->USBwIndex0;

    Related_Endpoint = (wIndex0 & 0x0f);
    if (ValBit(wIndex0, 7))
 80013e2:	d003      	beq.n	80013ec <Standard_GetStatus+0x70>
    {
      /* IN endpoint */
      if (_GetTxStallStatus(Related_Endpoint))
 80013e4:	f001 0230 	and.w	r2, r1, #48	; 0x30
 80013e8:	2a10      	cmp	r2, #16
 80013ea:	e003      	b.n	80013f4 <Standard_GetStatus+0x78>
      }
    }
    else
    {
      /* OUT endpoint */
      if (_GetRxStallStatus(Related_Endpoint))
 80013ec:	f401 5040 	and.w	r0, r1, #12288	; 0x3000
 80013f0:	f5b0 5f80 	cmp.w	r0, #4096	; 0x1000
 80013f4:	d101      	bne.n	80013fa <Standard_GetStatus+0x7e>
      {
        SetBit(StatusInfo0, 0); /* OUT Endpoint stalled */
 80013f6:	2101      	movs	r1, #1
 80013f8:	7019      	strb	r1, [r3, #0]
  }
  else
  {
    return NULL;
  }
  pUser_Standard_Requests->User_GetStatus();
 80013fa:	4b06      	ldr	r3, [pc, #24]	; (8001414 <Standard_GetStatus+0x98>)
 80013fc:	6818      	ldr	r0, [r3, #0]
 80013fe:	6901      	ldr	r1, [r0, #16]
 8001400:	4788      	blx	r1
  return (uint8_t *)&StatusInfo;
 8001402:	4803      	ldr	r0, [pc, #12]	; (8001410 <Standard_GetStatus+0x94>)
 8001404:	bd08      	pop	{r3, pc}
    }
  }
  /*Interface Status*/
  else if (Type_Recipient == (STANDARD_REQUEST | INTERFACE_RECIPIENT))
  {
    return (uint8_t *)&StatusInfo;
 8001406:	4618      	mov	r0, r3
  {
    return NULL;
  }
  pUser_Standard_Requests->User_GetStatus();
  return (uint8_t *)&StatusInfo;
}
 8001408:	bd08      	pop	{r3, pc}
 800140a:	bf00      	nop
 800140c:	20001320 	.word	0x20001320
 8001410:	200012f2 	.word	0x200012f2
 8001414:	2000131c 	.word	0x2000131c

08001418 <DataStageIn>:
* Input          : None.
* Output         : None.
* Return         : None.
*******************************************************************************/
void DataStageIn(void)
{
 8001418:	b5f8      	push	{r3, r4, r5, r6, r7, lr}
  ENDPOINT_INFO *pEPinfo = &pInformation->Ctrl_Info;
 800141a:	4b22      	ldr	r3, [pc, #136]	; (80014a4 <DataStageIn+0x8c>)
 800141c:	681c      	ldr	r4, [r3, #0]
  uint32_t save_wLength = pEPinfo->Usb_wLength;
 800141e:	8a23      	ldrh	r3, [r4, #16]
  uint32_t ControlState = pInformation->ControlState;
 8001420:	7a26      	ldrb	r6, [r4, #8]

  uint8_t *DataBuffer;
  uint32_t Length;

  if ((save_wLength == 0) && (ControlState == LAST_IN_DATA))
 8001422:	b9ab      	cbnz	r3, 8001450 <DataStageIn+0x38>
 8001424:	2e04      	cmp	r6, #4
 8001426:	d113      	bne.n	8001450 <DataStageIn+0x38>
  {
    if(Data_Mul_MaxPacketSize == TRUE)
 8001428:	481f      	ldr	r0, [pc, #124]	; (80014a8 <DataStageIn+0x90>)
 800142a:	4920      	ldr	r1, [pc, #128]	; (80014ac <DataStageIn+0x94>)
 800142c:	7802      	ldrb	r2, [r0, #0]
 800142e:	2a01      	cmp	r2, #1
 8001430:	d10a      	bne.n	8001448 <DataStageIn+0x30>
    {
      /* No more data to send and empty packet */
      Send0LengthData();
 8001432:	4c1f      	ldr	r4, [pc, #124]	; (80014b0 <DataStageIn+0x98>)
 8001434:	6822      	ldr	r2, [r4, #0]
* Output         : None.
* Return         : None.
*******************************************************************************/
void NOP_Process(void)
{
}
 8001436:	b294      	uxth	r4, r2
  if ((save_wLength == 0) && (ControlState == LAST_IN_DATA))
  {
    if(Data_Mul_MaxPacketSize == TRUE)
    {
      /* No more data to send and empty packet */
      Send0LengthData();
 8001438:	4a1e      	ldr	r2, [pc, #120]	; (80014b4 <DataStageIn+0x9c>)
 800143a:	18a2      	adds	r2, r4, r2
 800143c:	0052      	lsls	r2, r2, #1
 800143e:	6013      	str	r3, [r2, #0]
 8001440:	2230      	movs	r2, #48	; 0x30
 8001442:	800a      	strh	r2, [r1, #0]
      ControlState = LAST_IN_DATA;
      Data_Mul_MaxPacketSize = FALSE;
 8001444:	7003      	strb	r3, [r0, #0]
 8001446:	e028      	b.n	800149a <DataStageIn+0x82>
    }
    else 
    {
      /* No more data to send so STALL the TX Status*/
      ControlState = WAIT_STATUS_OUT;
      vSetEPTxStatus(EP_TX_STALL);
 8001448:	2610      	movs	r6, #16
 800144a:	800e      	strh	r6, [r1, #0]
      Data_Mul_MaxPacketSize = FALSE;
    }
    else 
    {
      /* No more data to send so STALL the TX Status*/
      ControlState = WAIT_STATUS_OUT;
 800144c:	2607      	movs	r6, #7
 800144e:	e024      	b.n	800149a <DataStageIn+0x82>
    }
    
    goto Expect_Status_Out;
  }

  Length = pEPinfo->PacketSize;
 8001450:	8aa5      	ldrh	r5, [r4, #20]
  if (Length > save_wLength)
  {
    Length = save_wLength;
  }

  DataBuffer = (*pEPinfo->CopyData)(Length);
 8001452:	69a1      	ldr	r1, [r4, #24]
    
    goto Expect_Status_Out;
  }

  Length = pEPinfo->PacketSize;
  ControlState = (save_wLength <= Length) ? LAST_IN_DATA : IN_DATA;
 8001454:	42ab      	cmp	r3, r5
 8001456:	bf8c      	ite	hi
 8001458:	2602      	movhi	r6, #2
 800145a:	2604      	movls	r6, #4
  if (Length > save_wLength)
  {
    Length = save_wLength;
  }

  DataBuffer = (*pEPinfo->CopyData)(Length);
 800145c:	429d      	cmp	r5, r3
 800145e:	bf28      	it	cs
 8001460:	461d      	movcs	r5, r3
 8001462:	4628      	mov	r0, r5
 8001464:	4788      	blx	r1
  
  UserToPMABufferCopy(DataBuffer, GetEPTxAddr(ENDP0), Length);
 8001466:	4a14      	ldr	r2, [pc, #80]	; (80014b8 <DataStageIn+0xa0>)
  if (Length > save_wLength)
  {
    Length = save_wLength;
  }

  DataBuffer = (*pEPinfo->CopyData)(Length);
 8001468:	4607      	mov	r7, r0
  
  UserToPMABufferCopy(DataBuffer, GetEPTxAddr(ENDP0), Length);
 800146a:	2000      	movs	r0, #0
 800146c:	4790      	blx	r2
 800146e:	462a      	mov	r2, r5
 8001470:	4601      	mov	r1, r0
 8001472:	4b12      	ldr	r3, [pc, #72]	; (80014bc <DataStageIn+0xa4>)
 8001474:	4638      	mov	r0, r7
 8001476:	4798      	blx	r3

  SetEPTxCount(ENDP0, Length);
 8001478:	4629      	mov	r1, r5
 800147a:	2000      	movs	r0, #0
 800147c:	4a10      	ldr	r2, [pc, #64]	; (80014c0 <DataStageIn+0xa8>)
 800147e:	4790      	blx	r2

  pEPinfo->Usb_wLength -= Length;
 8001480:	8a20      	ldrh	r0, [r4, #16]
  pEPinfo->Usb_wOffset += Length;
 8001482:	8a63      	ldrh	r3, [r4, #18]
  
  UserToPMABufferCopy(DataBuffer, GetEPTxAddr(ENDP0), Length);

  SetEPTxCount(ENDP0, Length);

  pEPinfo->Usb_wLength -= Length;
 8001484:	1b41      	subs	r1, r0, r5
  pEPinfo->Usb_wOffset += Length;
 8001486:	18ed      	adds	r5, r5, r3
  vSetEPTxStatus(EP_TX_VALID);
 8001488:	4808      	ldr	r0, [pc, #32]	; (80014ac <DataStageIn+0x94>)

  USB_StatusOut();/* Expect the host to abort the data IN stage */
 800148a:	4b0e      	ldr	r3, [pc, #56]	; (80014c4 <DataStageIn+0xac>)
  
  UserToPMABufferCopy(DataBuffer, GetEPTxAddr(ENDP0), Length);

  SetEPTxCount(ENDP0, Length);

  pEPinfo->Usb_wLength -= Length;
 800148c:	8221      	strh	r1, [r4, #16]
  pEPinfo->Usb_wOffset += Length;
  vSetEPTxStatus(EP_TX_VALID);
 800148e:	2230      	movs	r2, #48	; 0x30

  USB_StatusOut();/* Expect the host to abort the data IN stage */
 8001490:	f44f 5140 	mov.w	r1, #12288	; 0x3000

  SetEPTxCount(ENDP0, Length);

  pEPinfo->Usb_wLength -= Length;
  pEPinfo->Usb_wOffset += Length;
  vSetEPTxStatus(EP_TX_VALID);
 8001494:	8002      	strh	r2, [r0, #0]
  UserToPMABufferCopy(DataBuffer, GetEPTxAddr(ENDP0), Length);

  SetEPTxCount(ENDP0, Length);

  pEPinfo->Usb_wLength -= Length;
  pEPinfo->Usb_wOffset += Length;
 8001496:	8265      	strh	r5, [r4, #18]
  vSetEPTxStatus(EP_TX_VALID);

  USB_StatusOut();/* Expect the host to abort the data IN stage */
 8001498:	8019      	strh	r1, [r3, #0]

Expect_Status_Out:
  pInformation->ControlState = ControlState;
 800149a:	4b02      	ldr	r3, [pc, #8]	; (80014a4 <DataStageIn+0x8c>)
 800149c:	6818      	ldr	r0, [r3, #0]
 800149e:	7206      	strb	r6, [r0, #8]
 80014a0:	bdf8      	pop	{r3, r4, r5, r6, r7, pc}
 80014a2:	bf00      	nop
 80014a4:	20001320 	.word	0x20001320
 80014a8:	200002c8 	.word	0x200002c8
 80014ac:	20001328 	.word	0x20001328
 80014b0:	40005c50 	.word	0x40005c50
 80014b4:	20003002 	.word	0x20003002
 80014b8:	08001df5 	.word	0x08001df5
 80014bc:	08001c19 	.word	0x08001c19
 80014c0:	08001e2d 	.word	0x08001e2d
 80014c4:	20001326 	.word	0x20001326

080014c8 <Standard_SetConfiguration>:
* Output         : None.
* Return         : Return USB_SUCCESS, if the request is performed.
*                  Return USB_UNSUPPORT, if the request is invalid.
*******************************************************************************/
RESULT Standard_SetConfiguration(void)
{
 80014c8:	b510      	push	{r4, lr}

  if ((pInformation->USBwValue0 <=
 80014ca:	4b0a      	ldr	r3, [pc, #40]	; (80014f4 <Standard_SetConfiguration+0x2c>)
      Device_Table.Total_Configuration) && (pInformation->USBwValue1 == 0)
 80014cc:	490a      	ldr	r1, [pc, #40]	; (80014f8 <Standard_SetConfiguration+0x30>)
*                  Return USB_UNSUPPORT, if the request is invalid.
*******************************************************************************/
RESULT Standard_SetConfiguration(void)
{

  if ((pInformation->USBwValue0 <=
 80014ce:	6818      	ldr	r0, [r3, #0]
 80014d0:	784b      	ldrb	r3, [r1, #1]
 80014d2:	78c2      	ldrb	r2, [r0, #3]
 80014d4:	4293      	cmp	r3, r2
 80014d6:	d30a      	bcc.n	80014ee <Standard_SetConfiguration+0x26>
      Device_Table.Total_Configuration) && (pInformation->USBwValue1 == 0)
 80014d8:	7881      	ldrb	r1, [r0, #2]
 80014da:	b941      	cbnz	r1, 80014ee <Standard_SetConfiguration+0x26>
      && (pInformation->USBwIndex == 0)) /*call Back usb spec 2.0*/
 80014dc:	8884      	ldrh	r4, [r0, #4]
 80014de:	b934      	cbnz	r4, 80014ee <Standard_SetConfiguration+0x26>
  {
    pInformation->Current_Configuration = pInformation->USBwValue0;
 80014e0:	7282      	strb	r2, [r0, #10]
    pUser_Standard_Requests->User_SetConfiguration();
 80014e2:	4806      	ldr	r0, [pc, #24]	; (80014fc <Standard_SetConfiguration+0x34>)
 80014e4:	6802      	ldr	r2, [r0, #0]
 80014e6:	6853      	ldr	r3, [r2, #4]
 80014e8:	4798      	blx	r3
    return USB_SUCCESS;
 80014ea:	4620      	mov	r0, r4
 80014ec:	bd10      	pop	{r4, pc}
  }
  else
  {
    return USB_UNSUPPORT;
 80014ee:	2002      	movs	r0, #2
  }
}
 80014f0:	bd10      	pop	{r4, pc}
 80014f2:	bf00      	nop
 80014f4:	20001320 	.word	0x20001320
 80014f8:	200000e0 	.word	0x200000e0
 80014fc:	2000131c 	.word	0x2000131c

08001500 <Standard_SetInterface>:
* Output         : None.
* Return         : - Return USB_SUCCESS, if the request is performed.
*                  - Return USB_UNSUPPORT, if the request is invalid.
*******************************************************************************/
RESULT Standard_SetInterface(void)
{
 8001500:	b538      	push	{r3, r4, r5, lr}
  RESULT Re;
  /*Test if the specified Interface and Alternate Setting are supported by
    the application Firmware*/
  Re = (*pProperty->Class_Get_Interface_Setting)(pInformation->USBwIndex0, pInformation->USBwValue0);
 8001502:	4a0e      	ldr	r2, [pc, #56]	; (800153c <Standard_SetInterface+0x3c>)
 8001504:	4c0e      	ldr	r4, [pc, #56]	; (8001540 <Standard_SetInterface+0x40>)
 8001506:	6810      	ldr	r0, [r2, #0]
 8001508:	6823      	ldr	r3, [r4, #0]
 800150a:	6982      	ldr	r2, [r0, #24]
 800150c:	78d9      	ldrb	r1, [r3, #3]
 800150e:	7958      	ldrb	r0, [r3, #5]
 8001510:	4790      	blx	r2

  if (pInformation->Current_Configuration != 0)
 8001512:	6821      	ldr	r1, [r4, #0]
 8001514:	7a8b      	ldrb	r3, [r1, #10]
 8001516:	b17b      	cbz	r3, 8001538 <Standard_SetInterface+0x38>
  {
    if ((Re != USB_SUCCESS) || (pInformation->USBwIndex1 != 0)
 8001518:	b970      	cbnz	r0, 8001538 <Standard_SetInterface+0x38>
 800151a:	7908      	ldrb	r0, [r1, #4]
 800151c:	b960      	cbnz	r0, 8001538 <Standard_SetInterface+0x38>
        || (pInformation->USBwValue1 != 0))
 800151e:	788d      	ldrb	r5, [r1, #2]
 8001520:	b955      	cbnz	r5, 8001538 <Standard_SetInterface+0x38>
    {
      return  USB_UNSUPPORT;
    }
    else if (Re == USB_SUCCESS)
    {
      pUser_Standard_Requests->User_SetInterface();
 8001522:	4a08      	ldr	r2, [pc, #32]	; (8001544 <Standard_SetInterface+0x44>)
 8001524:	6811      	ldr	r1, [r2, #0]
 8001526:	68cb      	ldr	r3, [r1, #12]
 8001528:	4798      	blx	r3
      pInformation->Current_Interface = pInformation->USBwIndex0;
 800152a:	6820      	ldr	r0, [r4, #0]
 800152c:	7942      	ldrb	r2, [r0, #5]
      pInformation->Current_AlternateSetting = pInformation->USBwValue0;
 800152e:	78c1      	ldrb	r1, [r0, #3]
      return  USB_UNSUPPORT;
    }
    else if (Re == USB_SUCCESS)
    {
      pUser_Standard_Requests->User_SetInterface();
      pInformation->Current_Interface = pInformation->USBwIndex0;
 8001530:	72c2      	strb	r2, [r0, #11]
      pInformation->Current_AlternateSetting = pInformation->USBwValue0;
 8001532:	7301      	strb	r1, [r0, #12]
      return USB_SUCCESS;
 8001534:	4628      	mov	r0, r5
 8001536:	bd38      	pop	{r3, r4, r5, pc}
    }

  }

  return USB_UNSUPPORT;
 8001538:	2002      	movs	r0, #2
}
 800153a:	bd38      	pop	{r3, r4, r5, pc}
 800153c:	200012f8 	.word	0x200012f8
 8001540:	20001320 	.word	0x20001320
 8001544:	2000131c 	.word	0x2000131c

08001548 <Standard_ClearFeature>:
* Output         : None.
* Return         : - Return USB_SUCCESS, if the request is performed.
*                  - Return USB_UNSUPPORT, if the request is invalid.
*******************************************************************************/
RESULT Standard_ClearFeature(void)
{
 8001548:	b510      	push	{r4, lr}
  uint32_t     Type_Rec = Type_Recipient;
 800154a:	4b32      	ldr	r3, [pc, #200]	; (8001614 <Standard_ClearFeature+0xcc>)
 800154c:	681b      	ldr	r3, [r3, #0]
 800154e:	7818      	ldrb	r0, [r3, #0]
  uint32_t     Status;


  if (Type_Rec == (STANDARD_REQUEST | DEVICE_RECIPIENT))
 8001550:	f010 007f 	ands.w	r0, r0, #127	; 0x7f
 8001554:	d104      	bne.n	8001560 <Standard_ClearFeature+0x18>
  {/*Device Clear Feature*/
    ClrBit(pInformation->Current_Feature, 5);
 8001556:	7a59      	ldrb	r1, [r3, #9]
 8001558:	f021 0220 	bic.w	r2, r1, #32
 800155c:	725a      	strb	r2, [r3, #9]
    return USB_SUCCESS;
 800155e:	bd10      	pop	{r4, pc}
  }
  else if (Type_Rec == (STANDARD_REQUEST | ENDPOINT_RECIPIENT))
 8001560:	2802      	cmp	r0, #2
 8001562:	d155      	bne.n	8001610 <Standard_ClearFeature+0xc8>
    DEVICE* pDev;
    uint32_t Related_Endpoint;
    uint32_t wIndex0;
    uint32_t rEP;

    if ((pInformation->USBwValue != ENDPOINT_STALL)
 8001564:	885a      	ldrh	r2, [r3, #2]
 8001566:	2a00      	cmp	r2, #0
 8001568:	d153      	bne.n	8001612 <Standard_ClearFeature+0xca>
        || (pInformation->USBwIndex1 != 0))
 800156a:	7919      	ldrb	r1, [r3, #4]
 800156c:	2900      	cmp	r1, #0
 800156e:	d150      	bne.n	8001612 <Standard_ClearFeature+0xca>
    {
      return USB_UNSUPPORT;
    }

    pDev = &Device_Table;
    wIndex0 = pInformation->USBwIndex0;
 8001570:	795a      	ldrb	r2, [r3, #5]
    rEP = wIndex0 & ~0x80;
 8001572:	f022 0080 	bic.w	r0, r2, #128	; 0x80
 8001576:	ea4f 0480 	mov.w	r4, r0, lsl #2

    if (ValBit(pInformation->USBwIndex0, 7))
    {
      /*Get Status of endpoint & stall the request if the related_ENdpoint
      is Disabled*/
      Status = _GetEPTxStatus(Related_Endpoint);
 800157a:	f104 4180 	add.w	r1, r4, #1073741824	; 0x40000000
 800157e:	f501 44b8 	add.w	r4, r1, #23552	; 0x5c00
 8001582:	6821      	ldr	r1, [r4, #0]
    else
    {
      Status = _GetEPRxStatus(Related_Endpoint);
    }

    if ((rEP >= pDev->Total_Endpoint) || (Status == 0)
 8001584:	4c24      	ldr	r4, [pc, #144]	; (8001618 <Standard_ClearFeature+0xd0>)
    pDev = &Device_Table;
    wIndex0 = pInformation->USBwIndex0;
    rEP = wIndex0 & ~0x80;
    Related_Endpoint = ENDP0 + rEP;

    if (ValBit(pInformation->USBwIndex0, 7))
 8001586:	f012 0f80 	tst.w	r2, #128	; 0x80
    else
    {
      Status = _GetEPRxStatus(Related_Endpoint);
    }

    if ((rEP >= pDev->Total_Endpoint) || (Status == 0)
 800158a:	7824      	ldrb	r4, [r4, #0]

    if (ValBit(pInformation->USBwIndex0, 7))
    {
      /*Get Status of endpoint & stall the request if the related_ENdpoint
      is Disabled*/
      Status = _GetEPTxStatus(Related_Endpoint);
 800158c:	bf14      	ite	ne
 800158e:	f001 0130 	andne.w	r1, r1, #48	; 0x30
    }
    else
    {
      Status = _GetEPRxStatus(Related_Endpoint);
 8001592:	f401 5140 	andeq.w	r1, r1, #12288	; 0x3000
    }

    if ((rEP >= pDev->Total_Endpoint) || (Status == 0)
 8001596:	42a0      	cmp	r0, r4
 8001598:	d23a      	bcs.n	8001610 <Standard_ClearFeature+0xc8>
 800159a:	2900      	cmp	r1, #0
 800159c:	d038      	beq.n	8001610 <Standard_ClearFeature+0xc8>
        || (pInformation->Current_Configuration == 0))
 800159e:	7a9b      	ldrb	r3, [r3, #10]
 80015a0:	2b00      	cmp	r3, #0
 80015a2:	d035      	beq.n	8001610 <Standard_ClearFeature+0xc8>
 80015a4:	0084      	lsls	r4, r0, #2
    {
      return USB_UNSUPPORT;
    }


    if (wIndex0 & 0x80)
 80015a6:	f002 0280 	and.w	r2, r2, #128	; 0x80
    {
      /* IN endpoint */
      if (_GetTxStallStatus(Related_Endpoint ))
 80015aa:	f104 4380 	add.w	r3, r4, #1073741824	; 0x40000000
    {
      return USB_UNSUPPORT;
    }


    if (wIndex0 & 0x80)
 80015ae:	b2d1      	uxtb	r1, r2
    {
      /* IN endpoint */
      if (_GetTxStallStatus(Related_Endpoint ))
 80015b0:	f503 44b8 	add.w	r4, r3, #23552	; 0x5c00
 80015b4:	6822      	ldr	r2, [r4, #0]
    {
      return USB_UNSUPPORT;
    }


    if (wIndex0 & 0x80)
 80015b6:	b161      	cbz	r1, 80015d2 <Standard_ClearFeature+0x8a>
    {
      /* IN endpoint */
      if (_GetTxStallStatus(Related_Endpoint ))
 80015b8:	f002 0130 	and.w	r1, r2, #48	; 0x30
 80015bc:	2910      	cmp	r1, #16
 80015be:	d121      	bne.n	8001604 <Standard_ClearFeature+0xbc>
      {
        ClearDTOG_TX(Related_Endpoint);
 80015c0:	b2c4      	uxtb	r4, r0
 80015c2:	4620      	mov	r0, r4
 80015c4:	4a15      	ldr	r2, [pc, #84]	; (800161c <Standard_ClearFeature+0xd4>)
 80015c6:	4790      	blx	r2
        SetEPTxStatus(Related_Endpoint, EP_TX_VALID);
 80015c8:	4620      	mov	r0, r4
 80015ca:	2130      	movs	r1, #48	; 0x30
 80015cc:	4b14      	ldr	r3, [pc, #80]	; (8001620 <Standard_ClearFeature+0xd8>)
 80015ce:	4798      	blx	r3
 80015d0:	e018      	b.n	8001604 <Standard_ClearFeature+0xbc>
      }
    }
    else
    {
      /* OUT endpoint */
      if (_GetRxStallStatus(Related_Endpoint))
 80015d2:	f402 5140 	and.w	r1, r2, #12288	; 0x3000
 80015d6:	f5b1 5f80 	cmp.w	r1, #4096	; 0x1000
 80015da:	d113      	bne.n	8001604 <Standard_ClearFeature+0xbc>
      {
        if (Related_Endpoint == ENDP0)
 80015dc:	b928      	cbnz	r0, 80015ea <Standard_ClearFeature+0xa2>
        {
          /* After clear the STALL, enable the default endpoint receiver */
          SetEPRxCount(Related_Endpoint, Device_Property.MaxPacketSize);
 80015de:	4a11      	ldr	r2, [pc, #68]	; (8001624 <Standard_ClearFeature+0xdc>)
 80015e0:	4b11      	ldr	r3, [pc, #68]	; (8001628 <Standard_ClearFeature+0xe0>)
 80015e2:	f892 102c 	ldrb.w	r1, [r2, #44]	; 0x2c
 80015e6:	4798      	blx	r3
 80015e8:	e001      	b.n	80015ee <Standard_ClearFeature+0xa6>
          _SetEPRxStatus(Related_Endpoint, EP_RX_VALID);
        }
        else
        {
          ClearDTOG_RX(Related_Endpoint);
 80015ea:	4b10      	ldr	r3, [pc, #64]	; (800162c <Standard_ClearFeature+0xe4>)
 80015ec:	4798      	blx	r3
          _SetEPRxStatus(Related_Endpoint, EP_RX_VALID);
 80015ee:	6820      	ldr	r0, [r4, #0]
 80015f0:	f64b 718f 	movw	r1, #49039	; 0xbf8f
 80015f4:	4001      	ands	r1, r0
 80015f6:	f481 5240 	eor.w	r2, r1, #12288	; 0x3000
 80015fa:	f442 4300 	orr.w	r3, r2, #32768	; 0x8000
 80015fe:	f043 0080 	orr.w	r0, r3, #128	; 0x80
 8001602:	6020      	str	r0, [r4, #0]
        }
      }
    }
    pUser_Standard_Requests->User_ClearFeature();
 8001604:	480a      	ldr	r0, [pc, #40]	; (8001630 <Standard_ClearFeature+0xe8>)
 8001606:	6801      	ldr	r1, [r0, #0]
 8001608:	694a      	ldr	r2, [r1, #20]
 800160a:	4790      	blx	r2
    return USB_SUCCESS;
 800160c:	2000      	movs	r0, #0
 800160e:	bd10      	pop	{r4, pc}
  }

  return USB_UNSUPPORT;
 8001610:	2002      	movs	r0, #2
}
 8001612:	bd10      	pop	{r4, pc}
 8001614:	20001320 	.word	0x20001320
 8001618:	200000e0 	.word	0x200000e0
 800161c:	08001d8f 	.word	0x08001d8f
 8001620:	08001c95 	.word	0x08001c95
 8001624:	2000005c 	.word	0x2000005c
 8001628:	08001e49 	.word	0x08001e49
 800162c:	08001d6b 	.word	0x08001d6b
 8001630:	2000131c 	.word	0x2000131c

08001634 <Standard_SetEndPointFeature>:
* Output         : None.
* Return         : - Return USB_SUCCESS, if the request is performed.
*                  - Return USB_UNSUPPORT, if the request is invalid.
*******************************************************************************/
RESULT Standard_SetEndPointFeature(void)
{
 8001634:	b510      	push	{r4, lr}
  uint32_t    wIndex0;
  uint32_t    Related_Endpoint;
  uint32_t    rEP;
  uint32_t    Status;

  wIndex0 = pInformation->USBwIndex0;
 8001636:	4b1f      	ldr	r3, [pc, #124]	; (80016b4 <Standard_SetEndPointFeature+0x80>)
 8001638:	6819      	ldr	r1, [r3, #0]
 800163a:	794a      	ldrb	r2, [r1, #5]
  rEP = wIndex0 & ~0x80;
 800163c:	f022 0380 	bic.w	r3, r2, #128	; 0x80
 8001640:	ea4f 0083 	mov.w	r0, r3, lsl #2

  if (ValBit(pInformation->USBwIndex0, 7))
  {
    /* get Status of endpoint & stall the request if the related_ENdpoint
    is Disabled*/
    Status = _GetEPTxStatus(Related_Endpoint);
 8001644:	f100 4480 	add.w	r4, r0, #1073741824	; 0x40000000
 8001648:	f504 40b8 	add.w	r0, r4, #23552	; 0x5c00
  else
  {
    Status = _GetEPRxStatus(Related_Endpoint);
  }

  if (Related_Endpoint >= Device_Table.Total_Endpoint
 800164c:	4c1a      	ldr	r4, [pc, #104]	; (80016b8 <Standard_SetEndPointFeature+0x84>)

  if (ValBit(pInformation->USBwIndex0, 7))
  {
    /* get Status of endpoint & stall the request if the related_ENdpoint
    is Disabled*/
    Status = _GetEPTxStatus(Related_Endpoint);
 800164e:	6800      	ldr	r0, [r0, #0]
  else
  {
    Status = _GetEPRxStatus(Related_Endpoint);
  }

  if (Related_Endpoint >= Device_Table.Total_Endpoint
 8001650:	7824      	ldrb	r4, [r4, #0]

  wIndex0 = pInformation->USBwIndex0;
  rEP = wIndex0 & ~0x80;
  Related_Endpoint = ENDP0 + rEP;

  if (ValBit(pInformation->USBwIndex0, 7))
 8001652:	f012 0f80 	tst.w	r2, #128	; 0x80
  {
    /* get Status of endpoint & stall the request if the related_ENdpoint
    is Disabled*/
    Status = _GetEPTxStatus(Related_Endpoint);
 8001656:	bf14      	ite	ne
 8001658:	f000 0030 	andne.w	r0, r0, #48	; 0x30
  }
  else
  {
    Status = _GetEPRxStatus(Related_Endpoint);
 800165c:	f400 5040 	andeq.w	r0, r0, #12288	; 0x3000
  }

  if (Related_Endpoint >= Device_Table.Total_Endpoint
 8001660:	42a3      	cmp	r3, r4
 8001662:	d224      	bcs.n	80016ae <Standard_SetEndPointFeature+0x7a>
      || pInformation->USBwValue != 0 || Status == 0
 8001664:	884c      	ldrh	r4, [r1, #2]
 8001666:	bb14      	cbnz	r4, 80016ae <Standard_SetEndPointFeature+0x7a>
 8001668:	b308      	cbz	r0, 80016ae <Standard_SetEndPointFeature+0x7a>
      || pInformation->Current_Configuration == 0)
 800166a:	7a89      	ldrb	r1, [r1, #10]
 800166c:	b1f9      	cbz	r1, 80016ae <Standard_SetEndPointFeature+0x7a>
 800166e:	009b      	lsls	r3, r3, #2
  else
  {
    if (wIndex0 & 0x80)
    {
      /* IN endpoint */
      _SetEPTxStatus(Related_Endpoint, EP_TX_STALL);
 8001670:	f103 4180 	add.w	r1, r3, #1073741824	; 0x40000000
  {
    return USB_UNSUPPORT;
  }
  else
  {
    if (wIndex0 & 0x80)
 8001674:	f002 0280 	and.w	r2, r2, #128	; 0x80
    {
      /* IN endpoint */
      _SetEPTxStatus(Related_Endpoint, EP_TX_STALL);
 8001678:	f501 43b8 	add.w	r3, r1, #23552	; 0x5c00
  {
    return USB_UNSUPPORT;
  }
  else
  {
    if (wIndex0 & 0x80)
 800167c:	b2d0      	uxtb	r0, r2
    {
      /* IN endpoint */
      _SetEPTxStatus(Related_Endpoint, EP_TX_STALL);
 800167e:	6819      	ldr	r1, [r3, #0]
  {
    return USB_UNSUPPORT;
  }
  else
  {
    if (wIndex0 & 0x80)
 8001680:	b128      	cbz	r0, 800168e <Standard_SetEndPointFeature+0x5a>
    {
      /* IN endpoint */
      _SetEPTxStatus(Related_Endpoint, EP_TX_STALL);
 8001682:	f648 72bf 	movw	r2, #36799	; 0x8fbf
 8001686:	400a      	ands	r2, r1
 8001688:	f082 0010 	eor.w	r0, r2, #16
 800168c:	e004      	b.n	8001698 <Standard_SetEndPointFeature+0x64>
    }

    else
    {
      /* OUT endpoint */
      _SetEPRxStatus(Related_Endpoint, EP_RX_STALL);
 800168e:	f64b 728f 	movw	r2, #49039	; 0xbf8f
 8001692:	400a      	ands	r2, r1
 8001694:	f482 5080 	eor.w	r0, r2, #4096	; 0x1000
 8001698:	f440 4100 	orr.w	r1, r0, #32768	; 0x8000
 800169c:	f041 0080 	orr.w	r0, r1, #128	; 0x80
 80016a0:	6018      	str	r0, [r3, #0]
    }
  }
  pUser_Standard_Requests->User_SetEndPointFeature();
 80016a2:	4b06      	ldr	r3, [pc, #24]	; (80016bc <Standard_SetEndPointFeature+0x88>)
 80016a4:	681a      	ldr	r2, [r3, #0]
 80016a6:	6991      	ldr	r1, [r2, #24]
 80016a8:	4788      	blx	r1
  return USB_SUCCESS;
 80016aa:	2000      	movs	r0, #0
 80016ac:	bd10      	pop	{r4, pc}

  if (Related_Endpoint >= Device_Table.Total_Endpoint
      || pInformation->USBwValue != 0 || Status == 0
      || pInformation->Current_Configuration == 0)
  {
    return USB_UNSUPPORT;
 80016ae:	2002      	movs	r0, #2
      _SetEPRxStatus(Related_Endpoint, EP_RX_STALL);
    }
  }
  pUser_Standard_Requests->User_SetEndPointFeature();
  return USB_SUCCESS;
}
 80016b0:	bd10      	pop	{r4, pc}
 80016b2:	bf00      	nop
 80016b4:	20001320 	.word	0x20001320
 80016b8:	200000e0 	.word	0x200000e0
 80016bc:	2000131c 	.word	0x2000131c

080016c0 <Standard_SetDeviceFeature>:
* Output         : None.
* Return         : - Return USB_SUCCESS, if the request is performed.
*                  - Return USB_UNSUPPORT, if the request is invalid.
*******************************************************************************/
RESULT Standard_SetDeviceFeature(void)
{
 80016c0:	b508      	push	{r3, lr}
  SetBit(pInformation->Current_Feature, 5);
 80016c2:	4b06      	ldr	r3, [pc, #24]	; (80016dc <Standard_SetDeviceFeature+0x1c>)
 80016c4:	6818      	ldr	r0, [r3, #0]
  pUser_Standard_Requests->User_SetDeviceFeature();
 80016c6:	4b06      	ldr	r3, [pc, #24]	; (80016e0 <Standard_SetDeviceFeature+0x20>)
* Return         : - Return USB_SUCCESS, if the request is performed.
*                  - Return USB_UNSUPPORT, if the request is invalid.
*******************************************************************************/
RESULT Standard_SetDeviceFeature(void)
{
  SetBit(pInformation->Current_Feature, 5);
 80016c8:	7a42      	ldrb	r2, [r0, #9]
 80016ca:	f042 0120 	orr.w	r1, r2, #32
 80016ce:	7241      	strb	r1, [r0, #9]
  pUser_Standard_Requests->User_SetDeviceFeature();
 80016d0:	6818      	ldr	r0, [r3, #0]
 80016d2:	69c2      	ldr	r2, [r0, #28]
 80016d4:	4790      	blx	r2
  return USB_SUCCESS;
}
 80016d6:	2000      	movs	r0, #0
 80016d8:	bd08      	pop	{r3, pc}
 80016da:	bf00      	nop
 80016dc:	20001320 	.word	0x20001320
 80016e0:	2000131c 	.word	0x2000131c

080016e4 <Standard_GetDescriptorData>:
*******************************************************************************/
uint8_t *Standard_GetDescriptorData(uint16_t Length, ONE_DESCRIPTOR *pDesc)
{
  uint32_t  wOffset;

  wOffset = pInformation->Ctrl_Info.Usb_wOffset;
 80016e4:	4b05      	ldr	r3, [pc, #20]	; (80016fc <Standard_GetDescriptorData+0x18>)
 80016e6:	681a      	ldr	r2, [r3, #0]
 80016e8:	8a53      	ldrh	r3, [r2, #18]
  if (Length == 0)
 80016ea:	b918      	cbnz	r0, 80016f4 <Standard_GetDescriptorData+0x10>
  {
    pInformation->Ctrl_Info.Usb_wLength = pDesc->Descriptor_Size - wOffset;
 80016ec:	8889      	ldrh	r1, [r1, #4]
 80016ee:	1acb      	subs	r3, r1, r3
 80016f0:	8213      	strh	r3, [r2, #16]
    return 0;
 80016f2:	4770      	bx	lr
  }

  return pDesc->Descriptor + wOffset;
 80016f4:	6808      	ldr	r0, [r1, #0]
 80016f6:	18c0      	adds	r0, r0, r3
}
 80016f8:	4770      	bx	lr
 80016fa:	bf00      	nop
 80016fc:	20001320 	.word	0x20001320

08001700 <Post0_Process>:
* Output         : None.
* Return         : - 0 if the control State is in PAUSE
*                  - 1 if not.
*******************************************************************************/
uint8_t Post0_Process(void)
{
 8001700:	b508      	push	{r3, lr}
   
  SetEPRxCount(ENDP0, Device_Property.MaxPacketSize);
 8001702:	4b0b      	ldr	r3, [pc, #44]	; (8001730 <Post0_Process+0x30>)
 8001704:	2000      	movs	r0, #0
 8001706:	f893 102c 	ldrb.w	r1, [r3, #44]	; 0x2c
 800170a:	4a0a      	ldr	r2, [pc, #40]	; (8001734 <Post0_Process+0x34>)
 800170c:	4790      	blx	r2

  if (pInformation->ControlState == STALLED)
 800170e:	480a      	ldr	r0, [pc, #40]	; (8001738 <Post0_Process+0x38>)
 8001710:	6801      	ldr	r1, [r0, #0]
 8001712:	7a08      	ldrb	r0, [r1, #8]
 8001714:	2808      	cmp	r0, #8
 8001716:	d106      	bne.n	8001726 <Post0_Process+0x26>
  {
    vSetEPRxStatus(EP_RX_STALL);
 8001718:	4b08      	ldr	r3, [pc, #32]	; (800173c <Post0_Process+0x3c>)
 800171a:	f44f 5280 	mov.w	r2, #4096	; 0x1000
 800171e:	801a      	strh	r2, [r3, #0]
    vSetEPTxStatus(EP_TX_STALL);
 8001720:	4a07      	ldr	r2, [pc, #28]	; (8001740 <Post0_Process+0x40>)
 8001722:	2110      	movs	r1, #16
 8001724:	8011      	strh	r1, [r2, #0]
  }

  return (pInformation->ControlState == PAUSE);
}
 8001726:	f1b0 0309 	subs.w	r3, r0, #9
 800172a:	4258      	negs	r0, r3
 800172c:	4158      	adcs	r0, r3
 800172e:	bd08      	pop	{r3, pc}
 8001730:	2000005c 	.word	0x2000005c
 8001734:	08001e49 	.word	0x08001e49
 8001738:	20001320 	.word	0x20001320
 800173c:	20001326 	.word	0x20001326
 8001740:	20001328 	.word	0x20001328

08001744 <Out0_Process>:
* Input          : None.
* Output         : None.
* Return         : Post0_Process.
*******************************************************************************/
uint8_t Out0_Process(void)
{
 8001744:	b570      	push	{r4, r5, r6, lr}
  uint32_t ControlState = pInformation->ControlState;
 8001746:	4b2e      	ldr	r3, [pc, #184]	; (8001800 <Out0_Process+0xbc>)
 8001748:	681c      	ldr	r4, [r3, #0]
 800174a:	7a20      	ldrb	r0, [r4, #8]

  if ((ControlState == IN_DATA) || (ControlState == LAST_IN_DATA))
 800174c:	2802      	cmp	r0, #2
 800174e:	d04f      	beq.n	80017f0 <Out0_Process+0xac>
 8001750:	2804      	cmp	r0, #4
 8001752:	d04d      	beq.n	80017f0 <Out0_Process+0xac>
  {
    /* host aborts the transfer before finish */
    ControlState = STALLED;
  }
  else if ((ControlState == OUT_DATA) || (ControlState == LAST_OUT_DATA))
 8001754:	2803      	cmp	r0, #3
 8001756:	d001      	beq.n	800175c <Out0_Process+0x18>
 8001758:	2805      	cmp	r0, #5
 800175a:	d143      	bne.n	80017e4 <Out0_Process+0xa0>
  ENDPOINT_INFO *pEPinfo = &pInformation->Ctrl_Info;
  uint32_t save_rLength;

  save_rLength = pEPinfo->Usb_rLength;

  if (pEPinfo->CopyData && save_rLength)
 800175c:	69a1      	ldr	r1, [r4, #24]
void DataStageOut(void)
{
  ENDPOINT_INFO *pEPinfo = &pInformation->Ctrl_Info;
  uint32_t save_rLength;

  save_rLength = pEPinfo->Usb_rLength;
 800175e:	8a20      	ldrh	r0, [r4, #16]

  if (pEPinfo->CopyData && save_rLength)
 8001760:	b1a9      	cbz	r1, 800178e <Out0_Process+0x4a>
 8001762:	b1a0      	cbz	r0, 800178e <Out0_Process+0x4a>
  {
    uint8_t *Buffer;
    uint32_t Length;

    Length = pEPinfo->PacketSize;
 8001764:	8aa5      	ldrh	r5, [r4, #20]
    if (Length > save_rLength)
    {
      Length = save_rLength;
    }

    Buffer = (*pEPinfo->CopyData)(Length);
 8001766:	4285      	cmp	r5, r0
 8001768:	bf28      	it	cs
 800176a:	4605      	movcs	r5, r0
 800176c:	4628      	mov	r0, r5
 800176e:	4788      	blx	r1
    pEPinfo->Usb_rLength -= Length;
 8001770:	8a22      	ldrh	r2, [r4, #16]
    if (Length > save_rLength)
    {
      Length = save_rLength;
    }

    Buffer = (*pEPinfo->CopyData)(Length);
 8001772:	4606      	mov	r6, r0
    pEPinfo->Usb_rLength -= Length;
    pEPinfo->Usb_rOffset += Length;
 8001774:	8a60      	ldrh	r0, [r4, #18]
    {
      Length = save_rLength;
    }

    Buffer = (*pEPinfo->CopyData)(Length);
    pEPinfo->Usb_rLength -= Length;
 8001776:	1b53      	subs	r3, r2, r5
    pEPinfo->Usb_rOffset += Length;
 8001778:	1829      	adds	r1, r5, r0
    {
      Length = save_rLength;
    }

    Buffer = (*pEPinfo->CopyData)(Length);
    pEPinfo->Usb_rLength -= Length;
 800177a:	8223      	strh	r3, [r4, #16]
    pEPinfo->Usb_rOffset += Length;
 800177c:	8261      	strh	r1, [r4, #18]
    PMAToUserBufferCopy(Buffer, GetEPRxAddr(ENDP0), Length);
 800177e:	4a21      	ldr	r2, [pc, #132]	; (8001804 <Out0_Process+0xc0>)
 8001780:	2000      	movs	r0, #0
 8001782:	4790      	blx	r2
 8001784:	462a      	mov	r2, r5
 8001786:	4601      	mov	r1, r0
 8001788:	4b1f      	ldr	r3, [pc, #124]	; (8001808 <Out0_Process+0xc4>)
 800178a:	4630      	mov	r0, r6
 800178c:	4798      	blx	r3

  }

  if (pEPinfo->Usb_rLength != 0)
 800178e:	8a20      	ldrh	r0, [r4, #16]
 8001790:	b150      	cbz	r0, 80017a8 <Out0_Process+0x64>
  {
    vSetEPRxStatus(EP_RX_VALID);/* re-enable for next data reception */
 8001792:	4a1e      	ldr	r2, [pc, #120]	; (800180c <Out0_Process+0xc8>)
    SetEPTxCount(ENDP0, 0);
 8001794:	2000      	movs	r0, #0

  }

  if (pEPinfo->Usb_rLength != 0)
  {
    vSetEPRxStatus(EP_RX_VALID);/* re-enable for next data reception */
 8001796:	f44f 5140 	mov.w	r1, #12288	; 0x3000
 800179a:	8011      	strh	r1, [r2, #0]
    SetEPTxCount(ENDP0, 0);
 800179c:	4b1c      	ldr	r3, [pc, #112]	; (8001810 <Out0_Process+0xcc>)
 800179e:	4601      	mov	r1, r0
 80017a0:	4798      	blx	r3
    vSetEPTxStatus(EP_TX_VALID);/* Expect the host to abort the data OUT stage */
 80017a2:	491c      	ldr	r1, [pc, #112]	; (8001814 <Out0_Process+0xd0>)
 80017a4:	2030      	movs	r0, #48	; 0x30
 80017a6:	8008      	strh	r0, [r1, #0]
  }
  /* Set the next State*/
  if (pEPinfo->Usb_rLength >= pEPinfo->PacketSize)
 80017a8:	8a23      	ldrh	r3, [r4, #16]
 80017aa:	8aa2      	ldrh	r2, [r4, #20]
 80017ac:	4814      	ldr	r0, [pc, #80]	; (8001800 <Out0_Process+0xbc>)
 80017ae:	429a      	cmp	r2, r3
 80017b0:	d802      	bhi.n	80017b8 <Out0_Process+0x74>
  {
    pInformation->ControlState = OUT_DATA;
 80017b2:	6801      	ldr	r1, [r0, #0]
 80017b4:	2203      	movs	r2, #3
 80017b6:	e002      	b.n	80017be <Out0_Process+0x7a>
  }
  else
  {
    if (pEPinfo->Usb_rLength > 0)
 80017b8:	b11b      	cbz	r3, 80017c2 <Out0_Process+0x7e>
    {
      pInformation->ControlState = LAST_OUT_DATA;
 80017ba:	6801      	ldr	r1, [r0, #0]
 80017bc:	2205      	movs	r2, #5
 80017be:	720a      	strb	r2, [r1, #8]
 80017c0:	e00c      	b.n	80017dc <Out0_Process+0x98>
    }
    else if (pEPinfo->Usb_rLength == 0)
    {
      pInformation->ControlState = WAIT_STATUS_IN;
 80017c2:	6802      	ldr	r2, [r0, #0]
 80017c4:	2106      	movs	r1, #6
      USB_StatusIn();
 80017c6:	4814      	ldr	r0, [pc, #80]	; (8001818 <Out0_Process+0xd4>)
    {
      pInformation->ControlState = LAST_OUT_DATA;
    }
    else if (pEPinfo->Usb_rLength == 0)
    {
      pInformation->ControlState = WAIT_STATUS_IN;
 80017c8:	7211      	strb	r1, [r2, #8]
      USB_StatusIn();
 80017ca:	6802      	ldr	r2, [r0, #0]
 80017cc:	4813      	ldr	r0, [pc, #76]	; (800181c <Out0_Process+0xd8>)
* Output         : None.
* Return         : None.
*******************************************************************************/
void NOP_Process(void)
{
}
 80017ce:	b291      	uxth	r1, r2
      pInformation->ControlState = LAST_OUT_DATA;
    }
    else if (pEPinfo->Usb_rLength == 0)
    {
      pInformation->ControlState = WAIT_STATUS_IN;
      USB_StatusIn();
 80017d0:	180a      	adds	r2, r1, r0
 80017d2:	0051      	lsls	r1, r2, #1
 80017d4:	600b      	str	r3, [r1, #0]
 80017d6:	4b0f      	ldr	r3, [pc, #60]	; (8001814 <Out0_Process+0xd0>)
 80017d8:	2030      	movs	r0, #48	; 0x30
 80017da:	8018      	strh	r0, [r3, #0]
    ControlState = STALLED;
  }
  else if ((ControlState == OUT_DATA) || (ControlState == LAST_OUT_DATA))
  {
    DataStageOut();
    ControlState = pInformation->ControlState; /* may be changed outside the function */
 80017dc:	4808      	ldr	r0, [pc, #32]	; (8001800 <Out0_Process+0xbc>)
 80017de:	6803      	ldr	r3, [r0, #0]
 80017e0:	7a19      	ldrb	r1, [r3, #8]
 80017e2:	e006      	b.n	80017f2 <Out0_Process+0xae>
  }

  else if (ControlState == WAIT_STATUS_OUT)
 80017e4:	2807      	cmp	r0, #7
 80017e6:	d103      	bne.n	80017f0 <Out0_Process+0xac>
  {
    (*pProperty->Process_Status_OUT)();
 80017e8:	490d      	ldr	r1, [pc, #52]	; (8001820 <Out0_Process+0xdc>)
 80017ea:	680a      	ldr	r2, [r1, #0]
 80017ec:	68d3      	ldr	r3, [r2, #12]
 80017ee:	4798      	blx	r3
  uint32_t ControlState = pInformation->ControlState;

  if ((ControlState == IN_DATA) || (ControlState == LAST_IN_DATA))
  {
    /* host aborts the transfer before finish */
    ControlState = STALLED;
 80017f0:	2108      	movs	r1, #8
  else
  {
    ControlState = STALLED;
  }

  pInformation->ControlState = ControlState;
 80017f2:	4a03      	ldr	r2, [pc, #12]	; (8001800 <Out0_Process+0xbc>)

  return Post0_Process();
 80017f4:	4b0b      	ldr	r3, [pc, #44]	; (8001824 <Out0_Process+0xe0>)
  else
  {
    ControlState = STALLED;
  }

  pInformation->ControlState = ControlState;
 80017f6:	6810      	ldr	r0, [r2, #0]
 80017f8:	7201      	strb	r1, [r0, #8]

  return Post0_Process();
 80017fa:	4798      	blx	r3
}
 80017fc:	bd70      	pop	{r4, r5, r6, pc}
 80017fe:	bf00      	nop
 8001800:	20001320 	.word	0x20001320
 8001804:	08001e11 	.word	0x08001e11
 8001808:	08001c47 	.word	0x08001c47
 800180c:	20001326 	.word	0x20001326
 8001810:	08001e2d 	.word	0x08001e2d
 8001814:	20001328 	.word	0x20001328
 8001818:	40005c50 	.word	0x40005c50
 800181c:	20003002 	.word	0x20003002
 8001820:	200012f8 	.word	0x200012f8
 8001824:	08001701 	.word	0x08001701

08001828 <Setup0_Process>:
    uint8_t* b;
    uint16_t* w;
  } pBuf;
  uint16_t offset = 1;
  
  pBuf.b = PMAAddr + (uint8_t *)(_GetEPRxAddr(ENDP0) * 2); /* *2 for 32 bits addr */
 8001828:	4b92      	ldr	r3, [pc, #584]	; (8001a74 <Setup0_Process+0x24c>)
* Input          : None.
* Output         : None.
* Return         : Post0_Process.
*******************************************************************************/
uint8_t Setup0_Process(void)
{
 800182a:	b5f7      	push	{r0, r1, r2, r4, r5, r6, r7, lr}
    uint8_t* b;
    uint16_t* w;
  } pBuf;
  uint16_t offset = 1;
  
  pBuf.b = PMAAddr + (uint8_t *)(_GetEPRxAddr(ENDP0) * 2); /* *2 for 32 bits addr */
 800182c:	681a      	ldr	r2, [r3, #0]
 800182e:	4992      	ldr	r1, [pc, #584]	; (8001a78 <Setup0_Process+0x250>)
* Output         : None.
* Return         : None.
*******************************************************************************/
void NOP_Process(void)
{
}
 8001830:	b290      	uxth	r0, r2
    uint8_t* b;
    uint16_t* w;
  } pBuf;
  uint16_t offset = 1;
  
  pBuf.b = PMAAddr + (uint8_t *)(_GetEPRxAddr(ENDP0) * 2); /* *2 for 32 bits addr */
 8001832:	1844      	adds	r4, r0, r1

  if (pInformation->ControlState != PAUSE)
 8001834:	4e91      	ldr	r6, [pc, #580]	; (8001a7c <Setup0_Process+0x254>)
    uint8_t* b;
    uint16_t* w;
  } pBuf;
  uint16_t offset = 1;
  
  pBuf.b = PMAAddr + (uint8_t *)(_GetEPRxAddr(ENDP0) * 2); /* *2 for 32 bits addr */
 8001836:	0065      	lsls	r5, r4, #1
 8001838:	682a      	ldr	r2, [r5, #0]

  if (pInformation->ControlState != PAUSE)
 800183a:	6835      	ldr	r5, [r6, #0]
 800183c:	7a2b      	ldrb	r3, [r5, #8]
 800183e:	2b09      	cmp	r3, #9
 8001840:	d014      	beq.n	800186c <Setup0_Process+0x44>
* Output         : None.
* Return         : None.
*******************************************************************************/
void NOP_Process(void)
{
}
 8001842:	b297      	uxth	r7, r2
    uint8_t* b;
    uint16_t* w;
  } pBuf;
  uint16_t offset = 1;
  
  pBuf.b = PMAAddr + (uint8_t *)(_GetEPRxAddr(ENDP0) * 2); /* *2 for 32 bits addr */
 8001844:	0078      	lsls	r0, r7, #1
 8001846:	f100 4180 	add.w	r1, r0, #1073741824	; 0x40000000
 800184a:	f501 44c0 	add.w	r4, r1, #24576	; 0x6000

  if (pInformation->ControlState != PAUSE)
  {
    pInformation->USBbmRequestType = *pBuf.b++; /* bmRequestType */
 800184e:	7822      	ldrb	r2, [r4, #0]
    pInformation->USBbRequest = *pBuf.b++; /* bRequest */
    pBuf.w += offset;  /* word not accessed because of 32 bits addressing */
    pInformation->USBwValue = ByteSwap(*pBuf.w++); /* wValue */
 8001850:	4f8b      	ldr	r7, [pc, #556]	; (8001a80 <Setup0_Process+0x258>)
  
  pBuf.b = PMAAddr + (uint8_t *)(_GetEPRxAddr(ENDP0) * 2); /* *2 for 32 bits addr */

  if (pInformation->ControlState != PAUSE)
  {
    pInformation->USBbmRequestType = *pBuf.b++; /* bmRequestType */
 8001852:	702a      	strb	r2, [r5, #0]
    pInformation->USBbRequest = *pBuf.b++; /* bRequest */
 8001854:	7863      	ldrb	r3, [r4, #1]
 8001856:	706b      	strb	r3, [r5, #1]
    pBuf.w += offset;  /* word not accessed because of 32 bits addressing */
    pInformation->USBwValue = ByteSwap(*pBuf.w++); /* wValue */
 8001858:	88a0      	ldrh	r0, [r4, #4]
 800185a:	47b8      	blx	r7
 800185c:	8068      	strh	r0, [r5, #2]
    pBuf.w += offset;  /* word not accessed because of 32 bits addressing */
    pInformation->USBwIndex  = ByteSwap(*pBuf.w++); /* wIndex */
 800185e:	8920      	ldrh	r0, [r4, #8]
 8001860:	6835      	ldr	r5, [r6, #0]
 8001862:	47b8      	blx	r7
 8001864:	80a8      	strh	r0, [r5, #4]
    pBuf.w += offset;  /* word not accessed because of 32 bits addressing */
    pInformation->USBwLength = *pBuf.w; /* wLength */
 8001866:	89a0      	ldrh	r0, [r4, #12]
 8001868:	6831      	ldr	r1, [r6, #0]
 800186a:	80c8      	strh	r0, [r1, #6]
  }

  pInformation->ControlState = SETTING_UP;
 800186c:	4d83      	ldr	r5, [pc, #524]	; (8001a7c <Setup0_Process+0x254>)
 800186e:	2401      	movs	r4, #1
 8001870:	682b      	ldr	r3, [r5, #0]
  if (pInformation->USBwLength == 0)
 8001872:	88da      	ldrh	r2, [r3, #6]
    pInformation->USBwIndex  = ByteSwap(*pBuf.w++); /* wIndex */
    pBuf.w += offset;  /* word not accessed because of 32 bits addressing */
    pInformation->USBwLength = *pBuf.w; /* wLength */
  }

  pInformation->ControlState = SETTING_UP;
 8001874:	721c      	strb	r4, [r3, #8]
 8001876:	785c      	ldrb	r4, [r3, #1]
  if (pInformation->USBwLength == 0)
 8001878:	2a00      	cmp	r2, #0
 800187a:	d160      	bne.n	800193e <Setup0_Process+0x116>
{
  RESULT Result = USB_UNSUPPORT;
  uint32_t RequestNo = pInformation->USBbRequest;
  uint32_t ControlState;

  if (Type_Recipient == (STANDARD_REQUEST | DEVICE_RECIPIENT))
 800187c:	7818      	ldrb	r0, [r3, #0]
 800187e:	f010 027f 	ands.w	r2, r0, #127	; 0x7f
 8001882:	d136      	bne.n	80018f2 <Setup0_Process+0xca>
  {
    /* Device Request*/
    /* SET_CONFIGURATION*/
    if (RequestNo == SET_CONFIGURATION)
 8001884:	2c09      	cmp	r4, #9
 8001886:	d101      	bne.n	800188c <Setup0_Process+0x64>
    {
      Result = Standard_SetConfiguration();
 8001888:	4b7e      	ldr	r3, [pc, #504]	; (8001a84 <Setup0_Process+0x25c>)
 800188a:	e041      	b.n	8001910 <Setup0_Process+0xe8>
    }

    /*SET ADDRESS*/
    else if (RequestNo == SET_ADDRESS)
 800188c:	2c05      	cmp	r4, #5
 800188e:	d10f      	bne.n	80018b0 <Setup0_Process+0x88>
    {
      if ((pInformation->USBwValue0 > 127) || (pInformation->USBwValue1 != 0)
 8001890:	f993 1003 	ldrsb.w	r1, [r3, #3]
 8001894:	2900      	cmp	r1, #0
 8001896:	da01      	bge.n	800189c <Setup0_Process+0x74>
          || (pInformation->USBwIndex != 0)
          || (pInformation->Current_Configuration != 0))
        /* Device Address should be 127 or less*/
      {
        ControlState = STALLED;
 8001898:	2108      	movs	r1, #8
 800189a:	e04c      	b.n	8001936 <Setup0_Process+0x10e>
    }

    /*SET ADDRESS*/
    else if (RequestNo == SET_ADDRESS)
    {
      if ((pInformation->USBwValue0 > 127) || (pInformation->USBwValue1 != 0)
 800189c:	7898      	ldrb	r0, [r3, #2]
 800189e:	2800      	cmp	r0, #0
 80018a0:	d1fa      	bne.n	8001898 <Setup0_Process+0x70>
          || (pInformation->USBwIndex != 0)
 80018a2:	889a      	ldrh	r2, [r3, #4]
 80018a4:	2a00      	cmp	r2, #0
 80018a6:	d1f7      	bne.n	8001898 <Setup0_Process+0x70>
          || (pInformation->Current_Configuration != 0))
 80018a8:	7a9b      	ldrb	r3, [r3, #10]
 80018aa:	2b00      	cmp	r3, #0
 80018ac:	d035      	beq.n	800191a <Setup0_Process+0xf2>
 80018ae:	e7f3      	b.n	8001898 <Setup0_Process+0x70>
      {
        Result = USB_SUCCESS;
      }
    }
    /*SET FEATURE for Device*/
    else if (RequestNo == SET_FEATURE)
 80018b0:	2c03      	cmp	r4, #3
 80018b2:	d10f      	bne.n	80018d4 <Setup0_Process+0xac>
    {
      if ((pInformation->USBwValue0 == DEVICE_REMOTE_WAKEUP) \
 80018b4:	78d8      	ldrb	r0, [r3, #3]
 80018b6:	2801      	cmp	r0, #1
 80018b8:	d007      	beq.n	80018ca <Setup0_Process+0xa2>
  }


  if (Result != USB_SUCCESS)
  {
    Result = (*pProperty->Class_NoData_Setup)(RequestNo);
 80018ba:	4973      	ldr	r1, [pc, #460]	; (8001a88 <Setup0_Process+0x260>)
 80018bc:	6808      	ldr	r0, [r1, #0]
 80018be:	6942      	ldr	r2, [r0, #20]
 80018c0:	4620      	mov	r0, r4
 80018c2:	4790      	blx	r2
    if (Result == USB_NOT_READY)
 80018c4:	2803      	cmp	r0, #3
 80018c6:	d126      	bne.n	8001916 <Setup0_Process+0xee>
 80018c8:	e034      	b.n	8001934 <Setup0_Process+0x10c>
    }
    /*SET FEATURE for Device*/
    else if (RequestNo == SET_FEATURE)
    {
      if ((pInformation->USBwValue0 == DEVICE_REMOTE_WAKEUP) \
          && (pInformation->USBwIndex == 0))
 80018ca:	889a      	ldrh	r2, [r3, #4]
 80018cc:	2a00      	cmp	r2, #0
 80018ce:	d1f4      	bne.n	80018ba <Setup0_Process+0x92>
      {
        Result = Standard_SetDeviceFeature();
 80018d0:	4b6e      	ldr	r3, [pc, #440]	; (8001a8c <Setup0_Process+0x264>)
 80018d2:	e01d      	b.n	8001910 <Setup0_Process+0xe8>
      {
        Result = USB_UNSUPPORT;
      }
    }
    /*Clear FEATURE for Device */
    else if (RequestNo == CLEAR_FEATURE)
 80018d4:	2c01      	cmp	r4, #1
 80018d6:	d1f0      	bne.n	80018ba <Setup0_Process+0x92>
    {
      if (pInformation->USBwValue0 == DEVICE_REMOTE_WAKEUP
 80018d8:	78d9      	ldrb	r1, [r3, #3]
 80018da:	2901      	cmp	r1, #1
 80018dc:	d1ed      	bne.n	80018ba <Setup0_Process+0x92>
          && pInformation->USBwIndex == 0
 80018de:	8898      	ldrh	r0, [r3, #4]
 80018e0:	2800      	cmp	r0, #0
 80018e2:	d1ea      	bne.n	80018ba <Setup0_Process+0x92>
          && ValBit(pInformation->Current_Feature, 5))
 80018e4:	7a5a      	ldrb	r2, [r3, #9]
 80018e6:	f002 0320 	and.w	r3, r2, #32
 80018ea:	b2d9      	uxtb	r1, r3
 80018ec:	2900      	cmp	r1, #0
 80018ee:	d0e4      	beq.n	80018ba <Setup0_Process+0x92>
 80018f0:	e009      	b.n	8001906 <Setup0_Process+0xde>
    }

  }

  /* Interface Request*/
  else if (Type_Recipient == (STANDARD_REQUEST | INTERFACE_RECIPIENT))
 80018f2:	2a01      	cmp	r2, #1
 80018f4:	d103      	bne.n	80018fe <Setup0_Process+0xd6>
  {
    /*SET INTERFACE*/
    if (RequestNo == SET_INTERFACE)
 80018f6:	2c0b      	cmp	r4, #11
 80018f8:	d1df      	bne.n	80018ba <Setup0_Process+0x92>
    {
      Result = Standard_SetInterface();
 80018fa:	4b65      	ldr	r3, [pc, #404]	; (8001a90 <Setup0_Process+0x268>)
 80018fc:	e008      	b.n	8001910 <Setup0_Process+0xe8>
    }
  }

  /* EndPoint Request*/
  else if (Type_Recipient == (STANDARD_REQUEST | ENDPOINT_RECIPIENT))
 80018fe:	2a02      	cmp	r2, #2
 8001900:	d1db      	bne.n	80018ba <Setup0_Process+0x92>
  {
    /*CLEAR FEATURE for EndPoint*/
    if (RequestNo == CLEAR_FEATURE)
 8001902:	2c01      	cmp	r4, #1
 8001904:	d101      	bne.n	800190a <Setup0_Process+0xe2>
    {
      Result = Standard_ClearFeature();
 8001906:	4b63      	ldr	r3, [pc, #396]	; (8001a94 <Setup0_Process+0x26c>)
 8001908:	e002      	b.n	8001910 <Setup0_Process+0xe8>
    }
    /* SET FEATURE for EndPoint*/
    else if (RequestNo == SET_FEATURE)
 800190a:	2c03      	cmp	r4, #3
 800190c:	d1d5      	bne.n	80018ba <Setup0_Process+0x92>
    {
      Result = Standard_SetEndPointFeature();
 800190e:	4b62      	ldr	r3, [pc, #392]	; (8001a98 <Setup0_Process+0x270>)
 8001910:	4798      	blx	r3
  {
    Result = USB_UNSUPPORT;
  }


  if (Result != USB_SUCCESS)
 8001912:	b110      	cbz	r0, 800191a <Setup0_Process+0xf2>
 8001914:	e7d1      	b.n	80018ba <Setup0_Process+0x92>
      ControlState = PAUSE;
      goto exit_NoData_Setup0;
    }
  }

  if (Result != USB_SUCCESS)
 8001916:	2800      	cmp	r0, #0
 8001918:	d1be      	bne.n	8001898 <Setup0_Process+0x70>
    goto exit_NoData_Setup0;
  }

  ControlState = WAIT_STATUS_IN;/* After no data stage SETUP */

  USB_StatusIn();
 800191a:	4b56      	ldr	r3, [pc, #344]	; (8001a74 <Setup0_Process+0x24c>)
 800191c:	4a5f      	ldr	r2, [pc, #380]	; (8001a9c <Setup0_Process+0x274>)
 800191e:	6819      	ldr	r1, [r3, #0]
* Output         : None.
* Return         : None.
*******************************************************************************/
void NOP_Process(void)
{
}
 8001920:	b288      	uxth	r0, r1
    goto exit_NoData_Setup0;
  }

  ControlState = WAIT_STATUS_IN;/* After no data stage SETUP */

  USB_StatusIn();
 8001922:	1883      	adds	r3, r0, r2
 8001924:	0059      	lsls	r1, r3, #1
 8001926:	4b5e      	ldr	r3, [pc, #376]	; (8001aa0 <Setup0_Process+0x278>)
 8001928:	2000      	movs	r0, #0
 800192a:	2230      	movs	r2, #48	; 0x30
 800192c:	6008      	str	r0, [r1, #0]
 800192e:	801a      	strh	r2, [r3, #0]
  {
    ControlState = STALLED;
    goto exit_NoData_Setup0;
  }

  ControlState = WAIT_STATUS_IN;/* After no data stage SETUP */
 8001930:	2106      	movs	r1, #6
 8001932:	e000      	b.n	8001936 <Setup0_Process+0x10e>
  if (Result != USB_SUCCESS)
  {
    Result = (*pProperty->Class_NoData_Setup)(RequestNo);
    if (Result == USB_NOT_READY)
    {
      ControlState = PAUSE;
 8001934:	2109      	movs	r1, #9
  ControlState = WAIT_STATUS_IN;/* After no data stage SETUP */

  USB_StatusIn();

exit_NoData_Setup0:
  pInformation->ControlState = ControlState;
 8001936:	4851      	ldr	r0, [pc, #324]	; (8001a7c <Setup0_Process+0x254>)
 8001938:	6802      	ldr	r2, [r0, #0]
 800193a:	7211      	strb	r1, [r2, #8]
 800193c:	e0e0      	b.n	8001b00 <Setup0_Process+0x2d8>

  CopyRoutine = NULL;
  wOffset = 0;

  /*GET DESCRIPTOR*/
  if (Request_No == GET_DESCRIPTOR)
 800193e:	2c06      	cmp	r4, #6
 8001940:	d113      	bne.n	800196a <Setup0_Process+0x142>
  {
    if (Type_Recipient == (STANDARD_REQUEST | DEVICE_RECIPIENT))
 8001942:	781c      	ldrb	r4, [r3, #0]
 8001944:	0661      	lsls	r1, r4, #25
 8001946:	d17b      	bne.n	8001a40 <Setup0_Process+0x218>
    {
      uint8_t wValue1 = pInformation->USBwValue1;
 8001948:	789a      	ldrb	r2, [r3, #2]
 800194a:	4b4f      	ldr	r3, [pc, #316]	; (8001a88 <Setup0_Process+0x260>)
      if (wValue1 == DEVICE_DESCRIPTOR)
 800194c:	2a01      	cmp	r2, #1
 800194e:	d102      	bne.n	8001956 <Setup0_Process+0x12e>
      {
        CopyRoutine = pProperty->GetDeviceDescriptor;
 8001950:	681c      	ldr	r4, [r3, #0]
 8001952:	69e3      	ldr	r3, [r4, #28]
 8001954:	e06a      	b.n	8001a2c <Setup0_Process+0x204>
      }
      else if (wValue1 == CONFIG_DESCRIPTOR)
 8001956:	2a02      	cmp	r2, #2
 8001958:	d102      	bne.n	8001960 <Setup0_Process+0x138>
      {
        CopyRoutine = pProperty->GetConfigDescriptor;
 800195a:	6818      	ldr	r0, [r3, #0]
 800195c:	6a03      	ldr	r3, [r0, #32]
 800195e:	e065      	b.n	8001a2c <Setup0_Process+0x204>
      }
      else if (wValue1 == STRING_DESCRIPTOR)
 8001960:	2a03      	cmp	r2, #3
 8001962:	d16d      	bne.n	8001a40 <Setup0_Process+0x218>
      {
        CopyRoutine = pProperty->GetStringDescriptor;
 8001964:	6819      	ldr	r1, [r3, #0]
 8001966:	6a4b      	ldr	r3, [r1, #36]	; 0x24
 8001968:	e060      	b.n	8001a2c <Setup0_Process+0x204>
      }  /* End of GET_DESCRIPTOR */
    }
  }

  /*GET STATUS*/
  else if ((Request_No == GET_STATUS) && (pInformation->USBwValue == 0)
 800196a:	2c00      	cmp	r4, #0
 800196c:	d13e      	bne.n	80019ec <Setup0_Process+0x1c4>
 800196e:	8859      	ldrh	r1, [r3, #2]
 8001970:	2900      	cmp	r1, #0
 8001972:	d165      	bne.n	8001a40 <Setup0_Process+0x218>
           && (pInformation->USBwLength == 0x0002)
           && (pInformation->USBwIndex1 == 0))
 8001974:	6858      	ldr	r0, [r3, #4]
 8001976:	f420 427f 	bic.w	r2, r0, #65280	; 0xff00
 800197a:	f5b2 3f00 	cmp.w	r2, #131072	; 0x20000
 800197e:	d15f      	bne.n	8001a40 <Setup0_Process+0x218>
  {
    /* GET STATUS for Device*/
    if ((Type_Recipient == (STANDARD_REQUEST | DEVICE_RECIPIENT))
 8001980:	781c      	ldrb	r4, [r3, #0]
 8001982:	f014 007f 	ands.w	r0, r4, #127	; 0x7f
 8001986:	d104      	bne.n	8001992 <Setup0_Process+0x16a>
        && (pInformation->USBwIndex == 0))
 8001988:	8898      	ldrh	r0, [r3, #4]
 800198a:	2800      	cmp	r0, #0
 800198c:	f000 80bb 	beq.w	8001b06 <Setup0_Process+0x2de>
 8001990:	e056      	b.n	8001a40 <Setup0_Process+0x218>
    {
      CopyRoutine = Standard_GetStatus;
    }

    /* GET STATUS for Interface*/
    else if (Type_Recipient == (STANDARD_REQUEST | INTERFACE_RECIPIENT))
 8001992:	2801      	cmp	r0, #1
 8001994:	d10c      	bne.n	80019b0 <Setup0_Process+0x188>
    {
      if (((*pProperty->Class_Get_Interface_Setting)(pInformation->USBwIndex0, 0) == USB_SUCCESS)
 8001996:	4a3c      	ldr	r2, [pc, #240]	; (8001a88 <Setup0_Process+0x260>)
 8001998:	7958      	ldrb	r0, [r3, #5]
 800199a:	6814      	ldr	r4, [r2, #0]
 800199c:	69a2      	ldr	r2, [r4, #24]
 800199e:	4790      	blx	r2
 80019a0:	2800      	cmp	r0, #0
 80019a2:	d14d      	bne.n	8001a40 <Setup0_Process+0x218>
          && (pInformation->Current_Configuration != 0))
 80019a4:	682b      	ldr	r3, [r5, #0]
 80019a6:	7a99      	ldrb	r1, [r3, #10]
 80019a8:	2900      	cmp	r1, #0
 80019aa:	f040 80ac 	bne.w	8001b06 <Setup0_Process+0x2de>
 80019ae:	e047      	b.n	8001a40 <Setup0_Process+0x218>
        CopyRoutine = Standard_GetStatus;
      }
    }

    /* GET STATUS for EndPoint*/
    else if (Type_Recipient == (STANDARD_REQUEST | ENDPOINT_RECIPIENT))
 80019b0:	2802      	cmp	r0, #2
 80019b2:	d145      	bne.n	8001a40 <Setup0_Process+0x218>
    {
      Related_Endpoint = (pInformation->USBwIndex0 & 0x0f);
 80019b4:	795b      	ldrb	r3, [r3, #5]
 80019b6:	f003 010f 	and.w	r1, r3, #15
 80019ba:	ea4f 0281 	mov.w	r2, r1, lsl #2

      if (ValBit(pInformation->USBwIndex0, 7))
      {
        /*Get Status of endpoint & stall the request if the related_ENdpoint
        is Disabled*/
        Status = _GetEPTxStatus(Related_Endpoint);
 80019be:	f102 4480 	add.w	r4, r2, #1073741824	; 0x40000000
 80019c2:	f504 40b8 	add.w	r0, r4, #23552	; 0x5c00
      else
      {
        Status = _GetEPRxStatus(Related_Endpoint);
      }

      if ((Related_Endpoint < Device_Table.Total_Endpoint) && (Reserved == 0)
 80019c6:	4c37      	ldr	r4, [pc, #220]	; (8001aa4 <Setup0_Process+0x27c>)

      if (ValBit(pInformation->USBwIndex0, 7))
      {
        /*Get Status of endpoint & stall the request if the related_ENdpoint
        is Disabled*/
        Status = _GetEPTxStatus(Related_Endpoint);
 80019c8:	6802      	ldr	r2, [r0, #0]
      else
      {
        Status = _GetEPRxStatus(Related_Endpoint);
      }

      if ((Related_Endpoint < Device_Table.Total_Endpoint) && (Reserved == 0)
 80019ca:	7820      	ldrb	r0, [r4, #0]
    else if (Type_Recipient == (STANDARD_REQUEST | ENDPOINT_RECIPIENT))
    {
      Related_Endpoint = (pInformation->USBwIndex0 & 0x0f);
      Reserved = pInformation->USBwIndex0 & 0x70;

      if (ValBit(pInformation->USBwIndex0, 7))
 80019cc:	f013 0f80 	tst.w	r3, #128	; 0x80
      {
        /*Get Status of endpoint & stall the request if the related_ENdpoint
        is Disabled*/
        Status = _GetEPTxStatus(Related_Endpoint);
 80019d0:	bf14      	ite	ne
 80019d2:	f002 0230 	andne.w	r2, r2, #48	; 0x30
      }
      else
      {
        Status = _GetEPRxStatus(Related_Endpoint);
 80019d6:	f402 5240 	andeq.w	r2, r2, #12288	; 0x3000
      }

      if ((Related_Endpoint < Device_Table.Total_Endpoint) && (Reserved == 0)
 80019da:	4281      	cmp	r1, r0
 80019dc:	d230      	bcs.n	8001a40 <Setup0_Process+0x218>
 80019de:	f013 0f70 	tst.w	r3, #112	; 0x70
 80019e2:	d12d      	bne.n	8001a40 <Setup0_Process+0x218>
          && (Status != 0))
 80019e4:	2a00      	cmp	r2, #0
 80019e6:	f040 808e 	bne.w	8001b06 <Setup0_Process+0x2de>
 80019ea:	e029      	b.n	8001a40 <Setup0_Process+0x218>
    }

  }

  /*GET CONFIGURATION*/
  else if (Request_No == GET_CONFIGURATION)
 80019ec:	2c08      	cmp	r4, #8
 80019ee:	d104      	bne.n	80019fa <Setup0_Process+0x1d2>
  {
    if (Type_Recipient == (STANDARD_REQUEST | DEVICE_RECIPIENT))
 80019f0:	7819      	ldrb	r1, [r3, #0]
 80019f2:	064a      	lsls	r2, r1, #25
 80019f4:	f000 8089 	beq.w	8001b0a <Setup0_Process+0x2e2>
 80019f8:	e022      	b.n	8001a40 <Setup0_Process+0x218>
    {
      CopyRoutine = Standard_GetConfiguration;
    }
  }
  /*GET INTERFACE*/
  else if (Request_No == GET_INTERFACE)
 80019fa:	2c0a      	cmp	r4, #10
 80019fc:	d120      	bne.n	8001a40 <Setup0_Process+0x218>
  {
    if ((Type_Recipient == (STANDARD_REQUEST | INTERFACE_RECIPIENT))
 80019fe:	7818      	ldrb	r0, [r3, #0]
 8001a00:	f000 017f 	and.w	r1, r0, #127	; 0x7f
 8001a04:	2901      	cmp	r1, #1
 8001a06:	d11b      	bne.n	8001a40 <Setup0_Process+0x218>
        && (pInformation->Current_Configuration != 0) && (pInformation->USBwValue == 0)
 8001a08:	7a9c      	ldrb	r4, [r3, #10]
 8001a0a:	b1cc      	cbz	r4, 8001a40 <Setup0_Process+0x218>
 8001a0c:	8859      	ldrh	r1, [r3, #2]
 8001a0e:	b9b9      	cbnz	r1, 8001a40 <Setup0_Process+0x218>
        && (pInformation->USBwIndex1 == 0) && (pInformation->USBwLength == 0x0001)
 8001a10:	685a      	ldr	r2, [r3, #4]
 8001a12:	f422 407f 	bic.w	r0, r2, #65280	; 0xff00
 8001a16:	f5b0 3f80 	cmp.w	r0, #65536	; 0x10000
 8001a1a:	d111      	bne.n	8001a40 <Setup0_Process+0x218>
        && ((*pProperty->Class_Get_Interface_Setting)(pInformation->USBwIndex0, 0) == USB_SUCCESS))
 8001a1c:	4c1a      	ldr	r4, [pc, #104]	; (8001a88 <Setup0_Process+0x260>)
 8001a1e:	7958      	ldrb	r0, [r3, #5]
 8001a20:	6822      	ldr	r2, [r4, #0]
 8001a22:	6994      	ldr	r4, [r2, #24]
 8001a24:	47a0      	blx	r4
 8001a26:	2800      	cmp	r0, #0
 8001a28:	d071      	beq.n	8001b0e <Setup0_Process+0x2e6>
 8001a2a:	e009      	b.n	8001a40 <Setup0_Process+0x218>
      CopyRoutine = Standard_GetInterface;
    }

  }
  
  if (CopyRoutine)
 8001a2c:	b143      	cbz	r3, 8001a40 <Setup0_Process+0x218>
  {
    pInformation->Ctrl_Info.Usb_wOffset = wOffset;
 8001a2e:	4813      	ldr	r0, [pc, #76]	; (8001a7c <Setup0_Process+0x254>)
 8001a30:	2400      	movs	r4, #0
 8001a32:	6801      	ldr	r1, [r0, #0]
    pInformation->Ctrl_Info.CopyData = CopyRoutine;
    /* sb in the original the cast to word was directly */
    /* now the cast is made step by step */
    (*CopyRoutine)(0);
 8001a34:	4620      	mov	r0, r4

  }
  
  if (CopyRoutine)
  {
    pInformation->Ctrl_Info.Usb_wOffset = wOffset;
 8001a36:	824c      	strh	r4, [r1, #18]
    pInformation->Ctrl_Info.CopyData = CopyRoutine;
 8001a38:	618b      	str	r3, [r1, #24]
    /* sb in the original the cast to word was directly */
    /* now the cast is made step by step */
    (*CopyRoutine)(0);
 8001a3a:	4798      	blx	r3
    Result = USB_SUCCESS;
 8001a3c:	4620      	mov	r0, r4
 8001a3e:	e00a      	b.n	8001a56 <Setup0_Process+0x22e>
  }
  else
  {
    Result = (*pProperty->Class_Data_Setup)(pInformation->USBbRequest);
 8001a40:	4a11      	ldr	r2, [pc, #68]	; (8001a88 <Setup0_Process+0x260>)
 8001a42:	4c0e      	ldr	r4, [pc, #56]	; (8001a7c <Setup0_Process+0x254>)
 8001a44:	6811      	ldr	r1, [r2, #0]
 8001a46:	6823      	ldr	r3, [r4, #0]
 8001a48:	690a      	ldr	r2, [r1, #16]
 8001a4a:	7858      	ldrb	r0, [r3, #1]
 8001a4c:	4790      	blx	r2
    if (Result == USB_NOT_READY)
 8001a4e:	2803      	cmp	r0, #3
 8001a50:	d101      	bne.n	8001a56 <Setup0_Process+0x22e>
    {
      pInformation->ControlState = PAUSE;
 8001a52:	6823      	ldr	r3, [r4, #0]
 8001a54:	e006      	b.n	8001a64 <Setup0_Process+0x23c>
      return;
    }
  }

  if (pInformation->Ctrl_Info.Usb_wLength == 0xFFFF)
 8001a56:	4b09      	ldr	r3, [pc, #36]	; (8001a7c <Setup0_Process+0x254>)
 8001a58:	f64f 71ff 	movw	r1, #65535	; 0xffff
 8001a5c:	681b      	ldr	r3, [r3, #0]
 8001a5e:	8a1a      	ldrh	r2, [r3, #16]
 8001a60:	428a      	cmp	r2, r1
 8001a62:	d101      	bne.n	8001a68 <Setup0_Process+0x240>
  {
    /* Data is not ready, wait it */
    pInformation->ControlState = PAUSE;
 8001a64:	2109      	movs	r1, #9
 8001a66:	e003      	b.n	8001a70 <Setup0_Process+0x248>
    return;
  }
  if ((Result == USB_UNSUPPORT) || (pInformation->Ctrl_Info.Usb_wLength == 0))
 8001a68:	2802      	cmp	r0, #2
 8001a6a:	d000      	beq.n	8001a6e <Setup0_Process+0x246>
 8001a6c:	b9e2      	cbnz	r2, 8001aa8 <Setup0_Process+0x280>
  {
    /* Unsupported request */
    pInformation->ControlState = STALLED;
 8001a6e:	2108      	movs	r1, #8
 8001a70:	7219      	strb	r1, [r3, #8]
 8001a72:	e045      	b.n	8001b00 <Setup0_Process+0x2d8>
 8001a74:	40005c50 	.word	0x40005c50
 8001a78:	20003004 	.word	0x20003004
 8001a7c:	20001320 	.word	0x20001320
 8001a80:	08001ea5 	.word	0x08001ea5
 8001a84:	080014c9 	.word	0x080014c9
 8001a88:	200012f8 	.word	0x200012f8
 8001a8c:	080016c1 	.word	0x080016c1
 8001a90:	08001501 	.word	0x08001501
 8001a94:	08001549 	.word	0x08001549
 8001a98:	08001635 	.word	0x08001635
 8001a9c:	20003002 	.word	0x20003002
 8001aa0:	20001328 	.word	0x20001328
 8001aa4:	200000e0 	.word	0x200000e0
    return;
  }


  if (ValBit(pInformation->USBbmRequestType, 7))
 8001aa8:	f993 0000 	ldrsb.w	r0, [r3]
 8001aac:	2800      	cmp	r0, #0
 8001aae:	da21      	bge.n	8001af4 <Setup0_Process+0x2cc>
  {
    /* Device ==> Host */
    __IO uint32_t wLength = pInformation->USBwLength;
 8001ab0:	88d9      	ldrh	r1, [r3, #6]
 8001ab2:	9101      	str	r1, [sp, #4]
     
    /* Restrict the data length to be the one host asks for */
    if (pInformation->Ctrl_Info.Usb_wLength > wLength)
 8001ab4:	9801      	ldr	r0, [sp, #4]
 8001ab6:	4282      	cmp	r2, r0
 8001ab8:	d902      	bls.n	8001ac0 <Setup0_Process+0x298>
    {
      pInformation->Ctrl_Info.Usb_wLength = wLength;
 8001aba:	9a01      	ldr	r2, [sp, #4]
 8001abc:	821a      	strh	r2, [r3, #16]
 8001abe:	e011      	b.n	8001ae4 <Setup0_Process+0x2bc>
    }
    
    else if (pInformation->Ctrl_Info.Usb_wLength < pInformation->USBwLength)
 8001ac0:	428a      	cmp	r2, r1
 8001ac2:	d20f      	bcs.n	8001ae4 <Setup0_Process+0x2bc>
    {
      if (pInformation->Ctrl_Info.Usb_wLength < pProperty->MaxPacketSize)
 8001ac4:	4913      	ldr	r1, [pc, #76]	; (8001b14 <Setup0_Process+0x2ec>)
 8001ac6:	6808      	ldr	r0, [r1, #0]
 8001ac8:	f890 102c 	ldrb.w	r1, [r0, #44]	; 0x2c
 8001acc:	428a      	cmp	r2, r1
 8001ace:	d201      	bcs.n	8001ad4 <Setup0_Process+0x2ac>
      {
        Data_Mul_MaxPacketSize = FALSE;
 8001ad0:	2100      	movs	r1, #0
 8001ad2:	e005      	b.n	8001ae0 <Setup0_Process+0x2b8>
      }
      else if ((pInformation->Ctrl_Info.Usb_wLength % pProperty->MaxPacketSize) == 0)
 8001ad4:	fb92 f0f1 	sdiv	r0, r2, r1
 8001ad8:	fb01 2210 	mls	r2, r1, r0, r2
 8001adc:	b912      	cbnz	r2, 8001ae4 <Setup0_Process+0x2bc>
      {
        Data_Mul_MaxPacketSize = TRUE;
 8001ade:	2101      	movs	r1, #1
 8001ae0:	480d      	ldr	r0, [pc, #52]	; (8001b18 <Setup0_Process+0x2f0>)
 8001ae2:	7001      	strb	r1, [r0, #0]
      }
    }   

    pInformation->Ctrl_Info.PacketSize = pProperty->MaxPacketSize;
 8001ae4:	490b      	ldr	r1, [pc, #44]	; (8001b14 <Setup0_Process+0x2ec>)
 8001ae6:	6808      	ldr	r0, [r1, #0]
 8001ae8:	f890 202c 	ldrb.w	r2, [r0, #44]	; 0x2c
 8001aec:	829a      	strh	r2, [r3, #20]
    DataStageIn();
 8001aee:	4b0b      	ldr	r3, [pc, #44]	; (8001b1c <Setup0_Process+0x2f4>)
 8001af0:	4798      	blx	r3
 8001af2:	e005      	b.n	8001b00 <Setup0_Process+0x2d8>
  }
  else
  {
    pInformation->ControlState = OUT_DATA;
 8001af4:	2203      	movs	r2, #3
 8001af6:	721a      	strb	r2, [r3, #8]
    vSetEPRxStatus(EP_RX_VALID); /* enable for next data reception */
 8001af8:	4b09      	ldr	r3, [pc, #36]	; (8001b20 <Setup0_Process+0x2f8>)
 8001afa:	f44f 5140 	mov.w	r1, #12288	; 0x3000
 8001afe:	8019      	strh	r1, [r3, #0]
  else
  {
    /* Setup with data stage */
    Data_Setup0();
  }
  return Post0_Process();
 8001b00:	4b08      	ldr	r3, [pc, #32]	; (8001b24 <Setup0_Process+0x2fc>)
 8001b02:	4798      	blx	r3
}
 8001b04:	bdfe      	pop	{r1, r2, r3, r4, r5, r6, r7, pc}
  {
    /* GET STATUS for Device*/
    if ((Type_Recipient == (STANDARD_REQUEST | DEVICE_RECIPIENT))
        && (pInformation->USBwIndex == 0))
    {
      CopyRoutine = Standard_GetStatus;
 8001b06:	4b08      	ldr	r3, [pc, #32]	; (8001b28 <Setup0_Process+0x300>)
 8001b08:	e791      	b.n	8001a2e <Setup0_Process+0x206>
  /*GET CONFIGURATION*/
  else if (Request_No == GET_CONFIGURATION)
  {
    if (Type_Recipient == (STANDARD_REQUEST | DEVICE_RECIPIENT))
    {
      CopyRoutine = Standard_GetConfiguration;
 8001b0a:	4b08      	ldr	r3, [pc, #32]	; (8001b2c <Setup0_Process+0x304>)
 8001b0c:	e78f      	b.n	8001a2e <Setup0_Process+0x206>
    if ((Type_Recipient == (STANDARD_REQUEST | INTERFACE_RECIPIENT))
        && (pInformation->Current_Configuration != 0) && (pInformation->USBwValue == 0)
        && (pInformation->USBwIndex1 == 0) && (pInformation->USBwLength == 0x0001)
        && ((*pProperty->Class_Get_Interface_Setting)(pInformation->USBwIndex0, 0) == USB_SUCCESS))
    {
      CopyRoutine = Standard_GetInterface;
 8001b0e:	4b08      	ldr	r3, [pc, #32]	; (8001b30 <Setup0_Process+0x308>)
 8001b10:	e78d      	b.n	8001a2e <Setup0_Process+0x206>
 8001b12:	bf00      	nop
 8001b14:	200012f8 	.word	0x200012f8
 8001b18:	200002c8 	.word	0x200002c8
 8001b1c:	08001419 	.word	0x08001419
 8001b20:	20001326 	.word	0x20001326
 8001b24:	08001701 	.word	0x08001701
 8001b28:	0800137d 	.word	0x0800137d
 8001b2c:	08001335 	.word	0x08001335
 8001b30:	08001359 	.word	0x08001359

08001b34 <SetDeviceAddress>:
* Input          : - Val: device address.
* Output         : None.
* Return         : None.
*******************************************************************************/
void SetDeviceAddress(uint8_t Val)
{
 8001b34:	b570      	push	{r4, r5, r6, lr}
  uint32_t i;
  uint32_t nEP = Device_Table.Total_Endpoint;
 8001b36:	4b0d      	ldr	r3, [pc, #52]	; (8001b6c <SetDeviceAddress+0x38>)
 8001b38:	781c      	ldrb	r4, [r3, #0]

  /* set address in every used endpoint */
  for (i = 0; i < nEP; i++)
 8001b3a:	2300      	movs	r3, #0
 8001b3c:	42a3      	cmp	r3, r4
 8001b3e:	d210      	bcs.n	8001b62 <SetDeviceAddress+0x2e>
* Description    : Set the device and all the used Endpoints addresses.
* Input          : - Val: device address.
* Output         : None.
* Return         : None.
*******************************************************************************/
void SetDeviceAddress(uint8_t Val)
 8001b40:	f103 5280 	add.w	r2, r3, #268435456	; 0x10000000
 8001b44:	f502 55b8 	add.w	r5, r2, #5888	; 0x1700
 8001b48:	00a9      	lsls	r1, r5, #2
  uint32_t nEP = Device_Table.Total_Endpoint;

  /* set address in every used endpoint */
  for (i = 0; i < nEP; i++)
  {
    _SetEPAddress((uint8_t)i, (uint8_t)i);
 8001b4a:	f443 4200 	orr.w	r2, r3, #32768	; 0x8000
 8001b4e:	680e      	ldr	r6, [r1, #0]
 8001b50:	f042 0580 	orr.w	r5, r2, #128	; 0x80
 8001b54:	f640 720f 	movw	r2, #3855	; 0xf0f
 8001b58:	4032      	ands	r2, r6
 8001b5a:	432a      	orrs	r2, r5
 8001b5c:	600a      	str	r2, [r1, #0]
{
  uint32_t i;
  uint32_t nEP = Device_Table.Total_Endpoint;

  /* set address in every used endpoint */
  for (i = 0; i < nEP; i++)
 8001b5e:	3301      	adds	r3, #1
 8001b60:	e7ec      	b.n	8001b3c <SetDeviceAddress+0x8>
  {
    _SetEPAddress((uint8_t)i, (uint8_t)i);
  } /* for */
  _SetDADDR(Val | DADDR_EF); /* set device address and enable function */ 
 8001b62:	4903      	ldr	r1, [pc, #12]	; (8001b70 <SetDeviceAddress+0x3c>)
 8001b64:	f040 0080 	orr.w	r0, r0, #128	; 0x80
 8001b68:	6008      	str	r0, [r1, #0]
 8001b6a:	bd70      	pop	{r4, r5, r6, pc}
 8001b6c:	200000e0 	.word	0x200000e0
 8001b70:	40005c4c 	.word	0x40005c4c

08001b74 <In0_Process>:
* Input          : None.
* Output         : None.
* Return         : Post0_Process.
*******************************************************************************/
uint8_t In0_Process(void)
{
 8001b74:	b510      	push	{r4, lr}
  uint32_t ControlState = pInformation->ControlState;
 8001b76:	4913      	ldr	r1, [pc, #76]	; (8001bc4 <In0_Process+0x50>)
 8001b78:	680b      	ldr	r3, [r1, #0]
 8001b7a:	460c      	mov	r4, r1
 8001b7c:	7a1a      	ldrb	r2, [r3, #8]

  if ((ControlState == IN_DATA) || (ControlState == LAST_IN_DATA))
 8001b7e:	2a02      	cmp	r2, #2
 8001b80:	d001      	beq.n	8001b86 <In0_Process+0x12>
 8001b82:	2a04      	cmp	r2, #4
 8001b84:	d104      	bne.n	8001b90 <In0_Process+0x1c>
  {
    DataStageIn();
 8001b86:	4b10      	ldr	r3, [pc, #64]	; (8001bc8 <In0_Process+0x54>)
 8001b88:	4798      	blx	r3
    /* ControlState may be changed outside the function */
    ControlState = pInformation->ControlState;
 8001b8a:	6822      	ldr	r2, [r4, #0]
 8001b8c:	7a11      	ldrb	r1, [r2, #8]
 8001b8e:	e013      	b.n	8001bb8 <In0_Process+0x44>
  }

  else if (ControlState == WAIT_STATUS_IN)
 8001b90:	2a06      	cmp	r2, #6
 8001b92:	d110      	bne.n	8001bb6 <In0_Process+0x42>
  {
    if ((pInformation->USBbRequest == SET_ADDRESS) &&
 8001b94:	7858      	ldrb	r0, [r3, #1]
 8001b96:	2805      	cmp	r0, #5
 8001b98:	d109      	bne.n	8001bae <In0_Process+0x3a>
        (Type_Recipient == (STANDARD_REQUEST | DEVICE_RECIPIENT)))
 8001b9a:	7819      	ldrb	r1, [r3, #0]
    ControlState = pInformation->ControlState;
  }

  else if (ControlState == WAIT_STATUS_IN)
  {
    if ((pInformation->USBbRequest == SET_ADDRESS) &&
 8001b9c:	0648      	lsls	r0, r1, #25
 8001b9e:	d106      	bne.n	8001bae <In0_Process+0x3a>
        (Type_Recipient == (STANDARD_REQUEST | DEVICE_RECIPIENT)))
    {
      SetDeviceAddress(pInformation->USBwValue0);
 8001ba0:	78d8      	ldrb	r0, [r3, #3]
 8001ba2:	4b0a      	ldr	r3, [pc, #40]	; (8001bcc <In0_Process+0x58>)
 8001ba4:	4798      	blx	r3
      pUser_Standard_Requests->User_SetDeviceAddress();
 8001ba6:	4a0a      	ldr	r2, [pc, #40]	; (8001bd0 <In0_Process+0x5c>)
 8001ba8:	6810      	ldr	r0, [r2, #0]
 8001baa:	6a01      	ldr	r1, [r0, #32]
 8001bac:	4788      	blx	r1
    }
    (*pProperty->Process_Status_IN)();
 8001bae:	4b09      	ldr	r3, [pc, #36]	; (8001bd4 <In0_Process+0x60>)
 8001bb0:	681a      	ldr	r2, [r3, #0]
 8001bb2:	6890      	ldr	r0, [r2, #8]
 8001bb4:	4780      	blx	r0
    ControlState = STALLED;
  }

  else
  {
    ControlState = STALLED;
 8001bb6:	2108      	movs	r1, #8
  }

  pInformation->ControlState = ControlState;
 8001bb8:	4802      	ldr	r0, [pc, #8]	; (8001bc4 <In0_Process+0x50>)
 8001bba:	6803      	ldr	r3, [r0, #0]
 8001bbc:	7219      	strb	r1, [r3, #8]

  return Post0_Process();
 8001bbe:	4906      	ldr	r1, [pc, #24]	; (8001bd8 <In0_Process+0x64>)
 8001bc0:	4788      	blx	r1
}
 8001bc2:	bd10      	pop	{r4, pc}
 8001bc4:	20001320 	.word	0x20001320
 8001bc8:	08001419 	.word	0x08001419
 8001bcc:	08001b35 	.word	0x08001b35
 8001bd0:	2000131c 	.word	0x2000131c
 8001bd4:	200012f8 	.word	0x200012f8
 8001bd8:	08001701 	.word	0x08001701

08001bdc <NOP_Process>:
* Input          : None.
* Output         : None.
* Return         : None.
*******************************************************************************/
void NOP_Process(void)
{
 8001bdc:	4770      	bx	lr
	...

08001be0 <USB_Init>:
* Input          : None.
* Output         : None.
* Return         : None.
*******************************************************************************/
void USB_Init(void)
{
 8001be0:	b508      	push	{r3, lr}
  pInformation = &Device_Info;
 8001be2:	4a07      	ldr	r2, [pc, #28]	; (8001c00 <USB_Init+0x20>)
 8001be4:	4b07      	ldr	r3, [pc, #28]	; (8001c04 <USB_Init+0x24>)
  pInformation->ControlState = 2;
 8001be6:	2002      	movs	r0, #2
* Output         : None.
* Return         : None.
*******************************************************************************/
void USB_Init(void)
{
  pInformation = &Device_Info;
 8001be8:	6013      	str	r3, [r2, #0]
  pInformation->ControlState = 2;
 8001bea:	7218      	strb	r0, [r3, #8]
  pProperty = &Device_Property;
 8001bec:	4906      	ldr	r1, [pc, #24]	; (8001c08 <USB_Init+0x28>)
 8001bee:	4b07      	ldr	r3, [pc, #28]	; (8001c0c <USB_Init+0x2c>)
  pUser_Standard_Requests = &User_Standard_Requests;
 8001bf0:	4807      	ldr	r0, [pc, #28]	; (8001c10 <USB_Init+0x30>)
 8001bf2:	4a08      	ldr	r2, [pc, #32]	; (8001c14 <USB_Init+0x34>)
*******************************************************************************/
void USB_Init(void)
{
  pInformation = &Device_Info;
  pInformation->ControlState = 2;
  pProperty = &Device_Property;
 8001bf4:	600b      	str	r3, [r1, #0]
  pUser_Standard_Requests = &User_Standard_Requests;
 8001bf6:	6010      	str	r0, [r2, #0]
  /* Initialize devices one by one */
  pProperty->Init();
 8001bf8:	681b      	ldr	r3, [r3, #0]
 8001bfa:	4798      	blx	r3
 8001bfc:	bd08      	pop	{r3, pc}
 8001bfe:	bf00      	nop
 8001c00:	20001320 	.word	0x20001320
 8001c04:	20001300 	.word	0x20001300
 8001c08:	200012f8 	.word	0x200012f8
 8001c0c:	2000005c 	.word	0x2000005c
 8001c10:	2000008c 	.word	0x2000008c
 8001c14:	2000131c 	.word	0x2000131c

08001c18 <UserToPMABufferCopy>:
*                  - wNBytes: no. of bytes to be copied.
* Output         : None.
* Return         : None	.
*******************************************************************************/
void UserToPMABufferCopy(uint8_t *pbUsrBuf, uint16_t wPMABufAddr, uint16_t wNBytes)
{
 8001c18:	b530      	push	{r4, r5, lr}
  uint32_t n = (wNBytes + 1) >> 1;   /* n = (wNBytes + 1) / 2 */
  uint32_t i, temp1, temp2;
  uint16_t *pdwVal;
  pdwVal = (uint16_t *)(wPMABufAddr * 2 + PMAAddr);
 8001c1a:	f101 5100 	add.w	r1, r1, #536870912	; 0x20000000
 8001c1e:	f501 5340 	add.w	r3, r1, #12288	; 0x3000
* Output         : None.
* Return         : None	.
*******************************************************************************/
void UserToPMABufferCopy(uint8_t *pbUsrBuf, uint16_t wPMABufAddr, uint16_t wNBytes)
{
  uint32_t n = (wNBytes + 1) >> 1;   /* n = (wNBytes + 1) / 2 */
 8001c22:	3201      	adds	r2, #1
  uint32_t i, temp1, temp2;
  uint16_t *pdwVal;
  pdwVal = (uint16_t *)(wPMABufAddr * 2 + PMAAddr);
 8001c24:	0059      	lsls	r1, r3, #1
* Output         : None.
* Return         : None	.
*******************************************************************************/
void UserToPMABufferCopy(uint8_t *pbUsrBuf, uint16_t wPMABufAddr, uint16_t wNBytes)
{
  uint32_t n = (wNBytes + 1) >> 1;   /* n = (wNBytes + 1) / 2 */
 8001c26:	1052      	asrs	r2, r2, #1
  uint32_t i, temp1, temp2;
  uint16_t *pdwVal;
  pdwVal = (uint16_t *)(wPMABufAddr * 2 + PMAAddr);
  for (i = n; i != 0; i--)
 8001c28:	2300      	movs	r3, #0
 8001c2a:	3002      	adds	r0, #2
 8001c2c:	4293      	cmp	r3, r2
 8001c2e:	d009      	beq.n	8001c44 <UserToPMABufferCopy+0x2c>
  {
    temp1 = (uint16_t) * pbUsrBuf;
    pbUsrBuf++;
    temp2 = temp1 | (uint16_t) * pbUsrBuf << 8;
 8001c30:	f810 5c01 	ldrb.w	r5, [r0, #-1]
  uint32_t i, temp1, temp2;
  uint16_t *pdwVal;
  pdwVal = (uint16_t *)(wPMABufAddr * 2 + PMAAddr);
  for (i = n; i != 0; i--)
  {
    temp1 = (uint16_t) * pbUsrBuf;
 8001c34:	f810 4c02 	ldrb.w	r4, [r0, #-2]
    pbUsrBuf++;
    temp2 = temp1 | (uint16_t) * pbUsrBuf << 8;
 8001c38:	ea44 2405 	orr.w	r4, r4, r5, lsl #8
    *pdwVal++ = temp2;
 8001c3c:	f821 4023 	strh.w	r4, [r1, r3, lsl #2]
 8001c40:	3301      	adds	r3, #1
 8001c42:	e7f2      	b.n	8001c2a <UserToPMABufferCopy+0x12>
    pdwVal++;
    pbUsrBuf++;
  }
}
 8001c44:	bd30      	pop	{r4, r5, pc}

08001c46 <PMAToUserBufferCopy>:
void PMAToUserBufferCopy(uint8_t *pbUsrBuf, uint16_t wPMABufAddr, uint16_t wNBytes)
{
  uint32_t n = (wNBytes + 1) >> 1;/* /2*/
  uint32_t i;
  uint32_t *pdwVal;
  pdwVal = (uint32_t *)(wPMABufAddr * 2 + PMAAddr);
 8001c46:	f101 5100 	add.w	r1, r1, #536870912	; 0x20000000
*                  - wNBytes     = no. of bytes to be copied.
* Output         : None.
* Return         : None.
*******************************************************************************/
void PMAToUserBufferCopy(uint8_t *pbUsrBuf, uint16_t wPMABufAddr, uint16_t wNBytes)
{
 8001c4a:	b510      	push	{r4, lr}
  uint32_t n = (wNBytes + 1) >> 1;/* /2*/
 8001c4c:	3201      	adds	r2, #1
  uint32_t i;
  uint32_t *pdwVal;
  pdwVal = (uint32_t *)(wPMABufAddr * 2 + PMAAddr);
 8001c4e:	f501 5440 	add.w	r4, r1, #12288	; 0x3000
* Output         : None.
* Return         : None.
*******************************************************************************/
void PMAToUserBufferCopy(uint8_t *pbUsrBuf, uint16_t wPMABufAddr, uint16_t wNBytes)
{
  uint32_t n = (wNBytes + 1) >> 1;/* /2*/
 8001c52:	1052      	asrs	r2, r2, #1
  uint32_t i;
  uint32_t *pdwVal;
  pdwVal = (uint32_t *)(wPMABufAddr * 2 + PMAAddr);
 8001c54:	0064      	lsls	r4, r4, #1
  for (i = n; i != 0; i--)
 8001c56:	2300      	movs	r3, #0
 8001c58:	4293      	cmp	r3, r2
 8001c5a:	d005      	beq.n	8001c68 <PMAToUserBufferCopy+0x22>
  {
    *(uint16_t*)pbUsrBuf++ = *pdwVal++;
 8001c5c:	f854 1023 	ldr.w	r1, [r4, r3, lsl #2]
 8001c60:	f820 1013 	strh.w	r1, [r0, r3, lsl #1]
 8001c64:	3301      	adds	r3, #1
 8001c66:	e7f7      	b.n	8001c58 <PMAToUserBufferCopy+0x12>
    pbUsrBuf++;
  }
}
 8001c68:	bd10      	pop	{r4, pc}
	...

08001c6c <SetBTABLE>:
* Output         : None.
* Return         : None.
*******************************************************************************/
void SetBTABLE(uint16_t wRegValue)
{
  _SetBTABLE(wRegValue);
 8001c6c:	f64f 73f8 	movw	r3, #65528	; 0xfff8
 8001c70:	4a01      	ldr	r2, [pc, #4]	; (8001c78 <SetBTABLE+0xc>)
 8001c72:	4003      	ands	r3, r0
 8001c74:	6013      	str	r3, [r2, #0]
 8001c76:	4770      	bx	lr
 8001c78:	40005c50 	.word	0x40005c50

08001c7c <SetEPType>:
* Output         : None.
* Return         : None.
*******************************************************************************/
void SetEPType(uint8_t bEpNum, uint16_t wType)
{
  _SetEPType(bEpNum, wType);
 8001c7c:	0080      	lsls	r0, r0, #2
 8001c7e:	f100 4280 	add.w	r2, r0, #1073741824	; 0x40000000
 8001c82:	f502 42b8 	add.w	r2, r2, #23552	; 0x5c00
 8001c86:	6810      	ldr	r0, [r2, #0]
 8001c88:	f648 138f 	movw	r3, #35215	; 0x898f
 8001c8c:	4003      	ands	r3, r0
 8001c8e:	4319      	orrs	r1, r3
 8001c90:	6011      	str	r1, [r2, #0]
 8001c92:	4770      	bx	lr

08001c94 <SetEPTxStatus>:
* Output         : None.
* Return         : None.
*******************************************************************************/
void SetEPTxStatus(uint8_t bEpNum, uint16_t wState)
{
  _SetEPTxStatus(bEpNum, wState);
 8001c94:	0080      	lsls	r0, r0, #2
 8001c96:	f100 4280 	add.w	r2, r0, #1073741824	; 0x40000000
 8001c9a:	f502 42b8 	add.w	r2, r2, #23552	; 0x5c00
 8001c9e:	6810      	ldr	r0, [r2, #0]
 8001ca0:	f648 73bf 	movw	r3, #36799	; 0x8fbf
 8001ca4:	4003      	ands	r3, r0
 8001ca6:	f001 0010 	and.w	r0, r1, #16
 8001caa:	b280      	uxth	r0, r0
 8001cac:	b908      	cbnz	r0, 8001cb2 <SetEPTxStatus+0x1e>
 8001cae:	b29b      	uxth	r3, r3
 8001cb0:	e001      	b.n	8001cb6 <SetEPTxStatus+0x22>
 8001cb2:	f083 0310 	eor.w	r3, r3, #16
 8001cb6:	f001 0120 	and.w	r1, r1, #32
 8001cba:	b288      	uxth	r0, r1
 8001cbc:	b108      	cbz	r0, 8001cc2 <SetEPTxStatus+0x2e>
 8001cbe:	f083 0320 	eor.w	r3, r3, #32
 8001cc2:	f443 4100 	orr.w	r1, r3, #32768	; 0x8000
 8001cc6:	f041 0080 	orr.w	r0, r1, #128	; 0x80
 8001cca:	6010      	str	r0, [r2, #0]
 8001ccc:	4770      	bx	lr

08001cce <SetEPRxStatus>:
* Output         : None.
* Return         : None.
*******************************************************************************/
void SetEPRxStatus(uint8_t bEpNum, uint16_t wState)
{
  _SetEPRxStatus(bEpNum, wState);
 8001cce:	0080      	lsls	r0, r0, #2
 8001cd0:	f100 4280 	add.w	r2, r0, #1073741824	; 0x40000000
 8001cd4:	f502 42b8 	add.w	r2, r2, #23552	; 0x5c00
 8001cd8:	6810      	ldr	r0, [r2, #0]
 8001cda:	f64b 738f 	movw	r3, #49039	; 0xbf8f
 8001cde:	4003      	ands	r3, r0
 8001ce0:	f401 5080 	and.w	r0, r1, #4096	; 0x1000
 8001ce4:	b280      	uxth	r0, r0
 8001ce6:	b908      	cbnz	r0, 8001cec <SetEPRxStatus+0x1e>
 8001ce8:	b29b      	uxth	r3, r3
 8001cea:	e001      	b.n	8001cf0 <SetEPRxStatus+0x22>
 8001cec:	f483 5380 	eor.w	r3, r3, #4096	; 0x1000
 8001cf0:	f401 5100 	and.w	r1, r1, #8192	; 0x2000
 8001cf4:	b288      	uxth	r0, r1
 8001cf6:	b108      	cbz	r0, 8001cfc <SetEPRxStatus+0x2e>
 8001cf8:	f483 5300 	eor.w	r3, r3, #8192	; 0x2000
 8001cfc:	f443 4100 	orr.w	r1, r3, #32768	; 0x8000
 8001d00:	f041 0080 	orr.w	r0, r1, #128	; 0x80
 8001d04:	6010      	str	r0, [r2, #0]
 8001d06:	4770      	bx	lr

08001d08 <SetEPTxValid>:
* Output         : None.
* Return         : None.
*******************************************************************************/
void SetEPTxValid(uint8_t bEpNum)
{
  _SetEPTxStatus(bEpNum, EP_TX_VALID);
 8001d08:	0080      	lsls	r0, r0, #2
 8001d0a:	f100 4280 	add.w	r2, r0, #1073741824	; 0x40000000
 8001d0e:	f502 40b8 	add.w	r0, r2, #23552	; 0x5c00
 8001d12:	6801      	ldr	r1, [r0, #0]
 8001d14:	f648 73bf 	movw	r3, #36799	; 0x8fbf
 8001d18:	400b      	ands	r3, r1
 8001d1a:	f083 0230 	eor.w	r2, r3, #48	; 0x30
 8001d1e:	f442 4100 	orr.w	r1, r2, #32768	; 0x8000
 8001d22:	f041 0380 	orr.w	r3, r1, #128	; 0x80
 8001d26:	6003      	str	r3, [r0, #0]
 8001d28:	4770      	bx	lr

08001d2a <SetEPRxValid>:
* Output         : None.
* Return         : None.
*******************************************************************************/
void SetEPRxValid(uint8_t bEpNum)
{
  _SetEPRxStatus(bEpNum, EP_RX_VALID);
 8001d2a:	0080      	lsls	r0, r0, #2
 8001d2c:	f100 4280 	add.w	r2, r0, #1073741824	; 0x40000000
 8001d30:	f502 40b8 	add.w	r0, r2, #23552	; 0x5c00
 8001d34:	6801      	ldr	r1, [r0, #0]
 8001d36:	f64b 738f 	movw	r3, #49039	; 0xbf8f
 8001d3a:	400b      	ands	r3, r1
 8001d3c:	f483 5240 	eor.w	r2, r3, #12288	; 0x3000
 8001d40:	f442 4100 	orr.w	r1, r2, #32768	; 0x8000
 8001d44:	f041 0380 	orr.w	r3, r1, #128	; 0x80
 8001d48:	6003      	str	r3, [r0, #0]
 8001d4a:	4770      	bx	lr

08001d4c <Clear_Status_Out>:
* Output         : None.
* Return         : None.
*******************************************************************************/
void Clear_Status_Out(uint8_t bEpNum)
{
  _ClearEP_KIND(bEpNum);
 8001d4c:	0080      	lsls	r0, r0, #2
 8001d4e:	f100 4280 	add.w	r2, r0, #1073741824	; 0x40000000
 8001d52:	f502 40b8 	add.w	r0, r2, #23552	; 0x5c00
 8001d56:	6801      	ldr	r1, [r0, #0]
 8001d58:	f640 630f 	movw	r3, #3599	; 0xe0f
 8001d5c:	400b      	ands	r3, r1
 8001d5e:	f443 4200 	orr.w	r2, r3, #32768	; 0x8000
 8001d62:	f042 0180 	orr.w	r1, r2, #128	; 0x80
 8001d66:	6001      	str	r1, [r0, #0]
 8001d68:	4770      	bx	lr

08001d6a <ClearDTOG_RX>:
* Output         : None.
* Return         : None.
*******************************************************************************/
void ClearDTOG_RX(uint8_t bEpNum)
{
  _ClearDTOG_RX(bEpNum);
 8001d6a:	0080      	lsls	r0, r0, #2
 8001d6c:	f100 4380 	add.w	r3, r0, #1073741824	; 0x40000000
 8001d70:	f503 40b8 	add.w	r0, r3, #23552	; 0x5c00
 8001d74:	6802      	ldr	r2, [r0, #0]
 8001d76:	0451      	lsls	r1, r2, #17
 8001d78:	d508      	bpl.n	8001d8c <ClearDTOG_RX+0x22>
 8001d7a:	6801      	ldr	r1, [r0, #0]
 8001d7c:	f640 730f 	movw	r3, #3855	; 0xf0f
 8001d80:	400b      	ands	r3, r1
 8001d82:	f443 4240 	orr.w	r2, r3, #49152	; 0xc000
 8001d86:	f042 0180 	orr.w	r1, r2, #128	; 0x80
 8001d8a:	6001      	str	r1, [r0, #0]
 8001d8c:	4770      	bx	lr

08001d8e <ClearDTOG_TX>:
* Output         : None.
* Return         : None.
*******************************************************************************/
void ClearDTOG_TX(uint8_t bEpNum)
{
  _ClearDTOG_TX(bEpNum);
 8001d8e:	0080      	lsls	r0, r0, #2
 8001d90:	f100 4380 	add.w	r3, r0, #1073741824	; 0x40000000
 8001d94:	f503 43b8 	add.w	r3, r3, #23552	; 0x5c00
 8001d98:	681a      	ldr	r2, [r3, #0]
 8001d9a:	0650      	lsls	r0, r2, #25
 8001d9c:	d508      	bpl.n	8001db0 <ClearDTOG_TX+0x22>
 8001d9e:	6819      	ldr	r1, [r3, #0]
 8001da0:	f640 700f 	movw	r0, #3855	; 0xf0f
 8001da4:	4008      	ands	r0, r1
 8001da6:	f440 4200 	orr.w	r2, r0, #32768	; 0x8000
 8001daa:	f042 01c0 	orr.w	r1, r2, #192	; 0xc0
 8001dae:	6019      	str	r1, [r3, #0]
 8001db0:	4770      	bx	lr
	...

08001db4 <SetEPTxAddr>:
* Output         : None.
* Return         : None.
*******************************************************************************/
void SetEPTxAddr(uint8_t bEpNum, uint16_t wAddr)
{
  _SetEPTxAddr(bEpNum, wAddr);
 8001db4:	4b06      	ldr	r3, [pc, #24]	; (8001dd0 <SetEPTxAddr+0x1c>)
 8001db6:	0849      	lsrs	r1, r1, #1
 8001db8:	681a      	ldr	r2, [r3, #0]
  uint8_t bTemp;
  uint16_t wRet;
  bTemp = (uint8_t)(wSwW & 0xff);
  wRet =  (wSwW >> 8) | ((uint16_t)bTemp << 8);
  return(wRet);
}
 8001dba:	b293      	uxth	r3, r2
* Output         : None.
* Return         : None.
*******************************************************************************/
void SetEPTxAddr(uint8_t bEpNum, uint16_t wAddr)
{
  _SetEPTxAddr(bEpNum, wAddr);
 8001dbc:	eb03 00c0 	add.w	r0, r3, r0, lsl #3
 8001dc0:	f100 5200 	add.w	r2, r0, #536870912	; 0x20000000
 8001dc4:	f502 5340 	add.w	r3, r2, #12288	; 0x3000
 8001dc8:	0058      	lsls	r0, r3, #1
 8001dca:	004a      	lsls	r2, r1, #1
 8001dcc:	6002      	str	r2, [r0, #0]
 8001dce:	4770      	bx	lr
 8001dd0:	40005c50 	.word	0x40005c50

08001dd4 <SetEPRxAddr>:
* Output         : None.
* Return         : None.
*******************************************************************************/
void SetEPRxAddr(uint8_t bEpNum, uint16_t wAddr)
{
  _SetEPRxAddr(bEpNum, wAddr);
 8001dd4:	4b05      	ldr	r3, [pc, #20]	; (8001dec <SetEPRxAddr+0x18>)
 8001dd6:	0849      	lsrs	r1, r1, #1
 8001dd8:	681a      	ldr	r2, [r3, #0]
  uint8_t bTemp;
  uint16_t wRet;
  bTemp = (uint8_t)(wSwW & 0xff);
  wRet =  (wSwW >> 8) | ((uint16_t)bTemp << 8);
  return(wRet);
}
 8001dda:	b293      	uxth	r3, r2
* Output         : None.
* Return         : None.
*******************************************************************************/
void SetEPRxAddr(uint8_t bEpNum, uint16_t wAddr)
{
  _SetEPRxAddr(bEpNum, wAddr);
 8001ddc:	4a04      	ldr	r2, [pc, #16]	; (8001df0 <SetEPRxAddr+0x1c>)
 8001dde:	eb03 00c0 	add.w	r0, r3, r0, lsl #3
 8001de2:	1883      	adds	r3, r0, r2
 8001de4:	0058      	lsls	r0, r3, #1
 8001de6:	004a      	lsls	r2, r1, #1
 8001de8:	6002      	str	r2, [r0, #0]
 8001dea:	4770      	bx	lr
 8001dec:	40005c50 	.word	0x40005c50
 8001df0:	20003004 	.word	0x20003004

08001df4 <GetEPTxAddr>:
* Output         : None.
* Return         : Rx buffer address. 
*******************************************************************************/
uint16_t GetEPTxAddr(uint8_t bEpNum)
{
  return(_GetEPTxAddr(bEpNum));
 8001df4:	4b05      	ldr	r3, [pc, #20]	; (8001e0c <GetEPTxAddr+0x18>)
 8001df6:	6819      	ldr	r1, [r3, #0]
  uint8_t bTemp;
  uint16_t wRet;
  bTemp = (uint8_t)(wSwW & 0xff);
  wRet =  (wSwW >> 8) | ((uint16_t)bTemp << 8);
  return(wRet);
}
 8001df8:	b28a      	uxth	r2, r1
* Output         : None.
* Return         : Rx buffer address. 
*******************************************************************************/
uint16_t GetEPTxAddr(uint8_t bEpNum)
{
  return(_GetEPTxAddr(bEpNum));
 8001dfa:	eb02 00c0 	add.w	r0, r2, r0, lsl #3
 8001dfe:	f100 5300 	add.w	r3, r0, #536870912	; 0x20000000
 8001e02:	f503 5140 	add.w	r1, r3, #12288	; 0x3000
 8001e06:	004a      	lsls	r2, r1, #1
}
 8001e08:	8810      	ldrh	r0, [r2, #0]
 8001e0a:	4770      	bx	lr
 8001e0c:	40005c50 	.word	0x40005c50

08001e10 <GetEPRxAddr>:
* Output         : None.
* Return         : Rx buffer address.
*******************************************************************************/
uint16_t GetEPRxAddr(uint8_t bEpNum)
{
  return(_GetEPRxAddr(bEpNum));
 8001e10:	4b04      	ldr	r3, [pc, #16]	; (8001e24 <GetEPRxAddr+0x14>)
 8001e12:	6819      	ldr	r1, [r3, #0]
 8001e14:	4b04      	ldr	r3, [pc, #16]	; (8001e28 <GetEPRxAddr+0x18>)
  uint8_t bTemp;
  uint16_t wRet;
  bTemp = (uint8_t)(wSwW & 0xff);
  wRet =  (wSwW >> 8) | ((uint16_t)bTemp << 8);
  return(wRet);
}
 8001e16:	b28a      	uxth	r2, r1
* Output         : None.
* Return         : Rx buffer address.
*******************************************************************************/
uint16_t GetEPRxAddr(uint8_t bEpNum)
{
  return(_GetEPRxAddr(bEpNum));
 8001e18:	eb02 00c0 	add.w	r0, r2, r0, lsl #3
 8001e1c:	18c1      	adds	r1, r0, r3
 8001e1e:	004a      	lsls	r2, r1, #1
}
 8001e20:	8810      	ldrh	r0, [r2, #0]
 8001e22:	4770      	bx	lr
 8001e24:	40005c50 	.word	0x40005c50
 8001e28:	20003004 	.word	0x20003004

08001e2c <SetEPTxCount>:
* Output         : None.
* Return         : None.
*******************************************************************************/
void SetEPTxCount(uint8_t bEpNum, uint16_t wCount)
{
  _SetEPTxCount(bEpNum, wCount);
 8001e2c:	4b04      	ldr	r3, [pc, #16]	; (8001e40 <SetEPTxCount+0x14>)
 8001e2e:	681a      	ldr	r2, [r3, #0]
  uint8_t bTemp;
  uint16_t wRet;
  bTemp = (uint8_t)(wSwW & 0xff);
  wRet =  (wSwW >> 8) | ((uint16_t)bTemp << 8);
  return(wRet);
}
 8001e30:	b293      	uxth	r3, r2
* Output         : None.
* Return         : None.
*******************************************************************************/
void SetEPTxCount(uint8_t bEpNum, uint16_t wCount)
{
  _SetEPTxCount(bEpNum, wCount);
 8001e32:	4a04      	ldr	r2, [pc, #16]	; (8001e44 <SetEPTxCount+0x18>)
 8001e34:	eb03 00c0 	add.w	r0, r3, r0, lsl #3
 8001e38:	1883      	adds	r3, r0, r2
 8001e3a:	0058      	lsls	r0, r3, #1
 8001e3c:	6001      	str	r1, [r0, #0]
 8001e3e:	4770      	bx	lr
 8001e40:	40005c50 	.word	0x40005c50
 8001e44:	20003002 	.word	0x20003002

08001e48 <SetEPRxCount>:
* Output         : None.
* Return         : None.
*******************************************************************************/
void SetEPRxCount(uint8_t bEpNum, uint16_t wCount)
{
  _SetEPRxCount(bEpNum, wCount);
 8001e48:	4b0c      	ldr	r3, [pc, #48]	; (8001e7c <SetEPRxCount+0x34>)
 8001e4a:	681a      	ldr	r2, [r3, #0]
  uint8_t bTemp;
  uint16_t wRet;
  bTemp = (uint8_t)(wSwW & 0xff);
  wRet =  (wSwW >> 8) | ((uint16_t)bTemp << 8);
  return(wRet);
}
 8001e4c:	b293      	uxth	r3, r2
* Output         : None.
* Return         : None.
*******************************************************************************/
void SetEPRxCount(uint8_t bEpNum, uint16_t wCount)
{
  _SetEPRxCount(bEpNum, wCount);
 8001e4e:	4a0c      	ldr	r2, [pc, #48]	; (8001e80 <SetEPRxCount+0x38>)
 8001e50:	eb03 00c0 	add.w	r0, r3, r0, lsl #3
 8001e54:	1883      	adds	r3, r0, r2
 8001e56:	005a      	lsls	r2, r3, #1
 8001e58:	293e      	cmp	r1, #62	; 0x3e
 8001e5a:	d908      	bls.n	8001e6e <SetEPRxCount+0x26>
 8001e5c:	094b      	lsrs	r3, r1, #5
 8001e5e:	06c9      	lsls	r1, r1, #27
 8001e60:	d101      	bne.n	8001e66 <SetEPRxCount+0x1e>
 8001e62:	1e58      	subs	r0, r3, #1
 8001e64:	b283      	uxth	r3, r0
 8001e66:	0299      	lsls	r1, r3, #10
 8001e68:	f441 4100 	orr.w	r1, r1, #32768	; 0x8000
 8001e6c:	e004      	b.n	8001e78 <SetEPRxCount+0x30>
 8001e6e:	084b      	lsrs	r3, r1, #1
 8001e70:	07c8      	lsls	r0, r1, #31
 8001e72:	bf48      	it	mi
 8001e74:	3301      	addmi	r3, #1
 8001e76:	0299      	lsls	r1, r3, #10
 8001e78:	6011      	str	r1, [r2, #0]
 8001e7a:	4770      	bx	lr
 8001e7c:	40005c50 	.word	0x40005c50
 8001e80:	20003006 	.word	0x20003006

08001e84 <GetEPRxCount>:
* Output         : None.
* Return         : Rx count value.
*******************************************************************************/
uint16_t GetEPRxCount(uint8_t bEpNum)
{
  return(_GetEPRxCount(bEpNum));
 8001e84:	4b05      	ldr	r3, [pc, #20]	; (8001e9c <GetEPRxCount+0x18>)
 8001e86:	6819      	ldr	r1, [r3, #0]
 8001e88:	4b05      	ldr	r3, [pc, #20]	; (8001ea0 <GetEPRxCount+0x1c>)
  uint8_t bTemp;
  uint16_t wRet;
  bTemp = (uint8_t)(wSwW & 0xff);
  wRet =  (wSwW >> 8) | ((uint16_t)bTemp << 8);
  return(wRet);
}
 8001e8a:	b28a      	uxth	r2, r1
* Output         : None.
* Return         : Rx count value.
*******************************************************************************/
uint16_t GetEPRxCount(uint8_t bEpNum)
{
  return(_GetEPRxCount(bEpNum));
 8001e8c:	eb02 00c0 	add.w	r0, r2, r0, lsl #3
 8001e90:	18c1      	adds	r1, r0, r3
 8001e92:	004a      	lsls	r2, r1, #1
 8001e94:	6810      	ldr	r0, [r2, #0]
 8001e96:	0583      	lsls	r3, r0, #22
}
 8001e98:	0d98      	lsrs	r0, r3, #22
 8001e9a:	4770      	bx	lr
 8001e9c:	40005c50 	.word	0x40005c50
 8001ea0:	20003006 	.word	0x20003006

08001ea4 <ByteSwap>:
uint16_t ByteSwap(uint16_t wSwW)
{
  uint8_t bTemp;
  uint16_t wRet;
  bTemp = (uint8_t)(wSwW & 0xff);
  wRet =  (wSwW >> 8) | ((uint16_t)bTemp << 8);
 8001ea4:	b2c3      	uxtb	r3, r0
 8001ea6:	0a00      	lsrs	r0, r0, #8
  return(wRet);
}
 8001ea8:	ea40 2003 	orr.w	r0, r0, r3, lsl #8
 8001eac:	4770      	bx	lr
	...

08001eb0 <USB_SIL_Init>:
*******************************************************************************/
uint32_t USB_SIL_Init(void)
{
  /* USB interrupts initialization */
  /* clear pending interrupts */
  _SetISTR(0);
 8001eb0:	4b04      	ldr	r3, [pc, #16]	; (8001ec4 <USB_SIL_Init+0x14>)
 8001eb2:	2000      	movs	r0, #0
 8001eb4:	6018      	str	r0, [r3, #0]
  wInterrupt_Mask = IMR_MSK;
 8001eb6:	4a04      	ldr	r2, [pc, #16]	; (8001ec8 <USB_SIL_Init+0x18>)
  /* set interrupts mask */
  _SetCNTR(wInterrupt_Mask);
 8001eb8:	4b04      	ldr	r3, [pc, #16]	; (8001ecc <USB_SIL_Init+0x1c>)
uint32_t USB_SIL_Init(void)
{
  /* USB interrupts initialization */
  /* clear pending interrupts */
  _SetISTR(0);
  wInterrupt_Mask = IMR_MSK;
 8001eba:	f44f 4106 	mov.w	r1, #34304	; 0x8600
 8001ebe:	8011      	strh	r1, [r2, #0]
  /* set interrupts mask */
  _SetCNTR(wInterrupt_Mask);
 8001ec0:	6019      	str	r1, [r3, #0]
  return 0;
}
 8001ec2:	4770      	bx	lr
 8001ec4:	40005c44 	.word	0x40005c44
 8001ec8:	20001324 	.word	0x20001324
 8001ecc:	40005c40 	.word	0x40005c40

08001ed0 <USB_SIL_Read>:
*                     received data buffer.
* Output         : None.
* Return         : Number of received data (in Bytes).
*******************************************************************************/
uint32_t USB_SIL_Read(uint8_t bEpAddr, uint8_t* pBufferPointer)
{
 8001ed0:	b570      	push	{r4, r5, r6, lr}
  uint32_t DataLength = 0;

  /* Get the number of received data on the selected Endpoint */
  DataLength = GetEPRxCount(bEpAddr & 0x7F);
 8001ed2:	f000 057f 	and.w	r5, r0, #127	; 0x7f
 8001ed6:	4b07      	ldr	r3, [pc, #28]	; (8001ef4 <USB_SIL_Read+0x24>)
 8001ed8:	4628      	mov	r0, r5
*                     received data buffer.
* Output         : None.
* Return         : Number of received data (in Bytes).
*******************************************************************************/
uint32_t USB_SIL_Read(uint8_t bEpAddr, uint8_t* pBufferPointer)
{
 8001eda:	460e      	mov	r6, r1
  uint32_t DataLength = 0;

  /* Get the number of received data on the selected Endpoint */
  DataLength = GetEPRxCount(bEpAddr & 0x7F);
 8001edc:	4798      	blx	r3
  
  /* Use the memory interface function to write to the selected endpoint */
  PMAToUserBufferCopy(pBufferPointer, GetEPRxAddr(bEpAddr & 0x7F), DataLength);
 8001ede:	4906      	ldr	r1, [pc, #24]	; (8001ef8 <USB_SIL_Read+0x28>)
uint32_t USB_SIL_Read(uint8_t bEpAddr, uint8_t* pBufferPointer)
{
  uint32_t DataLength = 0;

  /* Get the number of received data on the selected Endpoint */
  DataLength = GetEPRxCount(bEpAddr & 0x7F);
 8001ee0:	4604      	mov	r4, r0
  
  /* Use the memory interface function to write to the selected endpoint */
  PMAToUserBufferCopy(pBufferPointer, GetEPRxAddr(bEpAddr & 0x7F), DataLength);
 8001ee2:	4628      	mov	r0, r5
 8001ee4:	4788      	blx	r1
 8001ee6:	4622      	mov	r2, r4
 8001ee8:	4601      	mov	r1, r0
 8001eea:	4b04      	ldr	r3, [pc, #16]	; (8001efc <USB_SIL_Read+0x2c>)
 8001eec:	4630      	mov	r0, r6
 8001eee:	4798      	blx	r3

  /* Return the number of received data */
  return DataLength;
}
 8001ef0:	4620      	mov	r0, r4
 8001ef2:	bd70      	pop	{r4, r5, r6, pc}
 8001ef4:	08001e85 	.word	0x08001e85
 8001ef8:	08001e11 	.word	0x08001e11
 8001efc:	08001c47 	.word	0x08001c47

08001f00 <CTR_LP>:
* Input          : None.
* Output         : None.
* Return         : None.
*******************************************************************************/
void CTR_LP(void)
{
 8001f00:	b537      	push	{r0, r1, r2, r4, r5, lr}
  __IO uint16_t wEPVal = 0;
 8001f02:	2300      	movs	r3, #0
 8001f04:	f8ad 3006 	strh.w	r3, [sp, #6]
  /* stay in loop while pending interrupts */
  while (((wIstr = _GetISTR()) & ISTR_CTR) != 0)
 8001f08:	4857      	ldr	r0, [pc, #348]	; (8002068 <CTR_LP+0x168>)
 8001f0a:	4b58      	ldr	r3, [pc, #352]	; (800206c <CTR_LP+0x16c>)
 8001f0c:	6802      	ldr	r2, [r0, #0]
 8001f0e:	b291      	uxth	r1, r2
 8001f10:	0412      	lsls	r2, r2, #16
 8001f12:	8019      	strh	r1, [r3, #0]
 8001f14:	f140 80a6 	bpl.w	8002064 <CTR_LP+0x164>
  {
    /* extract highest priority endpoint number */
    EPindex = (uint8_t)(wIstr & ISTR_EP_ID);
 8001f18:	8818      	ldrh	r0, [r3, #0]
 8001f1a:	4955      	ldr	r1, [pc, #340]	; (8002070 <CTR_LP+0x170>)
 8001f1c:	f000 020f 	and.w	r2, r0, #15
 8001f20:	700a      	strb	r2, [r1, #0]
    if (EPindex == 0)
 8001f22:	2a00      	cmp	r2, #0
 8001f24:	d16c      	bne.n	8002000 <CTR_LP+0x100>
      /* (Setup0_Process, In0_Process, Out0_Process) */

      /* save RX & TX status */
      /* and set both to NAK */
      
	    SaveRState = _GetENDPOINT(ENDP0);
 8001f26:	4c53      	ldr	r4, [pc, #332]	; (8002074 <CTR_LP+0x174>)
 8001f28:	6825      	ldr	r5, [r4, #0]
 8001f2a:	b2aa      	uxth	r2, r5
 8001f2c:	4d52      	ldr	r5, [pc, #328]	; (8002078 <CTR_LP+0x178>)
 8001f2e:	802a      	strh	r2, [r5, #0]
	    SaveTState = SaveRState & EPTX_STAT;
 8001f30:	8829      	ldrh	r1, [r5, #0]
 8001f32:	4a52      	ldr	r2, [pc, #328]	; (800207c <CTR_LP+0x17c>)
 8001f34:	f001 0030 	and.w	r0, r1, #48	; 0x30
 8001f38:	8010      	strh	r0, [r2, #0]
	    SaveRState &=  EPRX_STAT;	
 8001f3a:	8829      	ldrh	r1, [r5, #0]

	    _SetEPRxTxStatus(ENDP0,EP_RX_NAK,EP_TX_NAK);
 8001f3c:	f64b 72bf 	movw	r2, #49087	; 0xbfbf
      /* save RX & TX status */
      /* and set both to NAK */
      
	    SaveRState = _GetENDPOINT(ENDP0);
	    SaveTState = SaveRState & EPTX_STAT;
	    SaveRState &=  EPRX_STAT;	
 8001f40:	f401 5040 	and.w	r0, r1, #12288	; 0x3000
 8001f44:	8028      	strh	r0, [r5, #0]

	    _SetEPRxTxStatus(ENDP0,EP_RX_NAK,EP_TX_NAK);
 8001f46:	6821      	ldr	r1, [r4, #0]
 8001f48:	400a      	ands	r2, r1
 8001f4a:	f482 5000 	eor.w	r0, r2, #8192	; 0x2000
 8001f4e:	f080 0120 	eor.w	r1, r0, #32
 8001f52:	f441 4200 	orr.w	r2, r1, #32768	; 0x8000
 8001f56:	f042 0080 	orr.w	r0, r2, #128	; 0x80
 8001f5a:	6020      	str	r0, [r4, #0]

      /* DIR bit = origin of the interrupt */

      if ((wIstr & ISTR_DIR) == 0)
 8001f5c:	881b      	ldrh	r3, [r3, #0]
 8001f5e:	f003 0110 	and.w	r1, r3, #16
 8001f62:	b28a      	uxth	r2, r1
 8001f64:	b932      	cbnz	r2, 8001f74 <CTR_LP+0x74>
        /* DIR = 0 */

        /* DIR = 0      => IN  int */
        /* DIR = 0 implies that (EP_CTR_TX = 1) always  */

        _ClearEP_CTR_TX(ENDP0);
 8001f66:	6820      	ldr	r0, [r4, #0]
 8001f68:	f648 730f 	movw	r3, #36623	; 0x8f0f
 8001f6c:	4003      	ands	r3, r0
 8001f6e:	6023      	str	r3, [r4, #0]
        In0_Process();
 8001f70:	4b43      	ldr	r3, [pc, #268]	; (8002080 <CTR_LP+0x180>)
 8001f72:	e01b      	b.n	8001fac <CTR_LP+0xac>
        /* DIR = 1 */

        /* DIR = 1 & CTR_RX       => SETUP or OUT int */
        /* DIR = 1 & (CTR_TX | CTR_RX) => 2 int pending */

        wEPVal = _GetENDPOINT(ENDP0);
 8001f74:	6820      	ldr	r0, [r4, #0]
 8001f76:	b283      	uxth	r3, r0
 8001f78:	f8ad 3006 	strh.w	r3, [sp, #6]
        
        if ((wEPVal &EP_SETUP) != 0)
 8001f7c:	f8bd 1006 	ldrh.w	r1, [sp, #6]
 8001f80:	f401 6200 	and.w	r2, r1, #2048	; 0x800
 8001f84:	b290      	uxth	r0, r2
 8001f86:	b130      	cbz	r0, 8001f96 <CTR_LP+0x96>
        {
          _ClearEP_CTR_RX(ENDP0); /* SETUP bit kept frozen while CTR_RX = 1 */
 8001f88:	6821      	ldr	r1, [r4, #0]
 8001f8a:	f640 728f 	movw	r2, #3983	; 0xf8f
 8001f8e:	400a      	ands	r2, r1
 8001f90:	6022      	str	r2, [r4, #0]
          Setup0_Process();
 8001f92:	4b3c      	ldr	r3, [pc, #240]	; (8002084 <CTR_LP+0x184>)
 8001f94:	e00a      	b.n	8001fac <CTR_LP+0xac>

		      _SetEPRxTxStatus(ENDP0,SaveRState,SaveTState);
          return;
        }

        else if ((wEPVal & EP_CTR_RX) != 0)
 8001f96:	f8bd 3006 	ldrh.w	r3, [sp, #6]
 8001f9a:	b219      	sxth	r1, r3
 8001f9c:	2900      	cmp	r1, #0
 8001f9e:	dab3      	bge.n	8001f08 <CTR_LP+0x8>
        {
          _ClearEP_CTR_RX(ENDP0);
 8001fa0:	6822      	ldr	r2, [r4, #0]
 8001fa2:	f640 708f 	movw	r0, #3983	; 0xf8f
 8001fa6:	4010      	ands	r0, r2
          Out0_Process();
 8001fa8:	4b37      	ldr	r3, [pc, #220]	; (8002088 <CTR_LP+0x188>)
          return;
        }

        else if ((wEPVal & EP_CTR_RX) != 0)
        {
          _ClearEP_CTR_RX(ENDP0);
 8001faa:	6020      	str	r0, [r4, #0]
          Out0_Process();
 8001fac:	4798      	blx	r3
          /* before terminate set Tx & Rx status */
     
		     _SetEPRxTxStatus(ENDP0,SaveRState,SaveTState);
 8001fae:	6821      	ldr	r1, [r4, #0]
 8001fb0:	882a      	ldrh	r2, [r5, #0]
 8001fb2:	f64b 73bf 	movw	r3, #49087	; 0xbfbf
 8001fb6:	f402 5080 	and.w	r0, r2, #4096	; 0x1000
 8001fba:	400b      	ands	r3, r1
 8001fbc:	b281      	uxth	r1, r0
 8001fbe:	b109      	cbz	r1, 8001fc4 <CTR_LP+0xc4>
 8001fc0:	f483 5380 	eor.w	r3, r3, #4096	; 0x1000
 8001fc4:	4a2c      	ldr	r2, [pc, #176]	; (8002078 <CTR_LP+0x178>)
 8001fc6:	8810      	ldrh	r0, [r2, #0]
 8001fc8:	f400 5100 	and.w	r1, r0, #8192	; 0x2000
 8001fcc:	b28a      	uxth	r2, r1
 8001fce:	b10a      	cbz	r2, 8001fd4 <CTR_LP+0xd4>
 8001fd0:	f483 5300 	eor.w	r3, r3, #8192	; 0x2000
 8001fd4:	4829      	ldr	r0, [pc, #164]	; (800207c <CTR_LP+0x17c>)
 8001fd6:	8801      	ldrh	r1, [r0, #0]
 8001fd8:	f001 0210 	and.w	r2, r1, #16
 8001fdc:	b291      	uxth	r1, r2
 8001fde:	b109      	cbz	r1, 8001fe4 <CTR_LP+0xe4>
 8001fe0:	f083 0310 	eor.w	r3, r3, #16
 8001fe4:	8800      	ldrh	r0, [r0, #0]
 8001fe6:	f000 0220 	and.w	r2, r0, #32
 8001fea:	b291      	uxth	r1, r2
 8001fec:	b109      	cbz	r1, 8001ff2 <CTR_LP+0xf2>
 8001fee:	f083 0320 	eor.w	r3, r3, #32
 8001ff2:	f443 4000 	orr.w	r0, r3, #32768	; 0x8000
 8001ff6:	4a1f      	ldr	r2, [pc, #124]	; (8002074 <CTR_LP+0x174>)
 8001ff8:	f040 0180 	orr.w	r1, r0, #128	; 0x80
 8001ffc:	6011      	str	r1, [r2, #0]
          return;
 8001ffe:	e031      	b.n	8002064 <CTR_LP+0x164>
    else
    {
      /* Decode and service non control endpoints interrupt  */

      /* process related endpoint register */
      wEPVal = _GetENDPOINT(EPindex);
 8002000:	0093      	lsls	r3, r2, #2
 8002002:	f103 4080 	add.w	r0, r3, #1073741824	; 0x40000000
 8002006:	f500 43b8 	add.w	r3, r0, #23552	; 0x5c00
 800200a:	6819      	ldr	r1, [r3, #0]
 800200c:	b288      	uxth	r0, r1
 800200e:	f8ad 0006 	strh.w	r0, [sp, #6]
      if ((wEPVal & EP_CTR_RX) != 0)
 8002012:	f8bd 1006 	ldrh.w	r1, [sp, #6]
 8002016:	b208      	sxth	r0, r1
 8002018:	2800      	cmp	r0, #0
 800201a:	da09      	bge.n	8002030 <CTR_LP+0x130>
      {
        /* clear int flag */
        _ClearEP_CTR_RX(EPindex);
 800201c:	6818      	ldr	r0, [r3, #0]
 800201e:	f640 718f 	movw	r1, #3983	; 0xf8f
 8002022:	4001      	ands	r1, r0
 8002024:	6019      	str	r1, [r3, #0]

        /* call OUT service function */
        (*pEpInt_OUT[EPindex-1])();
 8002026:	4b19      	ldr	r3, [pc, #100]	; (800208c <CTR_LP+0x18c>)
 8002028:	3a01      	subs	r2, #1
 800202a:	f853 0022 	ldr.w	r0, [r3, r2, lsl #2]
 800202e:	4780      	blx	r0

      } /* if((wEPVal & EP_CTR_RX) */

      if ((wEPVal & EP_CTR_TX) != 0)
 8002030:	f8bd 1006 	ldrh.w	r1, [sp, #6]
 8002034:	f001 0280 	and.w	r2, r1, #128	; 0x80
 8002038:	b293      	uxth	r3, r2
 800203a:	2b00      	cmp	r3, #0
 800203c:	f43f af64 	beq.w	8001f08 <CTR_LP+0x8>
      {
        /* clear int flag */
        _ClearEP_CTR_TX(EPindex);
 8002040:	480b      	ldr	r0, [pc, #44]	; (8002070 <CTR_LP+0x170>)
 8002042:	7802      	ldrb	r2, [r0, #0]
 8002044:	0091      	lsls	r1, r2, #2
 8002046:	f101 4380 	add.w	r3, r1, #1073741824	; 0x40000000
 800204a:	f503 41b8 	add.w	r1, r3, #23552	; 0x5c00
 800204e:	6808      	ldr	r0, [r1, #0]
 8002050:	f648 730f 	movw	r3, #36623	; 0x8f0f
 8002054:	4003      	ands	r3, r0
 8002056:	600b      	str	r3, [r1, #0]

        /* call IN service function */
        (*pEpInt_IN[EPindex-1])();
 8002058:	490d      	ldr	r1, [pc, #52]	; (8002090 <CTR_LP+0x190>)
 800205a:	3a01      	subs	r2, #1
 800205c:	f851 0022 	ldr.w	r0, [r1, r2, lsl #2]
 8002060:	4780      	blx	r0
 8002062:	e751      	b.n	8001f08 <CTR_LP+0x8>
      } /* if((wEPVal & EP_CTR_TX) != 0) */

    }/* if(EPindex == 0) else */

  }/* while(...) */
}
 8002064:	bd3e      	pop	{r1, r2, r3, r4, r5, pc}
 8002066:	bf00      	nop
 8002068:	40005c44 	.word	0x40005c44
 800206c:	20000af0 	.word	0x20000af0
 8002070:	200012fc 	.word	0x200012fc
 8002074:	40005c00 	.word	0x40005c00
 8002078:	20001326 	.word	0x20001326
 800207c:	20001328 	.word	0x20001328
 8002080:	08001b75 	.word	0x08001b75
 8002084:	08001829 	.word	0x08001829
 8002088:	08001745 	.word	0x08001745
 800208c:	20000038 	.word	0x20000038
 8002090:	2000001c 	.word	0x2000001c

08002094 <FLASH_Unlock>:
* Return         : None
*******************************************************************************/
void FLASH_Unlock(void)
{
  /* Authorize the FPEC Access */
  FLASH->KEYR = FLASH_KEY1;
 8002094:	4a03      	ldr	r2, [pc, #12]	; (80020a4 <FLASH_Unlock+0x10>)
 8002096:	4b04      	ldr	r3, [pc, #16]	; (80020a8 <FLASH_Unlock+0x14>)
  FLASH->KEYR = FLASH_KEY2;
 8002098:	f102 3088 	add.w	r0, r2, #2290649224	; 0x88888888
* Return         : None
*******************************************************************************/
void FLASH_Unlock(void)
{
  /* Authorize the FPEC Access */
  FLASH->KEYR = FLASH_KEY1;
 800209c:	605a      	str	r2, [r3, #4]
  FLASH->KEYR = FLASH_KEY2;
 800209e:	6058      	str	r0, [r3, #4]
 80020a0:	4770      	bx	lr
 80020a2:	bf00      	nop
 80020a4:	45670123 	.word	0x45670123
 80020a8:	40022000 	.word	0x40022000

080020ac <FLASH_Lock>:
* Return         : None
*******************************************************************************/
void FLASH_Lock(void)
{
  /* Set the Lock Bit to lock the FPEC and the FCR */
  FLASH->CR |= CR_LOCK_Set;
 80020ac:	4b02      	ldr	r3, [pc, #8]	; (80020b8 <FLASH_Lock+0xc>)
 80020ae:	691a      	ldr	r2, [r3, #16]
 80020b0:	f042 0080 	orr.w	r0, r2, #128	; 0x80
 80020b4:	6118      	str	r0, [r3, #16]
 80020b6:	4770      	bx	lr
 80020b8:	40022000 	.word	0x40022000

080020bc <FLASH_ClearFlag>:
{
  /* Check the parameters */
  assert_param(IS_FLASH_CLEAR_FLAG(FLASH_FLAG)) ;
  
  /* Clear the flags */
  FLASH->SR = FLASH_FLAG;
 80020bc:	4b01      	ldr	r3, [pc, #4]	; (80020c4 <FLASH_ClearFlag+0x8>)
 80020be:	60d8      	str	r0, [r3, #12]
 80020c0:	4770      	bx	lr
 80020c2:	bf00      	nop
 80020c4:	40022000 	.word	0x40022000

080020c8 <FLASH_GetStatus>:
*******************************************************************************/
FLASH_Status FLASH_GetStatus(void)
{
  FLASH_Status flashstatus = FLASH_COMPLETE;
  
  if((FLASH->SR & FLASH_FLAG_BSY) == FLASH_FLAG_BSY) 
 80020c8:	4b08      	ldr	r3, [pc, #32]	; (80020ec <FLASH_GetStatus+0x24>)
 80020ca:	68da      	ldr	r2, [r3, #12]
 80020cc:	07d1      	lsls	r1, r2, #31
 80020ce:	d409      	bmi.n	80020e4 <FLASH_GetStatus+0x1c>
  {
    flashstatus = FLASH_BUSY;
  }
  else 
  {  
    if(FLASH->SR & FLASH_FLAG_PGERR)
 80020d0:	68d8      	ldr	r0, [r3, #12]
 80020d2:	0742      	lsls	r2, r0, #29
 80020d4:	d408      	bmi.n	80020e8 <FLASH_GetStatus+0x20>
    { 
      flashstatus = FLASH_ERROR_PG;
    }
    else 
    {
      if(FLASH->SR & FLASH_FLAG_WRPRTERR)
 80020d6:	68d9      	ldr	r1, [r3, #12]
 80020d8:	f011 0f10 	tst.w	r1, #16
      {
        flashstatus = FLASH_ERROR_WRP;
 80020dc:	bf0c      	ite	eq
 80020de:	2004      	moveq	r0, #4
 80020e0:	2003      	movne	r0, #3
 80020e2:	4770      	bx	lr
{
  FLASH_Status flashstatus = FLASH_COMPLETE;
  
  if((FLASH->SR & FLASH_FLAG_BSY) == FLASH_FLAG_BSY) 
  {
    flashstatus = FLASH_BUSY;
 80020e4:	2001      	movs	r0, #1
 80020e6:	4770      	bx	lr
  }
  else 
  {  
    if(FLASH->SR & FLASH_FLAG_PGERR)
    { 
      flashstatus = FLASH_ERROR_PG;
 80020e8:	2002      	movs	r0, #2
      }
    }
  }
  /* Return the Flash Status */
  return flashstatus;
}
 80020ea:	4770      	bx	lr
 80020ec:	40022000 	.word	0x40022000

080020f0 <FLASH_WaitForLastOperation>:
* Return         : FLASH Status: The returned value can be: FLASH_BUSY, 
*                  FLASH_ERROR_PG, FLASH_ERROR_WRP, FLASH_COMPLETE or 
*                  FLASH_TIMEOUT.
*******************************************************************************/
FLASH_Status FLASH_WaitForLastOperation(u32 Timeout)
{ 
 80020f0:	b513      	push	{r0, r1, r4, lr}
  FLASH_Status status = FLASH_COMPLETE;
   
  /* Check for the Flash Status */
  status = FLASH_GetStatus();
 80020f2:	4b0c      	ldr	r3, [pc, #48]	; (8002124 <FLASH_WaitForLastOperation+0x34>)
* Return         : FLASH Status: The returned value can be: FLASH_BUSY, 
*                  FLASH_ERROR_PG, FLASH_ERROR_WRP, FLASH_COMPLETE or 
*                  FLASH_TIMEOUT.
*******************************************************************************/
FLASH_Status FLASH_WaitForLastOperation(u32 Timeout)
{ 
 80020f4:	4604      	mov	r4, r0
  FLASH_Status status = FLASH_COMPLETE;
   
  /* Check for the Flash Status */
  status = FLASH_GetStatus();
 80020f6:	4798      	blx	r3

  /* Wait for a Flash operation to complete or a TIMEOUT to occur */
  while((status == FLASH_BUSY) && (Timeout != 0x00))
 80020f8:	2801      	cmp	r0, #1
 80020fa:	d10f      	bne.n	800211c <FLASH_WaitForLastOperation+0x2c>
 80020fc:	b164      	cbz	r4, 8002118 <FLASH_WaitForLastOperation+0x28>
* Output         : None
* Return         : None
*******************************************************************************/
static void delay(void)
{
  vu32 i = 0;
 80020fe:	2000      	movs	r0, #0
 8002100:	9001      	str	r0, [sp, #4]

  for(i = 0xFF; i != 0; i--)
 8002102:	20ff      	movs	r0, #255	; 0xff
 8002104:	9001      	str	r0, [sp, #4]
 8002106:	9901      	ldr	r1, [sp, #4]
 8002108:	b111      	cbz	r1, 8002110 <FLASH_WaitForLastOperation+0x20>
 800210a:	9b01      	ldr	r3, [sp, #4]
 800210c:	1e58      	subs	r0, r3, #1
 800210e:	e7f9      	b.n	8002104 <FLASH_WaitForLastOperation+0x14>

  /* Wait for a Flash operation to complete or a TIMEOUT to occur */
  while((status == FLASH_BUSY) && (Timeout != 0x00))
  {
    delay();
    status = FLASH_GetStatus();
 8002110:	4a04      	ldr	r2, [pc, #16]	; (8002124 <FLASH_WaitForLastOperation+0x34>)
 8002112:	4790      	blx	r2
    Timeout--;
 8002114:	3c01      	subs	r4, #1
 8002116:	e7ef      	b.n	80020f8 <FLASH_WaitForLastOperation+0x8>
  }

  if(Timeout == 0x00 )
  {
    status = FLASH_TIMEOUT;
 8002118:	2005      	movs	r0, #5
 800211a:	e002      	b.n	8002122 <FLASH_WaitForLastOperation+0x32>
 800211c:	2c00      	cmp	r4, #0
 800211e:	bf08      	it	eq
 8002120:	2005      	moveq	r0, #5
  }

  /* Return the operation status */
  return status;
}
 8002122:	bd1c      	pop	{r2, r3, r4, pc}
 8002124:	080020c9 	.word	0x080020c9

08002128 <FLASH_ProgramWord>:
* Return         : FLASH Status: The returned value can be: FLASH_BUSY, 
*                  FLASH_ERROR_PG, FLASH_ERROR_WRP, FLASH_COMPLETE or 
*                  FLASH_TIMEOUT. 
*******************************************************************************/
FLASH_Status FLASH_ProgramWord(u32 Address, u32 Data)
{
 8002128:	b5f8      	push	{r3, r4, r5, r6, r7, lr}
 800212a:	4606      	mov	r6, r0

  /* Check the parameters */
  assert_param(IS_FLASH_ADDRESS(Address));

  /* Wait for last operation to be completed */
  status = FLASH_WaitForLastOperation(ProgramTimeout);
 800212c:	4d0f      	ldr	r5, [pc, #60]	; (800216c <FLASH_ProgramWord+0x44>)
 800212e:	200f      	movs	r0, #15
* Return         : FLASH Status: The returned value can be: FLASH_BUSY, 
*                  FLASH_ERROR_PG, FLASH_ERROR_WRP, FLASH_COMPLETE or 
*                  FLASH_TIMEOUT. 
*******************************************************************************/
FLASH_Status FLASH_ProgramWord(u32 Address, u32 Data)
{
 8002130:	460f      	mov	r7, r1

  /* Check the parameters */
  assert_param(IS_FLASH_ADDRESS(Address));

  /* Wait for last operation to be completed */
  status = FLASH_WaitForLastOperation(ProgramTimeout);
 8002132:	47a8      	blx	r5
  
  if(status == FLASH_COMPLETE)
 8002134:	2804      	cmp	r0, #4
 8002136:	d117      	bne.n	8002168 <FLASH_ProgramWord+0x40>
  {
    /* if the previous operation is completed, proceed to program the new first 
    half word */
    FLASH->CR |= CR_PG_Set;
 8002138:	4c0d      	ldr	r4, [pc, #52]	; (8002170 <FLASH_ProgramWord+0x48>)
  
    *(vu16*)Address = (u16)Data;
 800213a:	b2b9      	uxth	r1, r7
  
  if(status == FLASH_COMPLETE)
  {
    /* if the previous operation is completed, proceed to program the new first 
    half word */
    FLASH->CR |= CR_PG_Set;
 800213c:	6923      	ldr	r3, [r4, #16]
 800213e:	f043 0001 	orr.w	r0, r3, #1
 8002142:	6120      	str	r0, [r4, #16]
  
    *(vu16*)Address = (u16)Data;

    /* Wait for last operation to be completed */
    status = FLASH_WaitForLastOperation(ProgramTimeout);
 8002144:	200f      	movs	r0, #15
  {
    /* if the previous operation is completed, proceed to program the new first 
    half word */
    FLASH->CR |= CR_PG_Set;
  
    *(vu16*)Address = (u16)Data;
 8002146:	8031      	strh	r1, [r6, #0]

    /* Wait for last operation to be completed */
    status = FLASH_WaitForLastOperation(ProgramTimeout);
 8002148:	47a8      	blx	r5
 
    if(status == FLASH_COMPLETE)
 800214a:	2804      	cmp	r0, #4
 800214c:	d103      	bne.n	8002156 <FLASH_ProgramWord+0x2e>
    {
      /* if the previous operation is completed, proceed to program the new second 
      half word */
      *(vu16*)(Address + 2) = Data >> 16;
 800214e:	0c3f      	lsrs	r7, r7, #16
 8002150:	8077      	strh	r7, [r6, #2]
    
      /* Wait for last operation to be completed */
      status = FLASH_WaitForLastOperation(ProgramTimeout);
 8002152:	200f      	movs	r0, #15
 8002154:	47a8      	blx	r5
        
      if(status != FLASH_BUSY)
 8002156:	2801      	cmp	r0, #1
 8002158:	d101      	bne.n	800215e <FLASH_ProgramWord+0x36>
* Return         : FLASH Status: The returned value can be: FLASH_BUSY, 
*                  FLASH_ERROR_PG, FLASH_ERROR_WRP, FLASH_COMPLETE or 
*                  FLASH_TIMEOUT. 
*******************************************************************************/
FLASH_Status FLASH_ProgramWord(u32 Address, u32 Data)
{
 800215a:	2001      	movs	r0, #1
 800215c:	bdf8      	pop	{r3, r4, r5, r6, r7, pc}
    else
    {
      if (status != FLASH_BUSY)
      {
        /* Disable the PG Bit */
        FLASH->CR &= CR_PG_Reset;
 800215e:	6922      	ldr	r2, [r4, #16]
 8002160:	f641 73fe 	movw	r3, #8190	; 0x1ffe
 8002164:	4013      	ands	r3, r2
 8002166:	6123      	str	r3, [r4, #16]
      }
     }
  }
  /* Return the Program Status */
  return status;
}
 8002168:	bdf8      	pop	{r3, r4, r5, r6, r7, pc}
 800216a:	bf00      	nop
 800216c:	080020f1 	.word	0x080020f1
 8002170:	40022000 	.word	0x40022000

08002174 <FLASH_ErasePage>:
* Return         : FLASH Status: The returned value can be: FLASH_BUSY, 
*                  FLASH_ERROR_PG, FLASH_ERROR_WRP, FLASH_COMPLETE or 
*                  FLASH_TIMEOUT.
*******************************************************************************/
FLASH_Status FLASH_ErasePage(u32 Page_Address)
{
 8002174:	b570      	push	{r4, r5, r6, lr}
 8002176:	4606      	mov	r6, r0

  /* Check the parameters */
  assert_param(IS_FLASH_ADDRESS(Page_Address));

  /* Wait for last operation to be completed */
  status = FLASH_WaitForLastOperation(EraseTimeout);
 8002178:	4d0d      	ldr	r5, [pc, #52]	; (80021b0 <FLASH_ErasePage+0x3c>)
 800217a:	f640 70ff 	movw	r0, #4095	; 0xfff
 800217e:	47a8      	blx	r5
  
  if(status == FLASH_COMPLETE)
 8002180:	2804      	cmp	r0, #4
 8002182:	d113      	bne.n	80021ac <FLASH_ErasePage+0x38>
  { 
    /* if the previous operation is completed, proceed to erase the page */
    FLASH->CR|= CR_PER_Set;
 8002184:	4c0b      	ldr	r4, [pc, #44]	; (80021b4 <FLASH_ErasePage+0x40>)
 8002186:	6923      	ldr	r3, [r4, #16]
 8002188:	f043 0002 	orr.w	r0, r3, #2
 800218c:	6120      	str	r0, [r4, #16]
    FLASH->AR = Page_Address; 
 800218e:	6166      	str	r6, [r4, #20]
    FLASH->CR|= CR_STRT_Set;
 8002190:	6921      	ldr	r1, [r4, #16]
    
    /* Wait for last operation to be completed */
    status = FLASH_WaitForLastOperation(EraseTimeout);
 8002192:	f640 70ff 	movw	r0, #4095	; 0xfff
  if(status == FLASH_COMPLETE)
  { 
    /* if the previous operation is completed, proceed to erase the page */
    FLASH->CR|= CR_PER_Set;
    FLASH->AR = Page_Address; 
    FLASH->CR|= CR_STRT_Set;
 8002196:	f041 0240 	orr.w	r2, r1, #64	; 0x40
 800219a:	6122      	str	r2, [r4, #16]
    
    /* Wait for last operation to be completed */
    status = FLASH_WaitForLastOperation(EraseTimeout);
 800219c:	47a8      	blx	r5

    if(status != FLASH_BUSY)
 800219e:	2801      	cmp	r0, #1
 80021a0:	d004      	beq.n	80021ac <FLASH_ErasePage+0x38>
    {
      /* if the erase operation is completed, disable the PER Bit */
      FLASH->CR &= CR_PER_Reset;
 80021a2:	6921      	ldr	r1, [r4, #16]
 80021a4:	f641 73fd 	movw	r3, #8189	; 0x1ffd
 80021a8:	400b      	ands	r3, r1
 80021aa:	6123      	str	r3, [r4, #16]
    }
  }
  /* Return the Erase Status */
  return status;
}
 80021ac:	bd70      	pop	{r4, r5, r6, pc}
 80021ae:	bf00      	nop
 80021b0:	080020f1 	.word	0x080020f1
 80021b4:	40022000 	.word	0x40022000

080021b8 <Virtual_Com_Port_StringVendor>:
 80021b8:	004f0326 004f0052 00410043 00200020     &.O.R.O.C.A. . .
 80021c8:	00200020 00200020 00200020 00200020      . . . . . . . .
 80021d8:	00200020 01120020                                 . . .

080021de <Virtual_Com_Port_DeviceDescriptor>:
 80021de:	02000112 40000002 57400483 02010200     .......@..@W....
 80021ee:	03040103                                         ..

080021f0 <Virtual_Com_Port_StringLangID>:
 80021f0:	04090304                                ....

080021f4 <Virtual_Com_Port_StringProduct>:
 80021f4:	00530332 0079006b 006f0052 00650076     2.S.k.y.R.o.v.e.
 8002204:	00200072 004f0043 0020004d 00200020     r. .C.O.M. . . .
 8002214:	00200020 00200020 00200020 00200020      . . . . . . . .
 8002224:	02090020                                          .

08002226 <Virtual_Com_Port_ConfigDescriptor>:
 8002226:	00430209 c0000102 00040932 02020100     ..C.....2.......
 8002236:	24050001 05011000 01000124 02022404     ...$....$....$..
 8002246:	00062405 82050701 ff000803 00010409     .$..............
 8002256:	00000a02 03050700 00004002 02810507     .........@......
 8002266:	00000040 00000000                                @.....
